 NvClothDEBUG_x64

 Timestamp is 692ef3a8 (Tue Dec  2 23:11:52 2025)

 Preferred load address is 0000000180000000

 Start         Length     Name                   Class
 0001:00000000 0000c100H .text$di                CODE
 0001:0000c100 000ca680H .text$mn                CODE
 0001:000d6780 00001040H .text$mn$00             CODE
 0001:000d77c0 00001155H .text$x                 CODE
 0002:00000000 00000110H .CRT$XCA                DATA
 0002:00000110 000002d0H .CRT$XCU                DATA
 0002:000003e0 00000110H .CRT$XCZ                DATA
 0002:000004f0 00000110H .CRT$XIA                DATA
 0002:00000600 00000110H .CRT$XIZ                DATA
 0002:00000710 00000110H .CRT$XPA                DATA
 0002:00000820 00000110H .CRT$XPZ                DATA
 0002:00000930 00000110H .CRT$XTA                DATA
 0002:00000a40 00000120H .CRT$XTZ                DATA
 0002:00000b60 00029120H .rdata                  DATA
 0002:00029c80 00000200H .rdata$CastGuardVftablesA DATA
 0002:00029e80 000001a0H .rdata$CastGuardVftablesC DATA
 0002:0002a020 00000348H .rdata$r                DATA
 0002:0002a368 00000188H .rdata$zzzdbg           DATA
 0002:0002a4f0 00000110H .rtc$IAA                DATA
 0002:0002a600 000002f0H .rtc$IMZ                DATA
 0002:0002a8f0 00000110H .rtc$IZZ                DATA
 0002:0002aa00 00000110H .rtc$TAA                DATA
 0002:0002ab10 000002f0H .rtc$TMZ                DATA
 0002:0002ae00 00000110H .rtc$TZZ                DATA
 0002:0002af10 00009b10H .xdata                  DATA
 0002:00034a20 00000210H .xdata$x                DATA
 0002:00034c30 00000b5dH .edata                  DATA
 0003:00000000 00236098H .data                   DATA
 0003:00236098 000001a0H .data$r                 DATA
 0003:00236238 00000128H .data$rs                DATA
 0003:00236360 00002759H .bss                    DATA
 0004:00000000 0000ac98H .pdata                  DATA
 0005:00000000 000003d0H .idata$5                DATA
 0005:000003d0 0000003cH .idata$2                DATA
 0005:0000040c 00000014H .idata$3                DATA
 0005:00000420 000003d0H .idata$4                DATA
 0005:000007f0 00000764H .idata$6                DATA
 0006:00000000 00000175H .00cfg                  DATA
 0007:00000000 00000170H .rsrc$01                DATA
 0007:00000170 000002ccH .rsrc$02                DATA

  Address         Publics by Value              Rva+Base               Lib:Object

 0000:00000000       __AbsoluteZero             0000000000000000     <absolute>
 0000:00000000       ___safe_se_handler_count   0000000000000000     <absolute>
 0000:00000000       ___safe_se_handler_table   0000000000000000     <absolute>
 0000:00000000       __arm64x_extra_rfe_table   0000000000000000     <absolute>
 0000:00000000       __arm64x_extra_rfe_table_size 0000000000000000     <absolute>
 0000:00000000       __arm64x_native_entrypoint 0000000000000000     <absolute>
 0000:00000000       __arm64x_redirection_metadata 0000000000000000     <absolute>
 0000:00000000       __arm64x_redirection_metadata_count 0000000000000000     <absolute>
 0000:00000000       __dynamic_value_reloc_table 0000000000000000     <absolute>
 0000:00000000       __enclave_config           0000000000000000     <absolute>
 0000:00000000       __guard_check_icall_a64n_fptr 0000000000000000     <absolute>
 0000:00000000       __guard_eh_cont_count      0000000000000000     <absolute>
 0000:00000000       __guard_eh_cont_table      0000000000000000     <absolute>
 0000:00000000       __guard_fids_count         0000000000000000     <absolute>
 0000:00000000       __guard_fids_table         0000000000000000     <absolute>
 0000:00000000       __guard_iat_count          0000000000000000     <absolute>
 0000:00000000       __guard_iat_table          0000000000000000     <absolute>
 0000:00000000       __guard_longjmp_count      0000000000000000     <absolute>
 0000:00000000       __guard_longjmp_table      0000000000000000     <absolute>
 0000:00000000       __hybrid_auxiliary_delayload_iat 0000000000000000     <absolute>
 0000:00000000       __hybrid_auxiliary_delayload_iat_copy 0000000000000000     <absolute>
 0000:00000000       __hybrid_auxiliary_iat     0000000000000000     <absolute>
 0000:00000000       __hybrid_auxiliary_iat_copy 0000000000000000     <absolute>
 0000:00000000       __hybrid_code_map          0000000000000000     <absolute>
 0000:00000000       __hybrid_code_map_count    0000000000000000     <absolute>
 0000:00000000       __hybrid_image_info_bitfield 0000000000000000     <absolute>
 0000:00000000       __volatile_metadata        0000000000000000     <absolute>
 0000:00000000       __x64_code_ranges_to_entry_points 0000000000000000     <absolute>
 0000:00000000       __x64_code_ranges_to_entry_points_count 0000000000000000     <absolute>
 0000:00000100       __guard_flags              0000000000000100     <absolute>
 0000:00000000       __ImageBase                0000000180000000     <linker-defined>
 0001:0000c100       ?atomicExchange@ps@cloth@nv@@YAHPECHH@Z 000000018000d100 f   PsWindowsAtomic.obj
 0001:0000c120       ?atomicCompareExchange@ps@cloth@nv@@YAHPECHHH@Z 000000018000d120 f   PsWindowsAtomic.obj
 0001:0000c160       ?atomicCompareExchangePointer@ps@cloth@nv@@YAPEAXPEAPECXPEAX1@Z 000000018000d160 f   PsWindowsAtomic.obj
 0001:0000c1a0       ?atomicIncrement@ps@cloth@nv@@YAHPECH@Z 000000018000d1a0 f   PsWindowsAtomic.obj
 0001:0000c1c0       ?atomicDecrement@ps@cloth@nv@@YAHPECH@Z 000000018000d1c0 f   PsWindowsAtomic.obj
 0001:0000c1e0       ?atomicAdd@ps@cloth@nv@@YAHPECHH@Z 000000018000d1e0 f   PsWindowsAtomic.obj
 0001:0000c240       ?atomicMax@ps@cloth@nv@@YAHPECHH@Z 000000018000d240 f   PsWindowsAtomic.obj
 0001:0000c300       ??0CuCloth@cloth@nv@@QEAA@AEAVCuFactory@12@AEAVCuFabric@12@U?$Range@$$CBVPxVec4@physx@@@12@@Z 000000018000d300 f   CuCloth.obj
 0001:0000caa0       ??0CuCloth@cloth@nv@@QEAA@AEAVCuFactory@12@AEBV012@@Z 000000018000daa0 f   CuCloth.obj
 0001:0000d0e0       ??1CuCloth@cloth@nv@@UEAA@XZ 000000018000e0e0 f   CuCloth.obj
 0001:0000d300       ?getNumParticles@CuCloth@cloth@nv@@UEBAIXZ 000000018000e300 f   CuCloth.obj
 0001:0000d320       ?lockParticles@CuCloth@cloth@nv@@UEBAXXZ 000000018000e320 f   CuCloth.obj
 0001:0000d350       ?unlockParticles@CuCloth@cloth@nv@@UEBAXXZ 000000018000e350 f   CuCloth.obj
 0001:0000d360       ?getCurrentParticles@CuCloth@cloth@nv@@UEAA?AU?$MappedRange@VPxVec4@physx@@@23@XZ 000000018000e360 f   CuCloth.obj
 0001:0000d3e0       ?getCurrentParticles@CuCloth@cloth@nv@@UEBA?AU?$MappedRange@$$CBVPxVec4@physx@@@23@XZ 000000018000e3e0 f   CuCloth.obj
 0001:0000d440       ?getPreviousParticles@CuCloth@cloth@nv@@UEAA?AU?$MappedRange@VPxVec4@physx@@@23@XZ 000000018000e440 f   CuCloth.obj
 0001:0000d4d0       ?getPreviousParticles@CuCloth@cloth@nv@@UEBA?AU?$MappedRange@$$CBVPxVec4@physx@@@23@XZ 000000018000e4d0 f   CuCloth.obj
 0001:0000d540       ?getGpuParticles@CuCloth@cloth@nv@@UEAA?AUGpuParticles@23@XZ 000000018000e540 f   CuCloth.obj
 0001:0000d630       ?setPhaseConfig@CuCloth@cloth@nv@@UEAAXU?$Range@$$CBUPhaseConfig@cloth@nv@@@23@@Z 000000018000e630 f   CuCloth.obj
 0001:0000d7a0       ?setSelfCollisionIndices@CuCloth@cloth@nv@@UEAAXU?$Range@$$CBI@23@@Z 000000018000e7a0 f   CuCloth.obj
 0001:0000d890       ?getNumVirtualParticles@CuCloth@cloth@nv@@UEBAIXZ 000000018000e890 f   CuCloth.obj
 0001:0000d8c0       ?getParticleAccelerations@CuCloth@cloth@nv@@UEAA?AU?$Range@VPxVec4@physx@@@23@XZ 000000018000e8c0 f   CuCloth.obj
 0001:0000da30       ?clearParticleAccelerations@CuCloth@cloth@nv@@UEAAXXZ 000000018000ea30 f   CuCloth.obj
 0001:0000db70       ?setVirtualParticles@CuCloth@cloth@nv@@UEAAXU?$Range@$$BY03$$CBI@23@U?$Range@$$CBVPxVec3@physx@@@23@@Z 000000018000eb70 f   CuCloth.obj
 0001:0000de80       ?notifyChanged@CuCloth@cloth@nv@@QEAAXXZ 000000018000ee80 f   CuCloth.obj
 0001:0000dea0       ?updateClothData@CuCloth@cloth@nv@@QEAA_NAEAUCuClothData@23@@Z 000000018000eea0 f   CuCloth.obj
 0001:0000e150       ?getSharedMemorySize@CuCloth@cloth@nv@@QEBAIXZ 000000018000f150 f   CuCloth.obj
 0001:0000e3d0       ?setPhaseConfigInternal@CuCloth@cloth@nv@@QEAAXU?$Range@$$CBUPhaseConfig@cloth@nv@@@23@@Z 000000018000f3d0 f   CuCloth.obj
 0001:0000e680       ?push@CuCloth@cloth@nv@@QEAA?AU?$Range@VPxVec4@physx@@@23@AEAUCuConstraints@23@@Z 000000018000f680 f   CuCloth.obj
 0001:0000e860       ?clear@CuCloth@cloth@nv@@QEAAXAEAUCuConstraints@23@@Z 000000018000f860 f   CuCloth.obj
 0001:0000e970       ?syncDeviceParticles@CuCloth@cloth@nv@@QEAAXXZ 000000018000f970 f   CuCloth.obj
 0001:0000ea70       ?syncHostParticles@CuCloth@cloth@nv@@QEAAXXZ 000000018000fa70 f   CuCloth.obj
 0001:0000eb70       ?clampTriangleCount@CuCloth@cloth@nv@@QEAA?AU?$Range@$$CBVPxVec3@physx@@@23@U423@I@Z 000000018000fb70 f   CuCloth.obj
 0001:0000f760       ??$?0I@?$CuDevicePointer@I@cloth@nv@@QEAA@PEAI@Z 0000000180010760 f i CuCloth.obj
 0001:0000f790       ??$?0I@?$Vec4T@G@cloth@nv@@QEAA@AEBU?$Vec4T@I@12@@Z 0000000180010790 f i CuCloth.obj
 0001:0000f800       ??$?0M@?$CuDevicePointer@M@cloth@nv@@QEAA@PEAM@Z 0000000180010800 f i CuCloth.obj
 0001:0000f830       ??$?0U?$Vec4T@G@cloth@nv@@@?$CuDevicePointer@U?$Vec4T@G@cloth@nv@@@cloth@nv@@QEAA@PEAU?$Vec4T@G@12@@Z 0000000180010830 f i CuCloth.obj
 0001:0000f860       ??$?0UCuPhaseConfig@cloth@nv@@@?$CuDevicePointer@UCuPhaseConfig@cloth@nv@@@cloth@nv@@QEAA@PEAUCuPhaseConfig@12@@Z 0000000180010860 f i CuCloth.obj
 0001:0000f890       ??$?0VPxVec4@physx@@@?$CuDevicePointer@VPxVec4@physx@@@cloth@nv@@QEAA@PEAVPxVec4@physx@@@Z 0000000180010890 f i CuCloth.obj
 0001:0000f8c0       ??$?4VNonTrackingAllocator@ps@cloth@nv@@@?$CuDeviceVector@I@cloth@nv@@QEAAAEAV012@AEBV?$Array@IVNonTrackingAllocator@ps@cloth@nv@@@ps@12@@Z 00000001800108c0 f i CuCloth.obj
 0001:0000f960       ??$?4VNonTrackingAllocator@ps@cloth@nv@@@?$CuDeviceVector@U?$Vec4T@G@cloth@nv@@@cloth@nv@@QEAAAEAV012@AEBV?$Array@U?$Vec4T@G@cloth@nv@@VNonTrackingAllocator@ps@23@@ps@12@@Z 0000000180010960 f i CuCloth.obj
 0001:0000fa00       ??$?4VNonTrackingAllocator@ps@cloth@nv@@@?$CuDeviceVector@VPxVec4@physx@@@cloth@nv@@QEAAAEAV012@AEBV?$Array@VPxVec4@physx@@VNonTrackingAllocator@ps@cloth@nv@@@ps@12@@Z 0000000180010a00 f i CuCloth.obj
 0001:0000faa0       ??$?8I@?$CuDevicePointer@I@cloth@nv@@QEBA_NAEBV012@@Z 0000000180010aa0 f i CuCloth.obj
 0001:0000faf0       ??$?8M@?$CuDevicePointer@M@cloth@nv@@QEBA_NAEBV012@@Z 0000000180010af0 f i CuCloth.obj
 0001:0000fb40       ??$?8VPxVec4@physx@@@?$CuDevicePointer@VPxVec4@physx@@@cloth@nv@@QEBA_NAEBV012@@Z 0000000180010b40 f i CuCloth.obj
 0001:0000fb90       ??$PX_UNUSED@W4PxIDENTITY@physx@@@@YAXAEBW4PxIDENTITY@physx@@@Z 0000000180010b90 f i CuCloth.obj
 0001:0000fba0       ??$PX_UNUSED@W4PxZERO@physx@@@@YAXAEBW4PxZERO@physx@@@Z 0000000180010ba0 f i CuCloth.obj
 0001:0000fbb0       ??$PxMax@M@physx@@YAMMM@Z  0000000180010bb0 f i CuCloth.obj
 0001:0000fbf0       ??$PxMin@M@physx@@YAMMM@Z  0000000180010bf0 f i CuCloth.obj
 0001:0000fc30       ??$assign@PEAUCuPhaseConfig@cloth@nv@@@?$CuDeviceVector@UCuPhaseConfig@cloth@nv@@@cloth@nv@@QEAAXPEAUCuPhaseConfig@12@0@Z 0000000180010c30 f i CuCloth.obj
 0001:0000fcf0       ??$assign@PEBI@?$CuDeviceVector@I@cloth@nv@@QEAAXPEBI0@Z 0000000180010cf0 f i CuCloth.obj
 0001:0000fdb0       ??$assign@PEBU?$Vec4T@G@cloth@nv@@@?$CuDeviceVector@U?$Vec4T@G@cloth@nv@@@cloth@nv@@QEAAXPEBU?$Vec4T@G@12@0@Z 0000000180010db0 f i CuCloth.obj
 0001:0000fe70       ??$assign@PEBVPxVec4@physx@@@?$CuDeviceVector@VPxVec4@physx@@@cloth@nv@@QEAAXPEBVPxVec4@physx@@0@Z 0000000180010e70 f i CuCloth.obj
 0001:0000ff30       ??$copy@V?$CuHostAllocator@UIndexPair@cloth@nv@@$01@cloth@nv@@@?$Array@UIndexPair@cloth@nv@@V?$CuHostAllocator@UIndexPair@cloth@nv@@$01@23@@ps@cloth@nv@@IEAAXAEBV0123@@Z 0000000180010f30 f i CuCloth.obj
 0001:00010020       ??$copy@V?$CuHostAllocator@VPxVec3@physx@@$01@cloth@nv@@@?$Array@VPxVec3@physx@@V?$CuHostAllocator@VPxVec3@physx@@$01@cloth@nv@@@ps@cloth@nv@@IEAAXAEBV0123@@Z 0000000180011020 f i CuCloth.obj
 0001:00010110       ??$copy@V?$CuHostAllocator@VPxVec4@physx@@$01@cloth@nv@@@?$Array@VPxVec4@physx@@V?$CuHostAllocator@VPxVec4@physx@@$01@cloth@nv@@@ps@cloth@nv@@IEAAXAEBV0123@@Z 0000000180011110 f i CuCloth.obj
 0001:00010200       ??$copy@VCuCloth@cloth@nv@@V123@@cloth@nv@@YAXAEAVCuCloth@01@AEBV201@@Z 0000000180011200 f i CuCloth.obj
 0001:000106b0       ??$copy@VNonTrackingAllocator@ps@cloth@nv@@@?$Array@UPhaseConfig@cloth@nv@@VNonTrackingAllocator@ps@23@@ps@cloth@nv@@IEAAXAEBV0123@@Z 00000001800116b0 f i CuCloth.obj
 0001:000107a0       ??$getMappedParticles@$$CBVPxVec4@physx@@@?$ClothImpl@VCuCloth@cloth@nv@@@cloth@nv@@QEBA?AU?$MappedRange@$$CBVPxVec4@physx@@@12@PEBVPxVec4@physx@@@Z 00000001800117a0 f i CuCloth.obj
 0001:000108b0       ??$getMappedParticles@VPxVec4@physx@@@?$ClothImpl@VCuCloth@cloth@nv@@@cloth@nv@@QEBA?AU?$MappedRange@VPxVec4@physx@@@12@PEAVPxVec4@physx@@@Z 00000001800118b0 f i CuCloth.obj
 0001:000109c0       ??$initialize@VCuCloth@cloth@nv@@@cloth@nv@@YAXAEAVCuCloth@01@PEBVPxVec4@physx@@1@Z 00000001800119c0 f i CuCloth.obj
 0001:00011060       ??$max@H@std@@YAAEBHAEBH0@Z 0000000180012060 f i CuCloth.obj
 0001:000110c0       ??$max@I@std@@YAAEBIAEBI0@Z 00000001800120c0 f i CuCloth.obj
 0001:00011120       ??$max@_K@std@@YAAEB_KAEB_K0@Z 0000000180012120 f i CuCloth.obj
 0001:00011180       ??$min@H@std@@YAAEBHAEBH0@Z 0000000180012180 f i CuCloth.obj
 0001:000111e0       ??$min@I@std@@YAAEBIAEBI0@Z 00000001800121e0 f i CuCloth.obj
 0001:00011240       ??$min@M@std@@YAAEBMAEBM0@Z 0000000180012240 f i CuCloth.obj
 0001:000112a0       ??$min@PEBVPxVec3@physx@@@std@@YAAEBQEBVPxVec3@physx@@AEBQEBV12@0@Z 00000001800122a0 f i CuCloth.obj
 0001:00011300       ??$min@PEBVPxVec4@physx@@@std@@YAAEBQEBVPxVec4@physx@@AEBQEBV12@0@Z 0000000180012300 f i CuCloth.obj
 0001:00011360       ??$move@AEAV?$CuDevicePointer@VPxVec4@physx@@@cloth@nv@@@std@@YA$$QEAV?$CuDevicePointer@VPxVec4@physx@@@cloth@nv@@AEAV123@@Z 0000000180012360 f i CuCloth.obj
 0001:00011370       ??$move@PEAI@cloth@nv@@YAXPEAIIII@Z 0000000180012370 f i CuCloth.obj
 0001:00011450       ??$move@PEAUIndexPair@cloth@nv@@@cloth@nv@@YAXPEAUIndexPair@01@III@Z 0000000180012450 f i CuCloth.obj
 0001:00011530       ??$move@PEAVPxVec3@physx@@@cloth@nv@@YAXPEAVPxVec3@physx@@III@Z 0000000180012530 f i CuCloth.obj
 0001:00011660       ??$move@PEAVPxVec4@physx@@@cloth@nv@@YAXPEAVPxVec4@physx@@III@Z 0000000180012660 f i CuCloth.obj
 0001:00011790       ??$swap@I@ps@cloth@nv@@YAXAEAI0@Z 0000000180012790 f i CuCloth.obj
 0001:000117e0       ??$swap@PEAVPxVec4@physx@@@ps@cloth@nv@@YAXAEAPEAVPxVec4@physx@@0@Z 00000001800127e0 f i CuCloth.obj
 0001:00011830       ??$swap@V?$CuDevicePointer@VPxVec4@physx@@@cloth@nv@@$0A@@std@@YAXAEAV?$CuDevicePointer@VPxVec4@physx@@@cloth@nv@@0@Z 0000000180012830 f i CuCloth.obj
 0001:000118d0       ??$swap@VPxVec4@physx@@$01@ps@cloth@nv@@YAXAEAV?$CuHostVectorImpl@VPxVec4@physx@@$01@12@0@Z 00000001800128d0 f i CuCloth.obj
 0001:00011900       ??$swap@_K@ps@cloth@nv@@YAXAEA_K0@Z 0000000180012900 f i CuCloth.obj
 0001:00011950       ??0?$Array@IV?$CuHostAllocator@I$01@cloth@nv@@@ps@cloth@nv@@QEAA@AEBV?$CuHostAllocator@I$01@23@@Z 0000000180012950 f i CuCloth.obj
 0001:000119b0       ??0?$Array@IVNonTrackingAllocator@ps@cloth@nv@@@ps@cloth@nv@@QEAA@AEBVNonTrackingAllocator@123@@Z 00000001800129b0 f i CuCloth.obj
 0001:00011a00       ??0?$Array@U?$Vec4T@G@cloth@nv@@VNonTrackingAllocator@ps@23@@ps@cloth@nv@@QEAA@AEBVNonTrackingAllocator@123@@Z 0000000180012a00 f i CuCloth.obj
 0001:00011a50       ??0?$Array@UCuPhaseConfig@cloth@nv@@VNonTrackingAllocator@ps@23@@ps@cloth@nv@@QEAA@AEBVNonTrackingAllocator@123@@Z 0000000180012a50 f i CuCloth.obj
 0001:00011aa0       ??0?$Array@UIndexPair@cloth@nv@@V?$CuHostAllocator@UIndexPair@cloth@nv@@$01@23@@ps@cloth@nv@@QEAA@AEBV0123@AEBV?$CuHostAllocator@UIndexPair@cloth@nv@@$01@23@@Z 0000000180012aa0 f i CuCloth.obj
 0001:00011b00       ??0?$Array@UIndexPair@cloth@nv@@V?$CuHostAllocator@UIndexPair@cloth@nv@@$01@23@@ps@cloth@nv@@QEAA@AEBV?$CuHostAllocator@UIndexPair@cloth@nv@@$01@23@@Z 0000000180012b00 f i CuCloth.obj
 0001:00011b60       ??0?$Array@UPhaseConfig@cloth@nv@@VNonTrackingAllocator@ps@23@@ps@cloth@nv@@QEAA@AEBV0123@AEBVNonTrackingAllocator@123@@Z 0000000180012b60 f i CuCloth.obj
 0001:00011ba0       ??0?$Array@UPhaseConfig@cloth@nv@@VNonTrackingAllocator@ps@23@@ps@cloth@nv@@QEAA@AEBVNonTrackingAllocator@123@@Z 0000000180012ba0 f i CuCloth.obj
 0001:00011bf0       ??0?$Array@VPxVec3@physx@@V?$CuHostAllocator@VPxVec3@physx@@$01@cloth@nv@@@ps@cloth@nv@@QEAA@AEBV0123@AEBV?$CuHostAllocator@VPxVec3@physx@@$01@23@@Z 0000000180012bf0 f i CuCloth.obj
 0001:00011c50       ??0?$Array@VPxVec3@physx@@V?$CuHostAllocator@VPxVec3@physx@@$01@cloth@nv@@@ps@cloth@nv@@QEAA@AEBV?$CuHostAllocator@VPxVec3@physx@@$01@23@@Z 0000000180012c50 f i CuCloth.obj
 0001:00011cb0       ??0?$Array@VPxVec4@physx@@V?$CuHostAllocator@VPxVec4@physx@@$01@cloth@nv@@@ps@cloth@nv@@QEAA@AEBV0123@AEBV?$CuHostAllocator@VPxVec4@physx@@$01@23@@Z 0000000180012cb0 f i CuCloth.obj
 0001:00011d10       ??0?$Array@VPxVec4@physx@@V?$CuHostAllocator@VPxVec4@physx@@$01@cloth@nv@@@ps@cloth@nv@@QEAA@AEBV?$CuHostAllocator@VPxVec4@physx@@$01@23@@Z 0000000180012d10 f i CuCloth.obj
 0001:00011d70       ??0?$Array@VPxVec4@physx@@VNonTrackingAllocator@ps@cloth@nv@@@ps@cloth@nv@@QEAA@AEBVNonTrackingAllocator@123@@Z 0000000180012d70 f i CuCloth.obj
 0001:00011dc0       ??0?$ClothImpl@VCuCloth@cloth@nv@@@cloth@nv@@QEAA@XZ 0000000180012dc0 f i CuCloth.obj
 0001:00011f50       ??0?$CuDevicePointer@I@cloth@nv@@QEAA@XZ 0000000180012f50 f i CuCloth.obj
 0001:00011f70       ??0?$CuDevicePointer@M@cloth@nv@@QEAA@AEBV012@@Z 0000000180012f70 f i CuCloth.obj
 0001:00011fb0       ??0?$CuDevicePointer@M@cloth@nv@@QEAA@XZ 0000000180012fb0 f i CuCloth.obj
 0001:00011fd0       ??0?$CuDevicePointer@U?$Vec4T@G@cloth@nv@@@cloth@nv@@QEAA@XZ 0000000180012fd0 f i CuCloth.obj
 0001:00011ff0       ??0?$CuDevicePointer@UCuPhaseConfig@cloth@nv@@@cloth@nv@@QEAA@XZ 0000000180012ff0 f i CuCloth.obj
 0001:00012010       ??0?$CuDevicePointer@VPxVec4@physx@@@cloth@nv@@QEAA@AEBV012@@Z 0000000180013010 f i CuCloth.obj
 0001:00012050       ??0?$CuDevicePointer@VPxVec4@physx@@@cloth@nv@@QEAA@XZ 0000000180013050 f i CuCloth.obj
 0001:00012070       ??0?$CuDeviceVector@I@cloth@nv@@QEAA@AEBV012@@Z 0000000180013070 f i CuCloth.obj
 0001:00012160       ??0?$CuDeviceVector@I@cloth@nv@@QEAA@PEAUCUctx_st@@@Z 0000000180013160 f i CuCloth.obj
 0001:00012240       ??0?$CuDeviceVector@M@cloth@nv@@QEAA@PEAUCUctx_st@@@Z 0000000180013240 f i CuCloth.obj
 0001:00012320       ??0?$CuDeviceVector@U?$Vec4T@G@cloth@nv@@@cloth@nv@@QEAA@AEBV012@@Z 0000000180013320 f i CuCloth.obj
 0001:00012410       ??0?$CuDeviceVector@U?$Vec4T@G@cloth@nv@@@cloth@nv@@QEAA@PEAUCUctx_st@@@Z 0000000180013410 f i CuCloth.obj
 0001:000124f0       ??0?$CuDeviceVector@UCuPhaseConfig@cloth@nv@@@cloth@nv@@QEAA@AEBV012@@Z 00000001800134f0 f i CuCloth.obj
 0001:000125e0       ??0?$CuDeviceVector@UCuPhaseConfig@cloth@nv@@@cloth@nv@@QEAA@PEAUCUctx_st@@@Z 00000001800135e0 f i CuCloth.obj
 0001:000126c0       ??0?$CuDeviceVector@VPxVec4@physx@@@cloth@nv@@QEAA@AEBV012@@Z 00000001800136c0 f i CuCloth.obj
 0001:000127b0       ??0?$CuDeviceVector@VPxVec4@physx@@@cloth@nv@@QEAA@PEAUCUctx_st@@@Z 00000001800137b0 f i CuCloth.obj
 0001:00012890       ??0?$CuHostAllocator@I$01@cloth@nv@@QEAA@PEAUCUctx_st@@@Z 0000000180013890 f i CuCloth.obj
 0001:000128d0       ??0?$CuHostAllocator@UIndexPair@cloth@nv@@$01@cloth@nv@@QEAA@PEAUCUctx_st@@@Z 00000001800138d0 f i CuCloth.obj
 0001:00012910       ??0?$CuHostAllocator@VPxVec3@physx@@$01@cloth@nv@@QEAA@PEAUCUctx_st@@@Z 0000000180013910 f i CuCloth.obj
 0001:00012950       ??0?$CuHostAllocator@VPxVec4@physx@@$01@cloth@nv@@QEAA@PEAUCUctx_st@@@Z 0000000180013950 f i CuCloth.obj
 0001:00012990       ??0?$CuHostVectorImpl@I$01@cloth@nv@@QEAA@AEBV?$CuHostAllocator@I$01@12@@Z 0000000180013990 f i CuCloth.obj
 0001:000129d0       ??0?$CuHostVectorImpl@UIndexPair@cloth@nv@@$01@cloth@nv@@QEAA@AEBV012@AEBV?$CuHostAllocator@UIndexPair@cloth@nv@@$01@12@@Z 00000001800139d0 f i CuCloth.obj
 0001:00012a20       ??0?$CuHostVectorImpl@UIndexPair@cloth@nv@@$01@cloth@nv@@QEAA@AEBV?$CuHostAllocator@UIndexPair@cloth@nv@@$01@12@@Z 0000000180013a20 f i CuCloth.obj
 0001:00012a60       ??0?$CuHostVectorImpl@VPxVec3@physx@@$01@cloth@nv@@QEAA@AEBV012@AEBV?$CuHostAllocator@VPxVec3@physx@@$01@12@@Z 0000000180013a60 f i CuCloth.obj
 0001:00012ab0       ??0?$CuHostVectorImpl@VPxVec3@physx@@$01@cloth@nv@@QEAA@AEBV?$CuHostAllocator@VPxVec3@physx@@$01@12@@Z 0000000180013ab0 f i CuCloth.obj
 0001:00012af0       ??0?$CuHostVectorImpl@VPxVec4@physx@@$01@cloth@nv@@QEAA@AEBV012@AEBV?$CuHostAllocator@VPxVec4@physx@@$01@12@@Z 0000000180013af0 f i CuCloth.obj
 0001:00012b40       ??0?$CuHostVectorImpl@VPxVec4@physx@@$01@cloth@nv@@QEAA@AEBV?$CuHostAllocator@VPxVec4@physx@@$01@12@@Z 0000000180013b40 f i CuCloth.obj
 0001:00012b80       ??0?$MappedRange@$$CBVPxVec4@physx@@@cloth@nv@@QEAA@PEBVPxVec4@physx@@0AEBVCloth@12@P8512@EBAXXZ2@Z 0000000180013b80 f i CuCloth.obj
 0001:00012c10       ??0?$MappedRange@VPxVec4@physx@@@cloth@nv@@QEAA@PEAVPxVec4@physx@@0AEBVCloth@12@P8512@EBAXXZ2@Z 0000000180013c10 f i CuCloth.obj
 0001:00012ca0       ??0?$Range@$$CBUPhaseConfig@cloth@nv@@@cloth@nv@@QEAA@PEBUPhaseConfig@12@0@Z 0000000180013ca0 f i CuCloth.obj
 0001:00012ce0       ??0?$Range@$$CBVPxVec3@physx@@@cloth@nv@@QEAA@PEBVPxVec3@physx@@0@Z 0000000180013ce0 f i CuCloth.obj
 0001:00012d20       ??0?$Range@$$CBVPxVec4@physx@@@cloth@nv@@QEAA@PEBVPxVec4@physx@@0@Z 0000000180013d20 f i CuCloth.obj
 0001:00012d60       ??0?$Range@VPxVec4@physx@@@cloth@nv@@QEAA@PEAVPxVec4@physx@@0@Z 0000000180013d60 f i CuCloth.obj
 0001:00012da0       ??0Allocator@ps@cloth@nv@@QEAA@PEBD@Z 0000000180013da0 f i CuCloth.obj
 0001:00012dc0       ??0Cloth@cloth@nv@@IEAA@XZ 0000000180013dc0 f i CuCloth.obj
 0001:00012df0       ??0CuConstraints@cloth@nv@@QEAA@AEBU012@@Z 0000000180013df0 f i CuCloth.obj
 0001:00012e90       ??0CuConstraints@cloth@nv@@QEAA@PEAUCUctx_st@@@Z 0000000180013e90 f i CuCloth.obj
 0001:00012f20       ??0MovingAverage@cloth@nv@@QEAA@I@Z 0000000180013f20 f i CuCloth.obj
 0001:00012fe0       ??0NonTrackingAllocator@ps@cloth@nv@@QEAA@PEBD@Z 0000000180013fe0 f i CuCloth.obj
 0001:00013000       ??0PxQuat@physx@@QEAA@MMMM@Z 0000000180014000 f i CuCloth.obj
 0001:00013080       ??0PxQuat@physx@@QEAA@W4PxIDENTITY@1@@Z 0000000180014080 f i CuCloth.obj
 0001:00013100       ??0PxQuat@physx@@QEAA@XZ   0000000180014100 f i CuCloth.obj
 0001:00013110       ??0PxTransform@physx@@QEAA@W4PxIDENTITY@1@@Z 0000000180014110 f i CuCloth.obj
 0001:00013170       ??0PxTransform@physx@@QEAA@XZ 0000000180014170 f i CuCloth.obj
 0001:000131c0       ??0PxVec3@physx@@QEAA@AEBV01@@Z 00000001800141c0 f i CuCloth.obj
 0001:00013220       ??0PxVec3@physx@@QEAA@M@Z  0000000180014220 f i CuCloth.obj
 0001:00013280       ??0PxVec3@physx@@QEAA@MMM@Z 0000000180014280 f i CuCloth.obj
 0001:000132f0       ??0PxVec3@physx@@QEAA@W4PxZERO@1@@Z 00000001800142f0 f i CuCloth.obj
 0001:00013350       ??0PxVec3@physx@@QEAA@XZ   0000000180014350 f i CuCloth.obj
 0001:00013360       ??0PxVec4@physx@@QEAA@AEBV01@@Z 0000000180014360 f i CuCloth.obj
 0001:000133e0       ??0PxVec4@physx@@QEAA@M@Z  00000001800143e0 f i CuCloth.obj
 0001:00013450       ??0PxVec4@physx@@QEAA@MMMM@Z 0000000180014450 f i CuCloth.obj
 0001:000134d0       ??0PxVec4@physx@@QEAA@XZ   00000001800144d0 f i CuCloth.obj
 0001:000134e0       ??0Simd4fScalarFactory@cloth@nv@@QEAA@AEBM@Z 00000001800144e0 f i CuCloth.obj
 0001:00013510       ??0Simd4fTupleFactory@cloth@nv@@QEAA@IIII@Z 0000000180014510 f i CuCloth.obj
 0001:000135b0       ??0Simd4iScalarFactory@cloth@nv@@QEAA@AEBH@Z 00000001800145b0 f i CuCloth.obj
 0001:000135e0       ??1?$Array@IV?$CuHostAllocator@I$01@cloth@nv@@@ps@cloth@nv@@QEAA@XZ 00000001800145e0 f i CuCloth.obj
 0001:00013660       ??1?$Array@IVNonTrackingAllocator@ps@cloth@nv@@@ps@cloth@nv@@QEAA@XZ 0000000180014660 f i CuCloth.obj
 0001:000136e0       ??1?$Array@U?$Vec4T@G@cloth@nv@@VNonTrackingAllocator@ps@23@@ps@cloth@nv@@QEAA@XZ 00000001800146e0 f i CuCloth.obj
 0001:00013760       ??1?$Array@U?$Vec4T@I@cloth@nv@@VNonTrackingAllocator@ps@23@@ps@cloth@nv@@QEAA@XZ 0000000180014760 f i CuCloth.obj
 0001:000137e0       ??1?$Array@UCuPhaseConfig@cloth@nv@@VNonTrackingAllocator@ps@23@@ps@cloth@nv@@QEAA@XZ 00000001800147e0 f i CuCloth.obj
 0001:00013860       ??1?$Array@UIndexPair@cloth@nv@@V?$CuHostAllocator@UIndexPair@cloth@nv@@$01@23@@ps@cloth@nv@@QEAA@XZ 0000000180014860 f i CuCloth.obj
 0001:000138e0       ??1?$Array@UPhaseConfig@cloth@nv@@VNonTrackingAllocator@ps@23@@ps@cloth@nv@@QEAA@XZ 00000001800148e0 f i CuCloth.obj
 0001:00013960       ??1?$Array@VPxVec3@physx@@V?$CuHostAllocator@VPxVec3@physx@@$01@cloth@nv@@@ps@cloth@nv@@QEAA@XZ 0000000180014960 f i CuCloth.obj
 0001:000139e0       ??1?$Array@VPxVec4@physx@@V?$CuHostAllocator@VPxVec4@physx@@$01@cloth@nv@@@ps@cloth@nv@@QEAA@XZ 00000001800149e0 f i CuCloth.obj
 0001:00013a60       ??1?$Array@VPxVec4@physx@@VNonTrackingAllocator@ps@cloth@nv@@@ps@cloth@nv@@QEAA@XZ 0000000180014a60 f i CuCloth.obj
 0001:00013ae0       ??1?$ClothImpl@VCuCloth@cloth@nv@@@cloth@nv@@UEAA@XZ 0000000180014ae0 f i CuCloth.obj
 0001:00013b20       ??1?$CuDeviceVector@I@cloth@nv@@QEAA@XZ 0000000180014b20 f i CuCloth.obj
 0001:00013b70       ??1?$CuDeviceVector@M@cloth@nv@@QEAA@XZ 0000000180014b70 f i CuCloth.obj
 0001:00013bc0       ??1?$CuDeviceVector@U?$Vec4T@G@cloth@nv@@@cloth@nv@@QEAA@XZ 0000000180014bc0 f i CuCloth.obj
 0001:00013c10       ??1?$CuDeviceVector@UCuPhaseConfig@cloth@nv@@@cloth@nv@@QEAA@XZ 0000000180014c10 f i CuCloth.obj
 0001:00013c60       ??1?$CuDeviceVector@VPxVec4@physx@@@cloth@nv@@QEAA@XZ 0000000180014c60 f i CuCloth.obj
 0001:00013cb0       ??1?$CuHostVectorImpl@I$01@cloth@nv@@QEAA@XZ 0000000180014cb0 f i CuCloth.obj
 0001:00013ce0       ??1?$CuHostVectorImpl@UIndexPair@cloth@nv@@$01@cloth@nv@@QEAA@XZ 0000000180014ce0 f i CuCloth.obj
 0001:00013d10       ??1?$CuHostVectorImpl@VPxVec3@physx@@$01@cloth@nv@@QEAA@XZ 0000000180014d10 f i CuCloth.obj
 0001:00013d40       ??1?$CuHostVectorImpl@VPxVec4@physx@@$01@cloth@nv@@QEAA@XZ 0000000180014d40 f i CuCloth.obj
 0001:00013d70       ??1Cloth@cloth@nv@@UEAA@XZ 0000000180014d70 f i CuCloth.obj
 0001:00013d90       ??1CuConstraints@cloth@nv@@QEAA@XZ 0000000180014d90 f i CuCloth.obj
 0001:00013de0       ??1MovingAverage@cloth@nv@@QEAA@XZ 0000000180014de0 f i CuCloth.obj
 0001:00013e20       ??1TripletScheduler@cloth@nv@@QEAA@XZ 0000000180014e20 f i CuCloth.obj
 0001:00013e70       ??2@YAPEAX_KPEAX@Z         0000000180014e70 f i CuCloth.obj
 0001:00013e90       ??3UserAllocated@cloth@nv@@SAXPEAX@Z 0000000180014e90 f i CuCloth.obj
 0001:00013ed0       ??4?$CuDeviceVector@I@cloth@nv@@QEAAAEAV012@AEBV012@@Z 0000000180014ed0 f i CuCloth.obj
 0001:00013f90       ??4?$CuDeviceVector@U?$Vec4T@G@cloth@nv@@@cloth@nv@@QEAAAEAV012@AEBV012@@Z 0000000180014f90 f i CuCloth.obj
 0001:00014050       ??4?$CuDeviceVector@UCuPhaseConfig@cloth@nv@@@cloth@nv@@QEAAAEAV012@AEBV012@@Z 0000000180015050 f i CuCloth.obj
 0001:00014110       ??4?$CuDeviceVector@VPxVec4@physx@@@cloth@nv@@QEAAAEAV012@AEBV012@@Z 0000000180015110 f i CuCloth.obj
 0001:000141d0       ??4Allocator@ps@cloth@nv@@QEAAAEAV0123@$$QEAV0123@@Z 00000001800151d0 f i CuCloth.obj
 0001:000141f0       ??4Allocator@ps@cloth@nv@@QEAAAEAV0123@AEBV0123@@Z 00000001800151f0 f i CuCloth.obj
 0001:00014210       ??4MovingAverage@cloth@nv@@QEAAAEAU012@AEBU012@@Z 0000000180015210 f i CuCloth.obj
 0001:00014330       ??4PxQuat@physx@@QEAAAEAV01@AEBV01@@Z 0000000180015330 f i CuCloth.obj
 0001:000143b0       ??4PxTransform@physx@@QEAAAEAV01@$$QEAV01@@Z 00000001800153b0 f i CuCloth.obj
 0001:00014410       ??4PxTransform@physx@@QEAAAEAV01@AEBV01@@Z 0000000180015410 f i CuCloth.obj
 0001:00014470       ??4PxVec3@physx@@QEAAAEAV01@AEBV01@@Z 0000000180015470 f i CuCloth.obj
 0001:000144d0       ??4PxVec4@physx@@QEAAAEAV01@AEBV01@@Z 00000001800154d0 f i CuCloth.obj
 0001:00014550       ??4TripletSchedulerTestInterface@cloth@nv@@QEAAAEAU012@AEBU012@@Z 0000000180015550 f i CuCloth.obj
 0001:00014580       ??8PxVec3@physx@@QEBA_NAEBV01@@Z 0000000180015580 f i CuCloth.obj
 0001:00014600       ??A?$Array@IV?$CuHostAllocator@I$01@cloth@nv@@@ps@cloth@nv@@QEAAAEAII@Z 0000000180015600 f i CuCloth.obj
 0001:000146a0       ??A?$Array@IVNonTrackingAllocator@ps@cloth@nv@@@ps@cloth@nv@@QEAAAEAII@Z 00000001800156a0 f i CuCloth.obj
 0001:00014740       ??A?$Array@UIndexPair@cloth@nv@@V?$CuHostAllocator@UIndexPair@cloth@nv@@$01@23@@ps@cloth@nv@@QEAAAEAUIndexPair@23@I@Z 0000000180015740 f i CuCloth.obj
 0001:000147e0       ??A?$Array@V?$CuDevicePointer@$$CBG@cloth@nv@@VNonTrackingAllocator@ps@23@@ps@cloth@nv@@QEAAAEAV?$CuDevicePointer@$$CBG@23@I@Z 00000001800157e0 f i CuCloth.obj
 0001:00014880       ??A?$Array@V?$CuDevicePointer@$$CBM@cloth@nv@@VNonTrackingAllocator@ps@23@@ps@cloth@nv@@QEAAAEAV?$CuDevicePointer@$$CBM@23@I@Z 0000000180015880 f i CuCloth.obj
 0001:00014920       ??A?$Array@VPxVec3@physx@@V?$CuHostAllocator@VPxVec3@physx@@$01@cloth@nv@@@ps@cloth@nv@@QEAAAEAVPxVec3@physx@@I@Z 0000000180015920 f i CuCloth.obj
 0001:000149c0       ??A?$Array@VPxVec4@physx@@V?$CuHostAllocator@VPxVec4@physx@@$01@cloth@nv@@@ps@cloth@nv@@QEAAAEAVPxVec4@physx@@I@Z 00000001800159c0 f i CuCloth.obj
 0001:00014a60       ??A?$Range@$$CBI@cloth@nv@@QEBAAEBII@Z 0000000180015a60 f i CuCloth.obj
 0001:00014b10       ??A?$Range@$$CBVPxVec3@physx@@@cloth@nv@@QEBAAEBVPxVec3@physx@@I@Z 0000000180015b10 f i CuCloth.obj
 0001:00014bc0       ??A?$Range@$$CBVPxVec4@physx@@@cloth@nv@@QEBAAEBVPxVec4@physx@@I@Z 0000000180015bc0 f i CuCloth.obj
 0001:00014c70       ??DPxVec4@physx@@QEBA?AV01@M@Z 0000000180015c70 f i CuCloth.obj
 0001:00014d20       ??G?$CuDevicePointer@I@cloth@nv@@QEBA_JAEBV012@@Z 0000000180015d20 f i CuCloth.obj
 0001:00014d50       ??G?$CuDevicePointer@M@cloth@nv@@QEBA_JAEBV012@@Z 0000000180015d50 f i CuCloth.obj
 0001:00014d80       ??G?$CuDevicePointer@U?$Vec4T@G@cloth@nv@@@cloth@nv@@QEBA_JAEBV012@@Z 0000000180015d80 f i CuCloth.obj
 0001:00014db0       ??G?$CuDevicePointer@UCuPhaseConfig@cloth@nv@@@cloth@nv@@QEBA_JAEBV012@@Z 0000000180015db0 f i CuCloth.obj
 0001:00014df0       ??G?$CuDevicePointer@VPxVec4@physx@@@cloth@nv@@QEBA_JAEBV012@@Z 0000000180015df0 f i CuCloth.obj
 0001:00014e20       ??GPxQuat@physx@@QEBA?AV01@AEBV01@@Z 0000000180015e20 f i CuCloth.obj
 0001:00014ee0       ??GPxVec3@physx@@QEBA?AV01@AEBV01@@Z 0000000180015ee0 f i CuCloth.obj
 0001:00014f80       ??GPxVec4@physx@@QEBA?AV01@AEBV01@@Z 0000000180015f80 f i CuCloth.obj
 0001:00015040       ??GPxVec4@physx@@QEBA?AV01@XZ 0000000180016040 f i CuCloth.obj
 0001:000150e0       ??H?$CuDevicePointer@I@cloth@nv@@QEBA?AV012@AEB_J@Z 00000001800160e0 f i CuCloth.obj
 0001:00015130       ??H?$CuDevicePointer@M@cloth@nv@@QEBA?AV012@AEB_J@Z 0000000180016130 f i CuCloth.obj
 0001:00015180       ??H?$CuDevicePointer@U?$Vec4T@G@cloth@nv@@@cloth@nv@@QEBA?AV012@AEB_J@Z 0000000180016180 f i CuCloth.obj
 0001:000151d0       ??H?$CuDevicePointer@UCuPhaseConfig@cloth@nv@@@cloth@nv@@QEBA?AV012@AEB_J@Z 00000001800161d0 f i CuCloth.obj
 0001:00015220       ??H?$CuDevicePointer@VPxVec4@physx@@@cloth@nv@@QEBA?AV012@AEB_J@Z 0000000180016220 f i CuCloth.obj
 0001:00015270       ??HPxVec4@physx@@QEBA?AV01@AEBV01@@Z 0000000180016270 f i CuCloth.obj
 0001:00015330       ??Y?$CuDevicePointer@VPxVec4@physx@@@cloth@nv@@QEAAAEAV012@_J@Z 0000000180016330 f i CuCloth.obj
 0001:00015370       ??YPxVec3@physx@@QEAAAEAV01@AEBV01@@Z 0000000180016370 f i CuCloth.obj
 0001:000153f4       ??_9Cloth@cloth@nv@@$BCI@AA 00000001800163f4 f i CuCloth.obj
 0001:000153fc       ??_9Cloth@cloth@nv@@$BDA@AA 00000001800163fc f i CuCloth.obj
 0001:00015410       ??_FAllocator@ps@cloth@nv@@QEAAXXZ 0000000180016410 f i CuCloth.obj
 0001:00015440       ??_E?$ClothImpl@VCuCloth@cloth@nv@@@cloth@nv@@UEAAPEAXI@Z 0000000180016440 f i CuCloth.obj
 0001:00015440       ??_G?$ClothImpl@VCuCloth@cloth@nv@@@cloth@nv@@UEAAPEAXI@Z 0000000180016440 f i CuCloth.obj
 0001:000154b0       ??_ECloth@cloth@nv@@UEAAPEAXI@Z 00000001800164b0 f i CuCloth.obj
 0001:000154b0       ??_GCloth@cloth@nv@@UEAAPEAXI@Z 00000001800164b0 f i CuCloth.obj
 0001:00015520       ??_ECuCloth@cloth@nv@@UEAAPEAXI@Z 0000000180016520 f i CuCloth.obj
 0001:00015520       ??_GCuCloth@cloth@nv@@UEAAPEAXI@Z 0000000180016520 f i CuCloth.obj
 0001:00015590       ?__empty_global_delete@@YAXPEAX@Z 0000000180016590 f i CuCloth.obj
 0001:000155a0       ?__empty_global_delete@@YAXPEAX_K@Z 00000001800165a0 f i CuCloth.obj
 0001:000155b0       ?allocate@?$Array@IV?$CuHostAllocator@I$01@cloth@nv@@@ps@cloth@nv@@IEAAPEAII@Z 00000001800165b0 f i CuCloth.obj
 0001:00015660       ?allocate@?$Array@IVNonTrackingAllocator@ps@cloth@nv@@@ps@cloth@nv@@IEAAPEAII@Z 0000000180016660 f i CuCloth.obj
 0001:00015710       ?allocate@?$Array@U?$Vec4T@G@cloth@nv@@VNonTrackingAllocator@ps@23@@ps@cloth@nv@@IEAAPEAU?$Vec4T@G@34@I@Z 0000000180016710 f i CuCloth.obj
 0001:000157c0       ?allocate@?$Array@UCuPhaseConfig@cloth@nv@@VNonTrackingAllocator@ps@23@@ps@cloth@nv@@IEAAPEAUCuPhaseConfig@34@I@Z 00000001800167c0 f i CuCloth.obj
 0001:00015870       ?allocate@?$Array@UIndexPair@cloth@nv@@V?$CuHostAllocator@UIndexPair@cloth@nv@@$01@23@@ps@cloth@nv@@IEAAPEAUIndexPair@34@I@Z 0000000180016870 f i CuCloth.obj
 0001:00015920       ?allocate@?$Array@UPhaseConfig@cloth@nv@@VNonTrackingAllocator@ps@23@@ps@cloth@nv@@IEAAPEAUPhaseConfig@34@I@Z 0000000180016920 f i CuCloth.obj
 0001:000159d0       ?allocate@?$Array@VPxVec3@physx@@V?$CuHostAllocator@VPxVec3@physx@@$01@cloth@nv@@@ps@cloth@nv@@IEAAPEAVPxVec3@physx@@I@Z 00000001800169d0 f i CuCloth.obj
 0001:00015a80       ?allocate@?$Array@VPxVec4@physx@@V?$CuHostAllocator@VPxVec4@physx@@$01@cloth@nv@@@ps@cloth@nv@@IEAAPEAVPxVec4@physx@@I@Z 0000000180016a80 f i CuCloth.obj
 0001:00015b30       ?allocate@?$Array@VPxVec4@physx@@VNonTrackingAllocator@ps@cloth@nv@@@ps@cloth@nv@@IEAAPEAVPxVec4@physx@@I@Z 0000000180016b30 f i CuCloth.obj
 0001:00015be0       ?allocate@?$CuHostAllocator@I$01@cloth@nv@@QEAAPEAI_KPEBDH@Z 0000000180016be0 f i CuCloth.obj
 0001:00015cd0       ?allocate@?$CuHostAllocator@UIndexPair@cloth@nv@@$01@cloth@nv@@QEAAPEAUIndexPair@23@_KPEBDH@Z 0000000180016cd0 f i CuCloth.obj
 0001:00015dc0       ?allocate@?$CuHostAllocator@VPxVec3@physx@@$01@cloth@nv@@QEAAPEAVPxVec3@physx@@_KPEBDH@Z 0000000180016dc0 f i CuCloth.obj
 0001:00015eb0       ?allocate@?$CuHostAllocator@VPxVec4@physx@@$01@cloth@nv@@QEAAPEAVPxVec4@physx@@_KPEBDH@Z 0000000180016eb0 f i CuCloth.obj
 0001:00015fa0       ?allocate@NonTrackingAllocator@ps@cloth@nv@@QEAAPEAX_KPEBDH@Z 0000000180016fa0 f i CuCloth.obj
 0001:00016030       ?array@cloth@nv@@YAAEAY03MAEAVPxVec4@physx@@@Z 0000000180017030 f i CuCloth.obj
 0001:00016040       ?assign@?$Array@IVNonTrackingAllocator@ps@cloth@nv@@@ps@cloth@nv@@QEAAXPEBI0@Z 0000000180017040 f i CuCloth.obj
 0001:000160d0       ?assign@?$Array@UPhaseConfig@cloth@nv@@VNonTrackingAllocator@ps@23@@ps@cloth@nv@@QEAAXPEBUPhaseConfig@34@0@Z 00000001800170d0 f i CuCloth.obj
 0001:00016160       ?assign@?$Array@VPxVec3@physx@@V?$CuHostAllocator@VPxVec3@physx@@$01@cloth@nv@@@ps@cloth@nv@@QEAAXPEBVPxVec3@physx@@0@Z 0000000180017160 f i CuCloth.obj
 0001:000161f0       ?assign@?$Array@VPxVec4@physx@@V?$CuHostAllocator@VPxVec4@physx@@$01@cloth@nv@@@ps@cloth@nv@@QEAAXPEBVPxVec4@physx@@0@Z 00000001800171f0 f i CuCloth.obj
 0001:00016280       ?begin@?$Array@IV?$CuHostAllocator@I$01@cloth@nv@@@ps@cloth@nv@@QEAAPEAIXZ 0000000180017280 f i CuCloth.obj
 0001:000162a0       ?begin@?$Array@IVNonTrackingAllocator@ps@cloth@nv@@@ps@cloth@nv@@QEAAPEAIXZ 00000001800172a0 f i CuCloth.obj
 0001:000162c0       ?begin@?$Array@U?$Vec4T@I@cloth@nv@@VNonTrackingAllocator@ps@23@@ps@cloth@nv@@QEAAPEAU?$Vec4T@I@34@XZ 00000001800172c0 f i CuCloth.obj
 0001:000162e0       ?begin@?$Array@UCuPhaseConfig@cloth@nv@@VNonTrackingAllocator@ps@23@@ps@cloth@nv@@QEAAPEAUCuPhaseConfig@34@XZ 00000001800172e0 f i CuCloth.obj
 0001:00016300       ?begin@?$Array@UIndexPair@cloth@nv@@V?$CuHostAllocator@UIndexPair@cloth@nv@@$01@23@@ps@cloth@nv@@QEAAPEAUIndexPair@34@XZ 0000000180017300 f i CuCloth.obj
 0001:00016320       ?begin@?$Array@UIndexPair@cloth@nv@@V?$CuHostAllocator@UIndexPair@cloth@nv@@$01@23@@ps@cloth@nv@@QEBAPEBUIndexPair@34@XZ 0000000180017320 f i CuCloth.obj
 0001:00016340       ?begin@?$Array@UPhaseConfig@cloth@nv@@VNonTrackingAllocator@ps@23@@ps@cloth@nv@@QEAAPEAUPhaseConfig@34@XZ 0000000180017340 f i CuCloth.obj
 0001:00016360       ?begin@?$Array@UPhaseConfig@cloth@nv@@VNonTrackingAllocator@ps@23@@ps@cloth@nv@@QEBAPEBUPhaseConfig@34@XZ 0000000180017360 f i CuCloth.obj
 0001:00016380       ?begin@?$Array@VPxVec3@physx@@V?$CuHostAllocator@VPxVec3@physx@@$01@cloth@nv@@@ps@cloth@nv@@QEAAPEAVPxVec3@physx@@XZ 0000000180017380 f i CuCloth.obj
 0001:000163a0       ?begin@?$Array@VPxVec3@physx@@V?$CuHostAllocator@VPxVec3@physx@@$01@cloth@nv@@@ps@cloth@nv@@QEBAPEBVPxVec3@physx@@XZ 00000001800173a0 f i CuCloth.obj
 0001:000163c0       ?begin@?$Array@VPxVec4@physx@@V?$CuHostAllocator@VPxVec4@physx@@$01@cloth@nv@@@ps@cloth@nv@@QEAAPEAVPxVec4@physx@@XZ 00000001800173c0 f i CuCloth.obj
 0001:000163e0       ?begin@?$Array@VPxVec4@physx@@V?$CuHostAllocator@VPxVec4@physx@@$01@cloth@nv@@@ps@cloth@nv@@QEBAPEBVPxVec4@physx@@XZ 00000001800173e0 f i CuCloth.obj
 0001:00016400       ?begin@?$CuDeviceVector@M@cloth@nv@@QEAA?AV?$CuDevicePointer@M@23@XZ 0000000180017400 f i CuCloth.obj
 0001:00016440       ?begin@?$CuDeviceVector@VPxVec4@physx@@@cloth@nv@@QEAA?AV?$CuDevicePointer@VPxVec4@physx@@@23@XZ 0000000180017440 f i CuCloth.obj
 0001:00016480       ?begin@?$Range@$$CBI@cloth@nv@@QEBAPEBIXZ 0000000180017480 f i CuCloth.obj
 0001:000164a0       ?begin@?$Range@$$CBUPhaseConfig@cloth@nv@@@cloth@nv@@QEBAPEBUPhaseConfig@23@XZ 00000001800174a0 f i CuCloth.obj
 0001:000164c0       ?begin@?$Range@$$CBVPxVec3@physx@@@cloth@nv@@QEBAPEBVPxVec3@physx@@XZ 00000001800174c0 f i CuCloth.obj
 0001:000164e0       ?begin@?$Range@$$CBVPxVec4@physx@@@cloth@nv@@QEBAPEBVPxVec4@physx@@XZ 00000001800174e0 f i CuCloth.obj
 0001:00016500       ?capacity@?$Array@IV?$CuHostAllocator@I$01@cloth@nv@@@ps@cloth@nv@@QEBAIXZ 0000000180017500 f i CuCloth.obj
 0001:00016520       ?capacity@?$Array@IVNonTrackingAllocator@ps@cloth@nv@@@ps@cloth@nv@@QEBAIXZ 0000000180017520 f i CuCloth.obj
 0001:00016540       ?capacity@?$Array@U?$Vec4T@G@cloth@nv@@VNonTrackingAllocator@ps@23@@ps@cloth@nv@@QEBAIXZ 0000000180017540 f i CuCloth.obj
 0001:00016560       ?capacity@?$Array@U?$Vec4T@I@cloth@nv@@VNonTrackingAllocator@ps@23@@ps@cloth@nv@@QEBAIXZ 0000000180017560 f i CuCloth.obj
 0001:00016580       ?capacity@?$Array@UCuPhaseConfig@cloth@nv@@VNonTrackingAllocator@ps@23@@ps@cloth@nv@@QEBAIXZ 0000000180017580 f i CuCloth.obj
 0001:000165a0       ?capacity@?$Array@UIndexPair@cloth@nv@@V?$CuHostAllocator@UIndexPair@cloth@nv@@$01@23@@ps@cloth@nv@@QEBAIXZ 00000001800175a0 f i CuCloth.obj
 0001:000165c0       ?capacity@?$Array@UPhaseConfig@cloth@nv@@VNonTrackingAllocator@ps@23@@ps@cloth@nv@@QEBAIXZ 00000001800175c0 f i CuCloth.obj
 0001:000165e0       ?capacity@?$Array@VPxVec3@physx@@V?$CuHostAllocator@VPxVec3@physx@@$01@cloth@nv@@@ps@cloth@nv@@QEBAIXZ 00000001800175e0 f i CuCloth.obj
 0001:00016600       ?capacity@?$Array@VPxVec4@physx@@V?$CuHostAllocator@VPxVec4@physx@@$01@cloth@nv@@@ps@cloth@nv@@QEBAIXZ 0000000180017600 f i CuCloth.obj
 0001:00016620       ?capacity@?$Array@VPxVec4@physx@@VNonTrackingAllocator@ps@cloth@nv@@@ps@cloth@nv@@QEBAIXZ 0000000180017620 f i CuCloth.obj
 0001:00016640       ?capacity@?$CuDeviceVector@I@cloth@nv@@QEBA_KXZ 0000000180017640 f i CuCloth.obj
 0001:00016680       ?capacity@?$CuDeviceVector@M@cloth@nv@@QEBA_KXZ 0000000180017680 f i CuCloth.obj
 0001:000166c0       ?capacity@?$CuDeviceVector@U?$Vec4T@G@cloth@nv@@@cloth@nv@@QEBA_KXZ 00000001800176c0 f i CuCloth.obj
 0001:00016700       ?capacity@?$CuDeviceVector@UCuPhaseConfig@cloth@nv@@@cloth@nv@@QEBA_KXZ 0000000180017700 f i CuCloth.obj
 0001:00016740       ?capacity@?$CuDeviceVector@VPxVec4@physx@@@cloth@nv@@QEBA_KXZ 0000000180017740 f i CuCloth.obj
 0001:00016780       ?capacityIncrement@?$Array@U?$Vec4T@G@cloth@nv@@VNonTrackingAllocator@ps@23@@ps@cloth@nv@@IEBAIXZ 0000000180017780 f i CuCloth.obj
 0001:000167d0       ?capacityIncrement@?$Array@UCuPhaseConfig@cloth@nv@@VNonTrackingAllocator@ps@23@@ps@cloth@nv@@IEBAIXZ 00000001800177d0 f i CuCloth.obj
 0001:00016820       ?capacityIncrement@?$Array@UPhaseConfig@cloth@nv@@VNonTrackingAllocator@ps@23@@ps@cloth@nv@@IEBAIXZ 0000000180017820 f i CuCloth.obj
 0001:00016870       ?capacityIncrement@?$Array@VPxVec3@physx@@V?$CuHostAllocator@VPxVec3@physx@@$01@cloth@nv@@@ps@cloth@nv@@IEBAIXZ 0000000180017870 f i CuCloth.obj
 0001:000168c0       ?capacityIncrement@?$Array@VPxVec4@physx@@V?$CuHostAllocator@VPxVec4@physx@@$01@cloth@nv@@@ps@cloth@nv@@IEBAIXZ 00000001800178c0 f i CuCloth.obj
 0001:00016910       ?capacityIncrement@?$Array@VPxVec4@physx@@VNonTrackingAllocator@ps@cloth@nv@@@ps@cloth@nv@@IEBAIXZ 0000000180017910 f i CuCloth.obj
 0001:00016960       ?clearInertia@?$ClothImpl@VCuCloth@cloth@nv@@@cloth@nv@@UEAAXXZ 0000000180017960 f i CuCloth.obj
 0001:00016a10       ?clearInterpolation@?$ClothImpl@VCuCloth@cloth@nv@@@cloth@nv@@UEAAXXZ 0000000180017a10 f i CuCloth.obj
 0001:00016b90       ?clearMotionConstraints@?$ClothImpl@VCuCloth@cloth@nv@@@cloth@nv@@UEAAXXZ 0000000180017b90 f i CuCloth.obj
 0001:00016c00       ?clearSeparationConstraints@?$ClothImpl@VCuCloth@cloth@nv@@@cloth@nv@@UEAAXXZ 0000000180017c00 f i CuCloth.obj
 0001:00016c70       ?copy@?$Array@IV?$CuHostAllocator@I$01@cloth@nv@@@ps@cloth@nv@@KAXPEAI0PEBI@Z 0000000180017c70 f i CuCloth.obj
 0001:00016d10       ?copy@?$Array@IVNonTrackingAllocator@ps@cloth@nv@@@ps@cloth@nv@@KAXPEAI0PEBI@Z 0000000180017d10 f i CuCloth.obj
 0001:00016db0       ?copy@?$Array@U?$Vec4T@G@cloth@nv@@VNonTrackingAllocator@ps@23@@ps@cloth@nv@@KAXPEAU?$Vec4T@G@34@0PEBU534@@Z 0000000180017db0 f i CuCloth.obj
 0001:00016e50       ?copy@?$Array@UCuPhaseConfig@cloth@nv@@VNonTrackingAllocator@ps@23@@ps@cloth@nv@@KAXPEAUCuPhaseConfig@34@0PEBU534@@Z 0000000180017e50 f i CuCloth.obj
 0001:00016ef0       ?copy@?$Array@UIndexPair@cloth@nv@@V?$CuHostAllocator@UIndexPair@cloth@nv@@$01@23@@ps@cloth@nv@@KAXPEAUIndexPair@34@0PEBU534@@Z 0000000180017ef0 f i CuCloth.obj
 0001:00016f90       ?copy@?$Array@UPhaseConfig@cloth@nv@@VNonTrackingAllocator@ps@23@@ps@cloth@nv@@KAXPEAUPhaseConfig@34@0PEBU534@@Z 0000000180017f90 f i CuCloth.obj
 0001:00017030       ?copy@?$Array@VPxVec3@physx@@V?$CuHostAllocator@VPxVec3@physx@@$01@cloth@nv@@@ps@cloth@nv@@KAXPEAVPxVec3@physx@@0PEBV56@@Z 0000000180018030 f i CuCloth.obj
 0001:000170d0       ?copy@?$Array@VPxVec4@physx@@V?$CuHostAllocator@VPxVec4@physx@@$01@cloth@nv@@@ps@cloth@nv@@KAXPEAVPxVec4@physx@@0PEBV56@@Z 00000001800180d0 f i CuCloth.obj
 0001:00017170       ?copy@?$Array@VPxVec4@physx@@VNonTrackingAllocator@ps@cloth@nv@@@ps@cloth@nv@@KAXPEAVPxVec4@physx@@0PEBV56@@Z 0000000180018170 f i CuCloth.obj
 0001:00017210       ?create@?$Array@IV?$CuHostAllocator@I$01@cloth@nv@@@ps@cloth@nv@@KAXPEAI0AEBI@Z 0000000180018210 f i CuCloth.obj
 0001:00017280       ?create@?$Array@UIndexPair@cloth@nv@@V?$CuHostAllocator@UIndexPair@cloth@nv@@$01@23@@ps@cloth@nv@@KAXPEAUIndexPair@34@0AEBU534@@Z 0000000180018280 f i CuCloth.obj
 0001:00017300       ?create@?$Array@VPxVec3@physx@@V?$CuHostAllocator@VPxVec3@physx@@$01@cloth@nv@@@ps@cloth@nv@@KAXPEAVPxVec3@physx@@0AEBV56@@Z 0000000180018300 f i CuCloth.obj
 0001:00017380       ?create@?$Array@VPxVec4@physx@@V?$CuHostAllocator@VPxVec4@physx@@$01@cloth@nv@@@ps@cloth@nv@@KAXPEAVPxVec4@physx@@0AEBV56@@Z 0000000180018380 f i CuCloth.obj
 0001:00017400       ?deallocate@?$Array@IV?$CuHostAllocator@I$01@cloth@nv@@@ps@cloth@nv@@IEAAXPEAX@Z 0000000180018400 f i CuCloth.obj
 0001:00017430       ?deallocate@?$Array@IVNonTrackingAllocator@ps@cloth@nv@@@ps@cloth@nv@@IEAAXPEAX@Z 0000000180018430 f i CuCloth.obj
 0001:00017460       ?deallocate@?$Array@U?$Vec4T@G@cloth@nv@@VNonTrackingAllocator@ps@23@@ps@cloth@nv@@IEAAXPEAX@Z 0000000180018460 f i CuCloth.obj
 0001:00017490       ?deallocate@?$Array@U?$Vec4T@I@cloth@nv@@VNonTrackingAllocator@ps@23@@ps@cloth@nv@@IEAAXPEAX@Z 0000000180018490 f i CuCloth.obj
 0001:000174c0       ?deallocate@?$Array@UCuPhaseConfig@cloth@nv@@VNonTrackingAllocator@ps@23@@ps@cloth@nv@@IEAAXPEAX@Z 00000001800184c0 f i CuCloth.obj
 0001:000174f0       ?deallocate@?$Array@UIndexPair@cloth@nv@@V?$CuHostAllocator@UIndexPair@cloth@nv@@$01@23@@ps@cloth@nv@@IEAAXPEAX@Z 00000001800184f0 f i CuCloth.obj
 0001:00017520       ?deallocate@?$Array@UPhaseConfig@cloth@nv@@VNonTrackingAllocator@ps@23@@ps@cloth@nv@@IEAAXPEAX@Z 0000000180018520 f i CuCloth.obj
 0001:00017550       ?deallocate@?$Array@VPxVec3@physx@@V?$CuHostAllocator@VPxVec3@physx@@$01@cloth@nv@@@ps@cloth@nv@@IEAAXPEAX@Z 0000000180018550 f i CuCloth.obj
 0001:00017580       ?deallocate@?$Array@VPxVec4@physx@@V?$CuHostAllocator@VPxVec4@physx@@$01@cloth@nv@@@ps@cloth@nv@@IEAAXPEAX@Z 0000000180018580 f i CuCloth.obj
 0001:000175b0       ?deallocate@?$Array@VPxVec4@physx@@VNonTrackingAllocator@ps@cloth@nv@@@ps@cloth@nv@@IEAAXPEAX@Z 00000001800185b0 f i CuCloth.obj
 0001:000175e0       ?deallocate@?$CuHostAllocator@I$01@cloth@nv@@QEAAXPEAX@Z 00000001800185e0 f i CuCloth.obj
 0001:00017630       ?deallocate@?$CuHostAllocator@UIndexPair@cloth@nv@@$01@cloth@nv@@QEAAXPEAX@Z 0000000180018630 f i CuCloth.obj
 0001:00017680       ?deallocate@?$CuHostAllocator@VPxVec3@physx@@$01@cloth@nv@@QEAAXPEAX@Z 0000000180018680 f i CuCloth.obj
 0001:000176d0       ?deallocate@?$CuHostAllocator@VPxVec4@physx@@$01@cloth@nv@@QEAAXPEAX@Z 00000001800186d0 f i CuCloth.obj
 0001:00017720       ?deallocate@NonTrackingAllocator@ps@cloth@nv@@QEAAXPEAX@Z 0000000180018720 f i CuCloth.obj
 0001:00017770       ?decRefCount@Fabric@cloth@nv@@QEAA_NXZ 0000000180018770 f i CuCloth.obj
 0001:00017860       ?destroy@?$Array@IV?$CuHostAllocator@I$01@cloth@nv@@@ps@cloth@nv@@KAXPEAI0@Z 0000000180018860 f i CuCloth.obj
 0001:000178a0       ?destroy@?$Array@IVNonTrackingAllocator@ps@cloth@nv@@@ps@cloth@nv@@KAXPEAI0@Z 00000001800188a0 f i CuCloth.obj
 0001:000178e0       ?destroy@?$Array@U?$Vec4T@G@cloth@nv@@VNonTrackingAllocator@ps@23@@ps@cloth@nv@@KAXPEAU?$Vec4T@G@34@0@Z 00000001800188e0 f i CuCloth.obj
 0001:00017920       ?destroy@?$Array@U?$Vec4T@I@cloth@nv@@VNonTrackingAllocator@ps@23@@ps@cloth@nv@@KAXPEAU?$Vec4T@I@34@0@Z 0000000180018920 f i CuCloth.obj
 0001:00017960       ?destroy@?$Array@UCuPhaseConfig@cloth@nv@@VNonTrackingAllocator@ps@23@@ps@cloth@nv@@KAXPEAUCuPhaseConfig@34@0@Z 0000000180018960 f i CuCloth.obj
 0001:000179a0       ?destroy@?$Array@UIndexPair@cloth@nv@@V?$CuHostAllocator@UIndexPair@cloth@nv@@$01@23@@ps@cloth@nv@@KAXPEAUIndexPair@34@0@Z 00000001800189a0 f i CuCloth.obj
 0001:000179e0       ?destroy@?$Array@UPhaseConfig@cloth@nv@@VNonTrackingAllocator@ps@23@@ps@cloth@nv@@KAXPEAUPhaseConfig@34@0@Z 00000001800189e0 f i CuCloth.obj
 0001:00017a20       ?destroy@?$Array@VPxVec3@physx@@V?$CuHostAllocator@VPxVec3@physx@@$01@cloth@nv@@@ps@cloth@nv@@KAXPEAVPxVec3@physx@@0@Z 0000000180018a20 f i CuCloth.obj
 0001:00017a60       ?destroy@?$Array@VPxVec4@physx@@V?$CuHostAllocator@VPxVec4@physx@@$01@cloth@nv@@@ps@cloth@nv@@KAXPEAVPxVec4@physx@@0@Z 0000000180018a60 f i CuCloth.obj
 0001:00017aa0       ?destroy@?$Array@VPxVec4@physx@@VNonTrackingAllocator@ps@cloth@nv@@@ps@cloth@nv@@KAXPEAVPxVec4@physx@@0@Z 0000000180018aa0 f i CuCloth.obj
 0001:00017ae0       ?dev@?$CuDevicePointer@I@cloth@nv@@QEBA_KXZ 0000000180018ae0 f i CuCloth.obj
 0001:00017b00       ?dev@?$CuDevicePointer@M@cloth@nv@@QEBA_KXZ 0000000180018b00 f i CuCloth.obj
 0001:00017b20       ?dev@?$CuDevicePointer@U?$Vec4T@G@cloth@nv@@@cloth@nv@@QEBA_KXZ 0000000180018b20 f i CuCloth.obj
 0001:00017b40       ?dev@?$CuDevicePointer@UCuPhaseConfig@cloth@nv@@@cloth@nv@@QEBA_KXZ 0000000180018b40 f i CuCloth.obj
 0001:00017b60       ?dev@?$CuDevicePointer@VPxVec4@physx@@@cloth@nv@@QEBA_KXZ 0000000180018b60 f i CuCloth.obj
 0001:00017b80       ?empty@?$Array@IVNonTrackingAllocator@ps@cloth@nv@@@ps@cloth@nv@@QEBA_NXZ 0000000180018b80 f i CuCloth.obj
 0001:00017bc0       ?empty@?$Array@U?$Vec4T@G@cloth@nv@@VNonTrackingAllocator@ps@23@@ps@cloth@nv@@QEBA_NXZ 0000000180018bc0 f i CuCloth.obj
 0001:00017c00       ?empty@?$Array@UIndexPair@cloth@nv@@V?$CuHostAllocator@UIndexPair@cloth@nv@@$01@23@@ps@cloth@nv@@QEBA_NXZ 0000000180018c00 f i CuCloth.obj
 0001:00017c40       ?empty@?$Array@UPhaseConfig@cloth@nv@@VNonTrackingAllocator@ps@23@@ps@cloth@nv@@QEBA_NXZ 0000000180018c40 f i CuCloth.obj
 0001:00017c80       ?empty@?$Array@VPxVec3@physx@@V?$CuHostAllocator@VPxVec3@physx@@$01@cloth@nv@@@ps@cloth@nv@@QEBA_NXZ 0000000180018c80 f i CuCloth.obj
 0001:00017cc0       ?empty@?$Array@VPxVec4@physx@@V?$CuHostAllocator@VPxVec4@physx@@$01@cloth@nv@@@ps@cloth@nv@@QEBA_NXZ 0000000180018cc0 f i CuCloth.obj
 0001:00017d00       ?empty@?$Array@VPxVec4@physx@@VNonTrackingAllocator@ps@cloth@nv@@@ps@cloth@nv@@QEBA_NXZ 0000000180018d00 f i CuCloth.obj
 0001:00017d40       ?empty@?$CuDeviceVector@I@cloth@nv@@QEBA_NXZ 0000000180018d40 f i CuCloth.obj
 0001:00017d80       ?empty@?$CuDeviceVector@M@cloth@nv@@QEBA_NXZ 0000000180018d80 f i CuCloth.obj
 0001:00017dc0       ?empty@?$CuDeviceVector@VPxVec4@physx@@@cloth@nv@@QEBA_NXZ 0000000180018dc0 f i CuCloth.obj
 0001:00017e00       ?empty@?$Range@$$CBUPhaseConfig@cloth@nv@@@cloth@nv@@QEBA_NXZ 0000000180018e00 f i CuCloth.obj
 0001:00017e50       ?empty@?$Range@$$CBVPxVec3@physx@@@cloth@nv@@QEBA_NXZ 0000000180018e50 f i CuCloth.obj
 0001:00017ea0       ?empty@?$Range@$$CBVPxVec4@physx@@@cloth@nv@@QEBA_NXZ 0000000180018ea0 f i CuCloth.obj
 0001:00017ef0       ?enableContinuousCollision@?$ClothImpl@VCuCloth@cloth@nv@@@cloth@nv@@UEAAX_N@Z 0000000180018ef0 f i CuCloth.obj
 0001:00017f80       ?end@?$Array@IV?$CuHostAllocator@I$01@cloth@nv@@@ps@cloth@nv@@QEAAPEAIXZ 0000000180018f80 f i CuCloth.obj
 0001:00017fb0       ?end@?$Array@IVNonTrackingAllocator@ps@cloth@nv@@@ps@cloth@nv@@QEAAPEAIXZ 0000000180018fb0 f i CuCloth.obj
 0001:00017fe0       ?end@?$Array@U?$Vec4T@I@cloth@nv@@VNonTrackingAllocator@ps@23@@ps@cloth@nv@@QEAAPEAU?$Vec4T@I@34@XZ 0000000180018fe0 f i CuCloth.obj
 0001:00018010       ?end@?$Array@UCuPhaseConfig@cloth@nv@@VNonTrackingAllocator@ps@23@@ps@cloth@nv@@QEAAPEAUCuPhaseConfig@34@XZ 0000000180019010 f i CuCloth.obj
 0001:00018040       ?end@?$Array@UIndexPair@cloth@nv@@V?$CuHostAllocator@UIndexPair@cloth@nv@@$01@23@@ps@cloth@nv@@QEAAPEAUIndexPair@34@XZ 0000000180019040 f i CuCloth.obj
 0001:00018070       ?end@?$Array@UPhaseConfig@cloth@nv@@VNonTrackingAllocator@ps@23@@ps@cloth@nv@@QEAAPEAUPhaseConfig@34@XZ 0000000180019070 f i CuCloth.obj
 0001:000180a0       ?end@?$Array@VPxVec3@physx@@V?$CuHostAllocator@VPxVec3@physx@@$01@cloth@nv@@@ps@cloth@nv@@QEAAPEAVPxVec3@physx@@XZ 00000001800190a0 f i CuCloth.obj
 0001:000180d0       ?end@?$Array@VPxVec4@physx@@V?$CuHostAllocator@VPxVec4@physx@@$01@cloth@nv@@@ps@cloth@nv@@QEAAPEAVPxVec4@physx@@XZ 00000001800190d0 f i CuCloth.obj
 0001:00018100       ?end@?$Range@$$CBI@cloth@nv@@QEBAPEBIXZ 0000000180019100 f i CuCloth.obj
 0001:00018120       ?end@?$Range@$$CBUPhaseConfig@cloth@nv@@@cloth@nv@@QEBAPEBUPhaseConfig@23@XZ 0000000180019120 f i CuCloth.obj
 0001:00018140       ?end@?$Range@$$CBVPxVec3@physx@@@cloth@nv@@QEBAPEBVPxVec3@physx@@XZ 0000000180019140 f i CuCloth.obj
 0001:00018160       ?end@?$Range@$$CBVPxVec4@physx@@@cloth@nv@@QEBAPEBVPxVec4@physx@@XZ 0000000180019160 f i CuCloth.obj
 0001:00018180       ?exp2@ps@cloth@nv@@YAMM@Z  0000000180019180 f i CuCloth.obj
 0001:000181b0       ?front@?$Array@IVNonTrackingAllocator@ps@cloth@nv@@@ps@cloth@nv@@QEBAAEBIXZ 00000001800191b0 f i CuCloth.obj
 0001:00018240       ?front@?$Array@U?$Vec4T@G@cloth@nv@@VNonTrackingAllocator@ps@23@@ps@cloth@nv@@QEBAAEBU?$Vec4T@G@34@XZ 0000000180019240 f i CuCloth.obj
 0001:000182d0       ?front@?$Array@VPxVec4@physx@@V?$CuHostAllocator@VPxVec4@physx@@$01@cloth@nv@@@ps@cloth@nv@@QEAAAEAVPxVec4@physx@@XZ 00000001800192d0 f i CuCloth.obj
 0001:00018370       ?front@?$Array@VPxVec4@physx@@VNonTrackingAllocator@ps@cloth@nv@@@ps@cloth@nv@@QEBAAEBVPxVec4@physx@@XZ 0000000180019370 f i CuCloth.obj
 0001:00018400       ?front@?$Range@$$CBUPhaseConfig@cloth@nv@@@cloth@nv@@QEBAAEBUPhaseConfig@23@XZ 0000000180019400 f i CuCloth.obj
 0001:00018490       ?front@?$Range@$$CBVPxVec3@physx@@@cloth@nv@@QEBAAEBVPxVec3@physx@@XZ 0000000180019490 f i CuCloth.obj
 0001:00018520       ?get@?$CuDevicePointer@$$CBG@cloth@nv@@QEBAPEBGXZ 0000000180019520 f i CuCloth.obj
 0001:00018540       ?get@?$CuDevicePointer@$$CBM@cloth@nv@@QEBAPEBMXZ 0000000180019540 f i CuCloth.obj
 0001:00018560       ?get@?$CuDevicePointer@M@cloth@nv@@QEBAPEAMXZ 0000000180019560 f i CuCloth.obj
 0001:00018580       ?get@?$CuDevicePointer@VPxVec4@physx@@@cloth@nv@@QEBAPEAVPxVec4@physx@@XZ 0000000180019580 f i CuCloth.obj
 0001:000185a0       ?getAccelerationFilterWidth@?$ClothImpl@VCuCloth@cloth@nv@@@cloth@nv@@UEBAIXZ 00000001800195a0 f i CuCloth.obj
 0001:000185d0       ?getAngularDrag@?$ClothImpl@VCuCloth@cloth@nv@@@cloth@nv@@UEBA?AVPxVec3@physx@@XZ 00000001800195d0 f i CuCloth.obj
 0001:00018650       ?getAngularInertia@?$ClothImpl@VCuCloth@cloth@nv@@@cloth@nv@@UEBA?AVPxVec3@physx@@XZ 0000000180019650 f i CuCloth.obj
 0001:00018690       ?getBoundingBoxCenter@?$ClothImpl@VCuCloth@cloth@nv@@@cloth@nv@@UEBAAEBVPxVec3@physx@@XZ 0000000180019690 f i CuCloth.obj
 0001:000186c0       ?getBoundingBoxScale@?$ClothImpl@VCuCloth@cloth@nv@@@cloth@nv@@UEBAAEBVPxVec3@physx@@XZ 00000001800196c0 f i CuCloth.obj
 0001:000186f0       ?getCentrifugalInertia@?$ClothImpl@VCuCloth@cloth@nv@@@cloth@nv@@UEBA?AVPxVec3@physx@@XZ 00000001800196f0 f i CuCloth.obj
 0001:00018730       ?getChildCloth@?$ClothImpl@VCuCloth@cloth@nv@@@cloth@nv@@QEAAPEAVCuCloth@23@XZ 0000000180019730 f i CuCloth.obj
 0001:00018740       ?getChildCloth@?$ClothImpl@VCuCloth@cloth@nv@@@cloth@nv@@QEBAPEBVCuCloth@23@XZ 0000000180019740 f i CuCloth.obj
 0001:00018750       ?getCollisionMassScale@?$ClothImpl@VCuCloth@cloth@nv@@@cloth@nv@@UEBAMXZ 0000000180019750 f i CuCloth.obj
 0001:00018780       ?getDamping@?$ClothImpl@VCuCloth@cloth@nv@@@cloth@nv@@UEBA?AVPxVec3@physx@@XZ 0000000180019780 f i CuCloth.obj
 0001:00018800       ?getDragCoefficient@?$ClothImpl@VCuCloth@cloth@nv@@@cloth@nv@@UEBAMXZ 0000000180019800 f i CuCloth.obj
 0001:00018840       ?getFabric@?$ClothImpl@VCuCloth@cloth@nv@@@cloth@nv@@UEBAAEAVFabric@23@XZ 0000000180019840 f i CuCloth.obj
 0001:00018870       ?getFactory@?$ClothImpl@VCuCloth@cloth@nv@@@cloth@nv@@UEBAAEAVFactory@23@XZ 0000000180019870 f i CuCloth.obj
 0001:000188a0       ?getFluidDensity@?$ClothImpl@VCuCloth@cloth@nv@@@cloth@nv@@UEBAMXZ 00000001800198a0 f i CuCloth.obj
 0001:000188d0       ?getFriction@?$ClothImpl@VCuCloth@cloth@nv@@@cloth@nv@@UEBAMXZ 00000001800198d0 f i CuCloth.obj
 0001:00018900       ?getGravity@?$ClothImpl@VCuCloth@cloth@nv@@@cloth@nv@@UEBA?AVPxVec3@physx@@XZ 0000000180019900 f i CuCloth.obj
 0001:00018940       ?getLiftCoefficient@?$ClothImpl@VCuCloth@cloth@nv@@@cloth@nv@@UEBAMXZ 0000000180019940 f i CuCloth.obj
 0001:00018980       ?getLinearDrag@?$ClothImpl@VCuCloth@cloth@nv@@@cloth@nv@@UEBA?AVPxVec3@physx@@XZ 0000000180019980 f i CuCloth.obj
 0001:00018a00       ?getLinearInertia@?$ClothImpl@VCuCloth@cloth@nv@@@cloth@nv@@UEBA?AVPxVec3@physx@@XZ 0000000180019a00 f i CuCloth.obj
 0001:00018a40       ?getMotionConstraintBias@?$ClothImpl@VCuCloth@cloth@nv@@@cloth@nv@@UEBAMXZ 0000000180019a40 f i CuCloth.obj
 0001:00018a70       ?getMotionConstraintScale@?$ClothImpl@VCuCloth@cloth@nv@@@cloth@nv@@UEBAMXZ 0000000180019a70 f i CuCloth.obj
 0001:00018aa0       ?getMotionConstraintStiffness@?$ClothImpl@VCuCloth@cloth@nv@@@cloth@nv@@UEBAMXZ 0000000180019aa0 f i CuCloth.obj
 0001:00018af0       ?getMotionConstraints@?$ClothImpl@VCuCloth@cloth@nv@@@cloth@nv@@UEAA?AU?$Range@VPxVec4@physx@@@23@XZ 0000000180019af0 f i CuCloth.obj
 0001:00018b70       ?getNumCapsules@?$ClothImpl@VCuCloth@cloth@nv@@@cloth@nv@@UEBAIXZ 0000000180019b70 f i CuCloth.obj
 0001:00018bb0       ?getNumConvexes@?$ClothImpl@VCuCloth@cloth@nv@@@cloth@nv@@UEBAIXZ 0000000180019bb0 f i CuCloth.obj
 0001:00018bf0       ?getNumMotionConstraints@?$ClothImpl@VCuCloth@cloth@nv@@@cloth@nv@@UEBAIXZ 0000000180019bf0 f i CuCloth.obj
 0001:00018c30       ?getNumParticleAccelerations@?$ClothImpl@VCuCloth@cloth@nv@@@cloth@nv@@UEBAIXZ 0000000180019c30 f i CuCloth.obj
 0001:00018c70       ?getNumPlanes@?$ClothImpl@VCuCloth@cloth@nv@@@cloth@nv@@UEBAIXZ 0000000180019c70 f i CuCloth.obj
 0001:00018cb0       ?getNumRestPositions@?$ClothImpl@VCuCloth@cloth@nv@@@cloth@nv@@UEBAIXZ 0000000180019cb0 f i CuCloth.obj
 0001:00018cf0       ?getNumSelfCollisionIndices@?$ClothImpl@VCuCloth@cloth@nv@@@cloth@nv@@UEBAIXZ 0000000180019cf0 f i CuCloth.obj
 0001:00018d30       ?getNumSeparationConstraints@?$ClothImpl@VCuCloth@cloth@nv@@@cloth@nv@@UEBAIXZ 0000000180019d30 f i CuCloth.obj
 0001:00018d70       ?getNumSpheres@?$ClothImpl@VCuCloth@cloth@nv@@@cloth@nv@@UEBAIXZ 0000000180019d70 f i CuCloth.obj
 0001:00018db0       ?getNumTriangles@?$ClothImpl@VCuCloth@cloth@nv@@@cloth@nv@@UEBAIXZ 0000000180019db0 f i CuCloth.obj
 0001:00018df0       ?getNumVirtualParticleWeights@?$ClothImpl@VCuCloth@cloth@nv@@@cloth@nv@@UEBAIXZ 0000000180019df0 f i CuCloth.obj
 0001:00018e30       ?getPreviousIterationDt@?$ClothImpl@VCuCloth@cloth@nv@@@cloth@nv@@UEBAMXZ 0000000180019e30 f i CuCloth.obj
 0001:00018e60       ?getRotation@?$ClothImpl@VCuCloth@cloth@nv@@@cloth@nv@@UEBAAEBVPxQuat@physx@@XZ 0000000180019e60 f i CuCloth.obj
 0001:00018e80       ?getSelfCollisionDistance@?$ClothImpl@VCuCloth@cloth@nv@@@cloth@nv@@UEBAMXZ 0000000180019e80 f i CuCloth.obj
 0001:00018eb0       ?getSelfCollisionStiffness@?$ClothImpl@VCuCloth@cloth@nv@@@cloth@nv@@UEBAMXZ 0000000180019eb0 f i CuCloth.obj
 0001:00018f00       ?getSeparationConstraints@?$ClothImpl@VCuCloth@cloth@nv@@@cloth@nv@@UEAA?AU?$Range@VPxVec4@physx@@@23@XZ 0000000180019f00 f i CuCloth.obj
 0001:00018f80       ?getSleepAfterCount@?$ClothImpl@VCuCloth@cloth@nv@@@cloth@nv@@UEBAIXZ 0000000180019f80 f i CuCloth.obj
 0001:00018fa0       ?getSleepPassCount@?$ClothImpl@VCuCloth@cloth@nv@@@cloth@nv@@UEBAIXZ 0000000180019fa0 f i CuCloth.obj
 0001:00018fc0       ?getSleepTestInterval@?$ClothImpl@VCuCloth@cloth@nv@@@cloth@nv@@UEBAIXZ 0000000180019fc0 f i CuCloth.obj
 0001:00018fe0       ?getSleepThreshold@?$ClothImpl@VCuCloth@cloth@nv@@@cloth@nv@@UEBAMXZ 0000000180019fe0 f i CuCloth.obj
 0001:00019010       ?getSolverFrequency@?$ClothImpl@VCuCloth@cloth@nv@@@cloth@nv@@UEBAMXZ 000000018001a010 f i CuCloth.obj
 0001:00019030       ?getStiffnessFrequency@?$ClothImpl@VCuCloth@cloth@nv@@@cloth@nv@@UEBAMXZ 000000018001a030 f i CuCloth.obj
 0001:00019050       ?getTetherConstraintScale@?$ClothImpl@VCuCloth@cloth@nv@@@cloth@nv@@UEBAMXZ 000000018001a050 f i CuCloth.obj
 0001:00019080       ?getTetherConstraintStiffness@?$ClothImpl@VCuCloth@cloth@nv@@@cloth@nv@@UEBAMXZ 000000018001a080 f i CuCloth.obj
 0001:000190d0       ?getTranslation@?$ClothImpl@VCuCloth@cloth@nv@@@cloth@nv@@UEBAAEBVPxVec3@physx@@XZ 000000018001a0d0 f i CuCloth.obj
 0001:000190f0       ?getUserData@?$ClothImpl@VCuCloth@cloth@nv@@@cloth@nv@@UEBAPEAXXZ 000000018001a0f0 f i CuCloth.obj
 0001:00019120       ?getWindVelocity@?$ClothImpl@VCuCloth@cloth@nv@@@cloth@nv@@UEBA?AVPxVec3@physx@@XZ 000000018001a120 f i CuCloth.obj
 0001:00019160       ?getXYZ@PxVec4@physx@@QEBA?AVPxVec3@2@XZ 000000018001a160 f i CuCloth.obj
 0001:000191c0       ?grow@?$Array@IV?$CuHostAllocator@I$01@cloth@nv@@@ps@cloth@nv@@IEAAXI@Z 000000018001a1c0 f i CuCloth.obj
 0001:00019260       ?grow@?$Array@IVNonTrackingAllocator@ps@cloth@nv@@@ps@cloth@nv@@IEAAXI@Z 000000018001a260 f i CuCloth.obj
 0001:00019300       ?grow@?$Array@U?$Vec4T@G@cloth@nv@@VNonTrackingAllocator@ps@23@@ps@cloth@nv@@IEAAXI@Z 000000018001a300 f i CuCloth.obj
 0001:000193a0       ?grow@?$Array@UCuPhaseConfig@cloth@nv@@VNonTrackingAllocator@ps@23@@ps@cloth@nv@@IEAAXI@Z 000000018001a3a0 f i CuCloth.obj
 0001:00019440       ?grow@?$Array@UIndexPair@cloth@nv@@V?$CuHostAllocator@UIndexPair@cloth@nv@@$01@23@@ps@cloth@nv@@IEAAXI@Z 000000018001a440 f i CuCloth.obj
 0001:000194e0       ?grow@?$Array@UPhaseConfig@cloth@nv@@VNonTrackingAllocator@ps@23@@ps@cloth@nv@@IEAAXI@Z 000000018001a4e0 f i CuCloth.obj
 0001:00019580       ?grow@?$Array@VPxVec3@physx@@V?$CuHostAllocator@VPxVec3@physx@@$01@cloth@nv@@@ps@cloth@nv@@IEAAXI@Z 000000018001a580 f i CuCloth.obj
 0001:00019620       ?grow@?$Array@VPxVec4@physx@@V?$CuHostAllocator@VPxVec4@physx@@$01@cloth@nv@@@ps@cloth@nv@@IEAAXI@Z 000000018001a620 f i CuCloth.obj
 0001:000196c0       ?grow@?$Array@VPxVec4@physx@@VNonTrackingAllocator@ps@cloth@nv@@@ps@cloth@nv@@IEAAXI@Z 000000018001a6c0 f i CuCloth.obj
 0001:00019760       ?growAndPushBack@?$Array@U?$Vec4T@G@cloth@nv@@VNonTrackingAllocator@ps@23@@ps@cloth@nv@@IEAAAEAU?$Vec4T@G@34@AEBU534@@Z 000000018001a760 f i CuCloth.obj
 0001:00019950       ?growAndPushBack@?$Array@UCuPhaseConfig@cloth@nv@@VNonTrackingAllocator@ps@23@@ps@cloth@nv@@IEAAAEAUCuPhaseConfig@34@AEBU534@@Z 000000018001a950 f i CuCloth.obj
 0001:00019b90       ?growAndPushBack@?$Array@UPhaseConfig@cloth@nv@@VNonTrackingAllocator@ps@23@@ps@cloth@nv@@IEAAAEAUPhaseConfig@34@AEBU534@@Z 000000018001ab90 f i CuCloth.obj
 0001:00019dd0       ?growAndPushBack@?$Array@VPxVec3@physx@@V?$CuHostAllocator@VPxVec3@physx@@$01@cloth@nv@@@ps@cloth@nv@@IEAAAEAVPxVec3@physx@@AEBV56@@Z 000000018001add0 f i CuCloth.obj
 0001:00019fd0       ?growAndPushBack@?$Array@VPxVec4@physx@@V?$CuHostAllocator@VPxVec4@physx@@$01@cloth@nv@@@ps@cloth@nv@@IEAAAEAVPxVec4@physx@@AEBV56@@Z 000000018001afd0 f i CuCloth.obj
 0001:0001a1d0       ?growAndPushBack@?$Array@VPxVec4@physx@@VNonTrackingAllocator@ps@cloth@nv@@@ps@cloth@nv@@IEAAAEAVPxVec4@physx@@AEBV56@@Z 000000018001b1d0 f i CuCloth.obj
 0001:0001a3d0       ?ignoreVelocityDiscontinuity@?$ClothImpl@VCuCloth@cloth@nv@@@cloth@nv@@UEAAXXZ 000000018001b3d0 f i CuCloth.obj
 0001:0001a3f0       ?incRefCount@Fabric@cloth@nv@@QEAAXXZ 000000018001b3f0 f i CuCloth.obj
 0001:0001a490       ?isAsleep@?$ClothImpl@VCuCloth@cloth@nv@@@cloth@nv@@UEBA_NXZ 000000018001b490 f i CuCloth.obj
 0001:0001a4c0       ?isContinuousCollisionEnabled@?$ClothImpl@VCuCloth@cloth@nv@@@cloth@nv@@UEBA_NXZ 000000018001b4c0 f i CuCloth.obj
 0001:0001a4f0       ?isInUserMemory@?$Array@IV?$CuHostAllocator@I$01@cloth@nv@@@ps@cloth@nv@@QEBAIXZ 000000018001b4f0 f i CuCloth.obj
 0001:0001a510       ?isInUserMemory@?$Array@IVNonTrackingAllocator@ps@cloth@nv@@@ps@cloth@nv@@QEBAIXZ 000000018001b510 f i CuCloth.obj
 0001:0001a530       ?isInUserMemory@?$Array@U?$Vec4T@G@cloth@nv@@VNonTrackingAllocator@ps@23@@ps@cloth@nv@@QEBAIXZ 000000018001b530 f i CuCloth.obj
 0001:0001a550       ?isInUserMemory@?$Array@U?$Vec4T@I@cloth@nv@@VNonTrackingAllocator@ps@23@@ps@cloth@nv@@QEBAIXZ 000000018001b550 f i CuCloth.obj
 0001:0001a570       ?isInUserMemory@?$Array@UCuPhaseConfig@cloth@nv@@VNonTrackingAllocator@ps@23@@ps@cloth@nv@@QEBAIXZ 000000018001b570 f i CuCloth.obj
 0001:0001a590       ?isInUserMemory@?$Array@UIndexPair@cloth@nv@@V?$CuHostAllocator@UIndexPair@cloth@nv@@$01@23@@ps@cloth@nv@@QEBAIXZ 000000018001b590 f i CuCloth.obj
 0001:0001a5b0       ?isInUserMemory@?$Array@UPhaseConfig@cloth@nv@@VNonTrackingAllocator@ps@23@@ps@cloth@nv@@QEBAIXZ 000000018001b5b0 f i CuCloth.obj
 0001:0001a5d0       ?isInUserMemory@?$Array@VPxVec3@physx@@V?$CuHostAllocator@VPxVec3@physx@@$01@cloth@nv@@@ps@cloth@nv@@QEBAIXZ 000000018001b5d0 f i CuCloth.obj
 0001:0001a5f0       ?isInUserMemory@?$Array@VPxVec4@physx@@V?$CuHostAllocator@VPxVec4@physx@@$01@cloth@nv@@@ps@cloth@nv@@QEBAIXZ 000000018001b5f0 f i CuCloth.obj
 0001:0001a610       ?isInUserMemory@?$Array@VPxVec4@physx@@VNonTrackingAllocator@ps@cloth@nv@@@ps@cloth@nv@@QEBAIXZ 000000018001b610 f i CuCloth.obj
 0001:0001a630       ?isSleeping@?$ClothImpl@VCuCloth@cloth@nv@@@cloth@nv@@UEBA_NXZ 000000018001b630 f i CuCloth.obj
 0001:0001a680       ?log2@ps@cloth@nv@@YAMM@Z  000000018001b680 f i CuCloth.obj
 0001:0001a6b0       ?magnitudeSquared@PxQuat@physx@@QEBAMXZ 000000018001b6b0 f i CuCloth.obj
 0001:0001a740       ?magnitudeSquared@PxVec3@physx@@QEBAMXZ 000000018001b740 f i CuCloth.obj
 0001:0001a7b0       ?maximum@PxVec4@physx@@QEBA?AV12@AEBV12@@Z 000000018001b7b0 f i CuCloth.obj
 0001:0001a8a0       ?minimum@PxVec4@physx@@QEBA?AV12@AEBV12@@Z 000000018001b8a0 f i CuCloth.obj
 0001:0001a990       ?pop@CuConstraints@cloth@nv@@QEAAXXZ 000000018001b990 f i CuCloth.obj
 0001:0001aa00       ?popFront@?$Range@$$CBUPhaseConfig@cloth@nv@@@cloth@nv@@QEAAXXZ 000000018001ba00 f i CuCloth.obj
 0001:0001aaa0       ?popFront@?$Range@$$CBVPxVec3@physx@@@cloth@nv@@QEAAXXZ 000000018001baa0 f i CuCloth.obj
 0001:0001ab40       ?pushBack@?$Array@U?$Vec4T@G@cloth@nv@@VNonTrackingAllocator@ps@23@@ps@cloth@nv@@QEAAAEAU?$Vec4T@G@34@AEBU534@@Z 000000018001bb40 f i CuCloth.obj
 0001:0001ac10       ?pushBack@?$Array@UCuPhaseConfig@cloth@nv@@VNonTrackingAllocator@ps@23@@ps@cloth@nv@@QEAAAEAUCuPhaseConfig@34@AEBU534@@Z 000000018001bc10 f i CuCloth.obj
 0001:0001ace0       ?pushBack@?$Array@UPhaseConfig@cloth@nv@@VNonTrackingAllocator@ps@23@@ps@cloth@nv@@QEAAAEAUPhaseConfig@34@AEBU534@@Z 000000018001bce0 f i CuCloth.obj
 0001:0001adb0       ?pushBack@?$Array@VPxVec3@physx@@V?$CuHostAllocator@VPxVec3@physx@@$01@cloth@nv@@@ps@cloth@nv@@QEAAAEAVPxVec3@physx@@AEBV56@@Z 000000018001bdb0 f i CuCloth.obj
 0001:0001ae80       ?pushBack@?$Array@VPxVec4@physx@@V?$CuHostAllocator@VPxVec4@physx@@$01@cloth@nv@@@ps@cloth@nv@@QEAAAEAVPxVec4@physx@@AEBV56@@Z 000000018001be80 f i CuCloth.obj
 0001:0001af50       ?pushBack@?$Array@VPxVec4@physx@@VNonTrackingAllocator@ps@cloth@nv@@@ps@cloth@nv@@QEAAAEAVPxVec4@physx@@AEBV56@@Z 000000018001bf50 f i CuCloth.obj
 0001:0001b020       ?push_back@?$CuDeviceVector@VPxVec4@physx@@@cloth@nv@@QEAAXPEBVPxVec4@physx@@0@Z 000000018001c020 f i CuCloth.obj
 0001:0001b1b0       ?putToSleep@?$ClothImpl@VCuCloth@cloth@nv@@@cloth@nv@@UEAAXXZ 000000018001c1b0 f i CuCloth.obj
 0001:0001b1e0       ?recreate@?$Array@IV?$CuHostAllocator@I$01@cloth@nv@@@ps@cloth@nv@@IEAAXI@Z 000000018001c1e0 f i CuCloth.obj
 0001:0001b340       ?recreate@?$Array@IVNonTrackingAllocator@ps@cloth@nv@@@ps@cloth@nv@@IEAAXI@Z 000000018001c340 f i CuCloth.obj
 0001:0001b4a0       ?recreate@?$Array@U?$Vec4T@G@cloth@nv@@VNonTrackingAllocator@ps@23@@ps@cloth@nv@@IEAAXI@Z 000000018001c4a0 f i CuCloth.obj
 0001:0001b600       ?recreate@?$Array@UCuPhaseConfig@cloth@nv@@VNonTrackingAllocator@ps@23@@ps@cloth@nv@@IEAAXI@Z 000000018001c600 f i CuCloth.obj
 0001:0001b760       ?recreate@?$Array@UIndexPair@cloth@nv@@V?$CuHostAllocator@UIndexPair@cloth@nv@@$01@23@@ps@cloth@nv@@IEAAXI@Z 000000018001c760 f i CuCloth.obj
 0001:0001b8c0       ?recreate@?$Array@UPhaseConfig@cloth@nv@@VNonTrackingAllocator@ps@23@@ps@cloth@nv@@IEAAXI@Z 000000018001c8c0 f i CuCloth.obj
 0001:0001ba20       ?recreate@?$Array@VPxVec3@physx@@V?$CuHostAllocator@VPxVec3@physx@@$01@cloth@nv@@@ps@cloth@nv@@IEAAXI@Z 000000018001ca20 f i CuCloth.obj
 0001:0001bb90       ?recreate@?$Array@VPxVec4@physx@@V?$CuHostAllocator@VPxVec4@physx@@$01@cloth@nv@@@ps@cloth@nv@@IEAAXI@Z 000000018001cb90 f i CuCloth.obj
 0001:0001bd00       ?recreate@?$Array@VPxVec4@physx@@VNonTrackingAllocator@ps@cloth@nv@@@ps@cloth@nv@@IEAAXI@Z 000000018001cd00 f i CuCloth.obj
 0001:0001be60       ?replaceWithLast@?$Array@IV?$CuHostAllocator@I$01@cloth@nv@@@ps@cloth@nv@@QEAAXI@Z 000000018001ce60 f i CuCloth.obj
 0001:0001bf30       ?replaceWithLast@?$Array@IV?$CuHostAllocator@I$01@cloth@nv@@@ps@cloth@nv@@QEAAXPEAI@Z 000000018001cf30 f i CuCloth.obj
 0001:0001bf80       ?replaceWithLast@?$Array@UIndexPair@cloth@nv@@V?$CuHostAllocator@UIndexPair@cloth@nv@@$01@23@@ps@cloth@nv@@QEAAXI@Z 000000018001cf80 f i CuCloth.obj
 0001:0001c050       ?replaceWithLast@?$Array@UIndexPair@cloth@nv@@V?$CuHostAllocator@UIndexPair@cloth@nv@@$01@23@@ps@cloth@nv@@QEAAXPEAUIndexPair@34@@Z 000000018001d050 f i CuCloth.obj
 0001:0001c0a0       ?reserve@?$Array@IV?$CuHostAllocator@I$01@cloth@nv@@@ps@cloth@nv@@QEAAXI@Z 000000018001d0a0 f i CuCloth.obj
 0001:0001c0e0       ?reserve@?$Array@IVNonTrackingAllocator@ps@cloth@nv@@@ps@cloth@nv@@QEAAXI@Z 000000018001d0e0 f i CuCloth.obj
 0001:0001c120       ?reserve@?$Array@U?$Vec4T@G@cloth@nv@@VNonTrackingAllocator@ps@23@@ps@cloth@nv@@QEAAXI@Z 000000018001d120 f i CuCloth.obj
 0001:0001c160       ?reserve@?$Array@UCuPhaseConfig@cloth@nv@@VNonTrackingAllocator@ps@23@@ps@cloth@nv@@QEAAXI@Z 000000018001d160 f i CuCloth.obj
 0001:0001c1a0       ?reserve@?$Array@UIndexPair@cloth@nv@@V?$CuHostAllocator@UIndexPair@cloth@nv@@$01@23@@ps@cloth@nv@@QEAAXI@Z 000000018001d1a0 f i CuCloth.obj
 0001:0001c1e0       ?reserve@?$Array@UPhaseConfig@cloth@nv@@VNonTrackingAllocator@ps@23@@ps@cloth@nv@@QEAAXI@Z 000000018001d1e0 f i CuCloth.obj
 0001:0001c220       ?reserve@?$Array@VPxVec3@physx@@V?$CuHostAllocator@VPxVec3@physx@@$01@cloth@nv@@@ps@cloth@nv@@QEAAXI@Z 000000018001d220 f i CuCloth.obj
 0001:0001c260       ?reserve@?$Array@VPxVec4@physx@@V?$CuHostAllocator@VPxVec4@physx@@$01@cloth@nv@@@ps@cloth@nv@@QEAAXI@Z 000000018001d260 f i CuCloth.obj
 0001:0001c2a0       ?reserve@?$Array@VPxVec4@physx@@VNonTrackingAllocator@ps@cloth@nv@@@ps@cloth@nv@@QEAAXI@Z 000000018001d2a0 f i CuCloth.obj
 0001:0001c2e0       ?reserve@?$CuDeviceVector@I@cloth@nv@@QEAAX_K@Z 000000018001d2e0 f i CuCloth.obj
 0001:0001c4d0       ?reserve@?$CuDeviceVector@M@cloth@nv@@QEAAX_K@Z 000000018001d4d0 f i CuCloth.obj
 0001:0001c6c0       ?reserve@?$CuDeviceVector@U?$Vec4T@G@cloth@nv@@@cloth@nv@@QEAAX_K@Z 000000018001d6c0 f i CuCloth.obj
 0001:0001c8b0       ?reserve@?$CuDeviceVector@UCuPhaseConfig@cloth@nv@@@cloth@nv@@QEAAX_K@Z 000000018001d8b0 f i CuCloth.obj
 0001:0001caa0       ?reserve@?$CuDeviceVector@VPxVec4@physx@@@cloth@nv@@QEAAX_K@Z 000000018001daa0 f i CuCloth.obj
 0001:0001cc90       ?reset@MovingAverage@cloth@nv@@QEAAXXZ 000000018001dc90 f i CuCloth.obj
 0001:0001ccc0       ?resize@?$Array@IV?$CuHostAllocator@I$01@cloth@nv@@@ps@cloth@nv@@QEAAXIAEBI@Z 000000018001dcc0 f i CuCloth.obj
 0001:0001cd80       ?resize@?$Array@UIndexPair@cloth@nv@@V?$CuHostAllocator@UIndexPair@cloth@nv@@$01@23@@ps@cloth@nv@@QEAAXIAEBUIndexPair@34@@Z 000000018001dd80 f i CuCloth.obj
 0001:0001ce40       ?resize@?$Array@VPxVec3@physx@@V?$CuHostAllocator@VPxVec3@physx@@$01@cloth@nv@@@ps@cloth@nv@@QEAAXIAEBVPxVec3@physx@@@Z 000000018001de40 f i CuCloth.obj
 0001:0001cf00       ?resize@?$Array@VPxVec4@physx@@V?$CuHostAllocator@VPxVec4@physx@@$01@cloth@nv@@@ps@cloth@nv@@QEAAXIAEBVPxVec4@physx@@@Z 000000018001df00 f i CuCloth.obj
 0001:0001cfc0       ?resize@?$CuDeviceVector@I@cloth@nv@@QEAAX_K@Z 000000018001dfc0 f i CuCloth.obj
 0001:0001d070       ?resize@?$CuDeviceVector@M@cloth@nv@@QEAAX_K@Z 000000018001e070 f i CuCloth.obj
 0001:0001d120       ?resize@?$CuDeviceVector@U?$Vec4T@G@cloth@nv@@@cloth@nv@@QEAAX_K@Z 000000018001e120 f i CuCloth.obj
 0001:0001d1d0       ?resize@?$CuDeviceVector@UCuPhaseConfig@cloth@nv@@@cloth@nv@@QEAAX_K@Z 000000018001e1d0 f i CuCloth.obj
 0001:0001d280       ?resize@?$CuDeviceVector@VPxVec4@physx@@@cloth@nv@@QEAAX_K@Z 000000018001e280 f i CuCloth.obj
 0001:0001d330       ?resize@MovingAverage@cloth@nv@@QEAAXI@Z 000000018001e330 f i CuCloth.obj
 0001:0001d520       ?resizeUninitialized@?$Array@IVNonTrackingAllocator@ps@cloth@nv@@@ps@cloth@nv@@QEAAXI@Z 000000018001e520 f i CuCloth.obj
 0001:0001d560       ?resizeUninitialized@?$Array@UPhaseConfig@cloth@nv@@VNonTrackingAllocator@ps@23@@ps@cloth@nv@@QEAAXI@Z 000000018001e560 f i CuCloth.obj
 0001:0001d5a0       ?resizeUninitialized@?$Array@VPxVec3@physx@@V?$CuHostAllocator@VPxVec3@physx@@$01@cloth@nv@@@ps@cloth@nv@@QEAAXI@Z 000000018001e5a0 f i CuCloth.obj
 0001:0001d5e0       ?resizeUninitialized@?$Array@VPxVec4@physx@@V?$CuHostAllocator@VPxVec4@physx@@$01@cloth@nv@@@ps@cloth@nv@@QEAAXI@Z 000000018001e5e0 f i CuCloth.obj
 0001:0001d620       ?safeExp2@cloth@nv@@YA?AVPxVec3@physx@@AEBV34@@Z 000000018001e620 f i CuCloth.obj
 0001:0001d6b0       ?safeExp2@cloth@nv@@YAMM@Z 000000018001e6b0 f i CuCloth.obj
 0001:0001d6f0       ?safeLog2@cloth@nv@@YA?AVPxVec3@physx@@AEBV34@@Z 000000018001e6f0 f i CuCloth.obj
 0001:0001d780       ?safeLog2@cloth@nv@@YAMM@Z 000000018001e780 f i CuCloth.obj
 0001:0001d850       ?selectMax@intrinsics@physx@@YAMMM@Z 000000018001e850 f i CuCloth.obj
 0001:0001d8b0       ?selectMin@intrinsics@physx@@YAMMM@Z 000000018001e8b0 f i CuCloth.obj
 0001:0001d910       ?setAcceleationFilterWidth@?$ClothImpl@VCuCloth@cloth@nv@@@cloth@nv@@UEAAXI@Z 000000018001e910 f i CuCloth.obj
 0001:0001d950       ?setAngularDrag@?$ClothImpl@VCuCloth@cloth@nv@@@cloth@nv@@UEAAXAEBVPxVec3@physx@@@Z 000000018001e950 f i CuCloth.obj
 0001:0001da40       ?setAngularInertia@?$ClothImpl@VCuCloth@cloth@nv@@@cloth@nv@@UEAAXAEBVPxVec3@physx@@@Z 000000018001ea40 f i CuCloth.obj
 0001:0001db00       ?setCapsules@?$ClothImpl@VCuCloth@cloth@nv@@@cloth@nv@@UEAAXU?$Range@$$CBI@23@II@Z 000000018001eb00 f i CuCloth.obj
 0001:0001e0a0       ?setCentrifugalInertia@?$ClothImpl@VCuCloth@cloth@nv@@@cloth@nv@@UEAAXAEBVPxVec3@physx@@@Z 000000018001f0a0 f i CuCloth.obj
 0001:0001e160       ?setCollisionMassScale@?$ClothImpl@VCuCloth@cloth@nv@@@cloth@nv@@UEAAXM@Z 000000018001f160 f i CuCloth.obj
 0001:0001e1f0       ?setConvexes@?$ClothImpl@VCuCloth@cloth@nv@@@cloth@nv@@UEAAXU?$Range@$$CBI@23@II@Z 000000018001f1f0 f i CuCloth.obj
 0001:0001e710       ?setDamping@?$ClothImpl@VCuCloth@cloth@nv@@@cloth@nv@@UEAAXAEBVPxVec3@physx@@@Z 000000018001f710 f i CuCloth.obj
 0001:0001e800       ?setDragCoefficient@?$ClothImpl@VCuCloth@cloth@nv@@@cloth@nv@@UEAAXM@Z 000000018001f800 f i CuCloth.obj
 0001:0001e910       ?setFluidDensity@?$ClothImpl@VCuCloth@cloth@nv@@@cloth@nv@@UEAAXM@Z 000000018001f910 f i CuCloth.obj
 0001:0001ea00       ?setFriction@?$ClothImpl@VCuCloth@cloth@nv@@@cloth@nv@@UEAAXM@Z 000000018001fa00 f i CuCloth.obj
 0001:0001ea60       ?setGravity@?$ClothImpl@VCuCloth@cloth@nv@@@cloth@nv@@UEAAXAEBVPxVec3@physx@@@Z 000000018001fa60 f i CuCloth.obj
 0001:0001eb20       ?setLiftCoefficient@?$ClothImpl@VCuCloth@cloth@nv@@@cloth@nv@@UEAAXM@Z 000000018001fb20 f i CuCloth.obj
 0001:0001ec30       ?setLinearDrag@?$ClothImpl@VCuCloth@cloth@nv@@@cloth@nv@@UEAAXAEBVPxVec3@physx@@@Z 000000018001fc30 f i CuCloth.obj
 0001:0001ed20       ?setLinearInertia@?$ClothImpl@VCuCloth@cloth@nv@@@cloth@nv@@UEAAXAEBVPxVec3@physx@@@Z 000000018001fd20 f i CuCloth.obj
 0001:0001ede0       ?setMotionConstraintScaleBias@?$ClothImpl@VCuCloth@cloth@nv@@@cloth@nv@@UEAAXMM@Z 000000018001fde0 f i CuCloth.obj
 0001:0001eeb0       ?setMotionConstraintStiffness@?$ClothImpl@VCuCloth@cloth@nv@@@cloth@nv@@UEAAXM@Z 000000018001feb0 f i CuCloth.obj
 0001:0001ef60       ?setPlanes@?$ClothImpl@VCuCloth@cloth@nv@@@cloth@nv@@UEAAXU?$Range@$$CBVPxVec4@physx@@@23@0@Z 000000018001ff60 f i CuCloth.obj
 0001:0001f4c0       ?setPlanes@?$ClothImpl@VCuCloth@cloth@nv@@@cloth@nv@@UEAAXU?$Range@$$CBVPxVec4@physx@@@23@II@Z 00000001800204c0 f i CuCloth.obj
 0001:00020110       ?setRestPositions@?$ClothImpl@VCuCloth@cloth@nv@@@cloth@nv@@UEAAXU?$Range@$$CBVPxVec4@physx@@@23@@Z 0000000180021110 f i CuCloth.obj
 0001:000202d0       ?setRotation@?$ClothImpl@VCuCloth@cloth@nv@@@cloth@nv@@UEAAXAEBVPxQuat@physx@@@Z 00000001800212d0 f i CuCloth.obj
 0001:00020360       ?setSelfCollisionDistance@?$ClothImpl@VCuCloth@cloth@nv@@@cloth@nv@@UEAAXM@Z 0000000180021360 f i CuCloth.obj
 0001:000203f0       ?setSelfCollisionStiffness@?$ClothImpl@VCuCloth@cloth@nv@@@cloth@nv@@UEAAXM@Z 00000001800213f0 f i CuCloth.obj
 0001:00020510       ?setSleepAfterCount@?$ClothImpl@VCuCloth@cloth@nv@@@cloth@nv@@UEAAXI@Z 0000000180021510 f i CuCloth.obj
 0001:00020590       ?setSleepTestInterval@?$ClothImpl@VCuCloth@cloth@nv@@@cloth@nv@@UEAAXI@Z 0000000180021590 f i CuCloth.obj
 0001:00020610       ?setSleepThreshold@?$ClothImpl@VCuCloth@cloth@nv@@@cloth@nv@@UEAAXM@Z 0000000180021610 f i CuCloth.obj
 0001:00020690       ?setSolverFrequency@?$ClothImpl@VCuCloth@cloth@nv@@@cloth@nv@@UEAAXM@Z 0000000180021690 f i CuCloth.obj
 0001:00020720       ?setSpheres@?$ClothImpl@VCuCloth@cloth@nv@@@cloth@nv@@UEAAXU?$Range@$$CBVPxVec4@physx@@@23@0@Z 0000000180021720 f i CuCloth.obj
 0001:00020c80       ?setSpheres@?$ClothImpl@VCuCloth@cloth@nv@@@cloth@nv@@UEAAXU?$Range@$$CBVPxVec4@physx@@@23@II@Z 0000000180021c80 f i CuCloth.obj
 0001:000217a0       ?setStiffnessFrequency@?$ClothImpl@VCuCloth@cloth@nv@@@cloth@nv@@UEAAXM@Z 00000001800227a0 f i CuCloth.obj
 0001:00021800       ?setTetherConstraintScale@?$ClothImpl@VCuCloth@cloth@nv@@@cloth@nv@@UEAAXM@Z 0000000180022800 f i CuCloth.obj
 0001:00021890       ?setTetherConstraintStiffness@?$ClothImpl@VCuCloth@cloth@nv@@@cloth@nv@@UEAAXM@Z 0000000180022890 f i CuCloth.obj
 0001:00021940       ?setTranslation@?$ClothImpl@VCuCloth@cloth@nv@@@cloth@nv@@UEAAXAEBVPxVec3@physx@@@Z 0000000180022940 f i CuCloth.obj
 0001:00021a00       ?setTriangles@?$ClothImpl@VCuCloth@cloth@nv@@@cloth@nv@@UEAAXU?$Range@$$CBVPxVec3@physx@@@23@0I@Z 0000000180022a00 f i CuCloth.obj
 0001:00022130       ?setTriangles@?$ClothImpl@VCuCloth@cloth@nv@@@cloth@nv@@UEAAXU?$Range@$$CBVPxVec3@physx@@@23@II@Z 0000000180023130 f i CuCloth.obj
 0001:00022a60       ?setUserData@?$ClothImpl@VCuCloth@cloth@nv@@@cloth@nv@@UEAAXPEAX@Z 0000000180023a60 f i CuCloth.obj
 0001:00022aa0       ?setWindVelocity@?$ClothImpl@VCuCloth@cloth@nv@@@cloth@nv@@UEAAXVPxVec3@physx@@@Z 0000000180023aa0 f i CuCloth.obj
 0001:00022b40       ?simd4f@cloth@nv@@YA?AUSimd4fScalarFactory@12@AEBM@Z 0000000180023b40 f i CuCloth.obj
 0001:00022b80       ?simd4i@cloth@nv@@YA?AUSimd4iScalarFactory@12@AEBH@Z 0000000180023b80 f i CuCloth.obj
 0001:00022bc0       ?size@?$Array@IV?$CuHostAllocator@I$01@cloth@nv@@@ps@cloth@nv@@QEBAIXZ 0000000180023bc0 f i CuCloth.obj
 0001:00022be0       ?size@?$Array@IVNonTrackingAllocator@ps@cloth@nv@@@ps@cloth@nv@@QEBAIXZ 0000000180023be0 f i CuCloth.obj
 0001:00022c00       ?size@?$Array@U?$Vec4T@G@cloth@nv@@VNonTrackingAllocator@ps@23@@ps@cloth@nv@@QEBAIXZ 0000000180023c00 f i CuCloth.obj
 0001:00022c20       ?size@?$Array@UIndexPair@cloth@nv@@V?$CuHostAllocator@UIndexPair@cloth@nv@@$01@23@@ps@cloth@nv@@QEBAIXZ 0000000180023c20 f i CuCloth.obj
 0001:00022c40       ?size@?$Array@UPhaseConfig@cloth@nv@@VNonTrackingAllocator@ps@23@@ps@cloth@nv@@QEBAIXZ 0000000180023c40 f i CuCloth.obj
 0001:00022c60       ?size@?$Array@VPxVec3@physx@@V?$CuHostAllocator@VPxVec3@physx@@$01@cloth@nv@@@ps@cloth@nv@@QEBAIXZ 0000000180023c60 f i CuCloth.obj
 0001:00022c80       ?size@?$Array@VPxVec4@physx@@V?$CuHostAllocator@VPxVec4@physx@@$01@cloth@nv@@@ps@cloth@nv@@QEBAIXZ 0000000180023c80 f i CuCloth.obj
 0001:00022ca0       ?size@?$Array@VPxVec4@physx@@VNonTrackingAllocator@ps@cloth@nv@@@ps@cloth@nv@@QEBAIXZ 0000000180023ca0 f i CuCloth.obj
 0001:00022cc0       ?size@?$CuDeviceVector@I@cloth@nv@@QEBA_KXZ 0000000180023cc0 f i CuCloth.obj
 0001:00022d00       ?size@?$CuDeviceVector@M@cloth@nv@@QEBA_KXZ 0000000180023d00 f i CuCloth.obj
 0001:00022d40       ?size@?$CuDeviceVector@U?$Vec4T@G@cloth@nv@@@cloth@nv@@QEBA_KXZ 0000000180023d40 f i CuCloth.obj
 0001:00022d80       ?size@?$CuDeviceVector@UCuPhaseConfig@cloth@nv@@@cloth@nv@@QEBA_KXZ 0000000180023d80 f i CuCloth.obj
 0001:00022dc0       ?size@?$CuDeviceVector@VPxVec4@physx@@@cloth@nv@@QEBA_KXZ 0000000180023dc0 f i CuCloth.obj
 0001:00022e00       ?size@?$Range@$$BY03$$CBI@cloth@nv@@QEBAIXZ 0000000180023e00 f i CuCloth.obj
 0001:00022e30       ?size@?$Range@$$CBI@cloth@nv@@QEBAIXZ 0000000180023e30 f i CuCloth.obj
 0001:00022e60       ?size@?$Range@$$CBUPhaseConfig@cloth@nv@@@cloth@nv@@QEBAIXZ 0000000180023e60 f i CuCloth.obj
 0001:00022e90       ?size@?$Range@$$CBVPxVec3@physx@@@cloth@nv@@QEBAIXZ 0000000180023e90 f i CuCloth.obj
 0001:00022ec0       ?size@?$Range@$$CBVPxVec4@physx@@@cloth@nv@@QEBAIXZ 0000000180023ec0 f i CuCloth.obj
 0001:00022ef0       ?size@MovingAverage@cloth@nv@@QEBAIXZ 0000000180023ef0 f i CuCloth.obj
 0001:00022f10       ?swap@?$Array@VPxVec4@physx@@V?$CuHostAllocator@VPxVec4@physx@@$01@cloth@nv@@@ps@cloth@nv@@QEAAXAEAV1234@@Z 0000000180023f10 f i CuCloth.obj
 0001:00022f90       ?swap@?$CuDeviceVector@VPxVec4@physx@@@cloth@nv@@QEAAXAEAV123@@Z 0000000180023f90 f i CuCloth.obj
 0001:00023010       ?swap@?$CuHostVectorImpl@VPxVec4@physx@@$01@cloth@nv@@QEAAXAEAV123@@Z 0000000180024010 f i CuCloth.obj
 0001:000230d0       ?teleport@?$ClothImpl@VCuCloth@cloth@nv@@@cloth@nv@@UEAAXAEBVPxVec3@physx@@@Z 00000001800240d0 f i CuCloth.obj
 0001:00023130       ?teleportToLocation@?$ClothImpl@VCuCloth@cloth@nv@@@cloth@nv@@UEAAXAEBVPxVec3@physx@@AEBVPxQuat@5@@Z 0000000180024130 f i CuCloth.obj
 0001:000231d0       ?updateIndex@cloth@nv@@YA_NAEAIIH@Z 00000001800241d0 f i CuCloth.obj
 0001:00023240       ?wakeUp@?$ClothImpl@VCuCloth@cloth@nv@@@cloth@nv@@UEAAXXZ 0000000180024240 f i CuCloth.obj
 0001:00023260       fabsf                      0000000180024260 f i CuCloth.obj
 0001:00023290       ?clone@CuFactory@cloth@nv@@UEAAPEAVCloth@23@AEBV423@@Z 0000000180024290 f   CuClothClone.obj
 0001:00023300       ?clone@CuCloth@cloth@nv@@UEBAPEAVCloth@23@AEAVFactory@23@@Z 0000000180024300 f   CuClothClone.obj
 0001:000233e0       ?getPhaseConfigs@cloth@nv@@YA?AU?$Range@$$CBUPhaseConfig@cloth@nv@@@12@AEBVCuCloth@12@@Z 00000001800243e0 f   CuClothClone.obj
 0001:00023420       ?setPhaseConfigs@cloth@nv@@YAXAEAVCuCloth@12@U?$Range@$$CBUPhaseConfig@cloth@nv@@@12@@Z 0000000180024420 f   CuClothClone.obj
 0001:00023470       ?getParticleAccelerations@cloth@nv@@YA?AU?$Range@$$CBVPxVec4@physx@@@12@AEBVCuCloth@12@@Z 0000000180024470 f   CuClothClone.obj
 0001:000234b0       ?getSelfCollisionIndices@cloth@nv@@YA?AU?$Range@$$CBI@12@AEBVCuCloth@12@@Z 00000001800244b0 f   CuClothClone.obj
 0001:00023580       ??$?0$$BY03I@?$Range@$$BY03$$CBI@cloth@nv@@QEAA@AEBU?$Range@$$BY03I@12@@Z 0000000180024580 f i CuClothClone.obj
 0001:000235d0       ??$?0I@?$Range@$$CBI@cloth@nv@@QEAA@AEBU?$Range@I@12@@Z 00000001800245d0 f i CuClothClone.obj
 0001:00023620       ??$?0M@?$Range@$$CBM@cloth@nv@@QEAA@AEBU?$Range@M@12@@Z 0000000180024620 f i CuClothClone.obj
 0001:00023670       ??$?0VPxVec3@physx@@@?$Range@$$CBVPxVec3@physx@@@cloth@nv@@QEAA@AEBU?$Range@VPxVec3@physx@@@12@@Z 0000000180024670 f i CuClothClone.obj
 0001:000236c0       ??$?0VPxVec4@physx@@@?$Range@$$CBVPxVec4@physx@@@cloth@nv@@QEAA@AEBU?$Range@VPxVec4@physx@@@12@@Z 00000001800246c0 f i CuClothClone.obj
 0001:00023710       ??$PX_UNUSED@UNvClothOverload@cloth@nv@@@@YAXAEBUNvClothOverload@cloth@nv@@@Z 0000000180024710 f i CuClothClone.obj
 0001:00023720       ??$array@I@cloth@nv@@YAAEAY03IAEAU?$Vec4T@I@01@@Z 0000000180024720 f i CuClothClone.obj
 0001:00023730       ??$convertCloth@VCuFactory@cloth@nv@@VCuCloth@23@@cloth@nv@@YAPEAVCuCloth@01@AEAVCuFactory@01@AEBV201@@Z 0000000180024730 f i CuClothClone.obj
 0001:00024b40       ??$convertCloth@VCuFactory@cloth@nv@@VSwCloth@23@@cloth@nv@@YAPEAVCuCloth@01@AEAVCuFactory@01@AEBVSwCloth@01@@Z 0000000180025b40 f i CuClothClone.obj
 0001:00025f50       ??$convertCloth@VSwFactory@cloth@nv@@VCuCloth@23@@cloth@nv@@YAPEAVSwCloth@01@AEAVSwFactory@01@AEBVCuCloth@01@@Z 0000000180026f50 f i CuClothClone.obj
 0001:00027360       ??$convertFabric@VCuFabric@cloth@nv@@VCuFactory@23@@cloth@nv@@YAPEAVCuFabric@01@AEBV201@AEAVCuFactory@01@@Z 0000000180028360 f i CuClothClone.obj
 0001:00027ee0       ??$convertFabric@VCuFabric@cloth@nv@@VSwFactory@23@@cloth@nv@@YAPEAVSwFabric@01@AEBVCuFabric@01@AEAVSwFactory@01@@Z 0000000180028ee0 f i CuClothClone.obj
 0001:00028a60       ??$convertFabric@VSwFabric@cloth@nv@@VCuFactory@23@@cloth@nv@@YAPEAVCuFabric@01@AEBVSwFabric@01@AEAVCuFactory@01@@Z 0000000180029a60 f i CuClothClone.obj
 0001:000295e0       ??$copy@VCuCloth@cloth@nv@@VSwCloth@23@@cloth@nv@@YAXAEAVCuCloth@01@AEBVSwCloth@01@@Z 000000018002a5e0 f i CuClothClone.obj
 0001:00029a90       ??$copy@VSwCloth@cloth@nv@@VCuCloth@23@@cloth@nv@@YAXAEAVSwCloth@01@AEBVCuCloth@01@@Z 000000018002aa90 f i CuClothClone.obj
 0001:00029f40       ??$makeRange@IVNonTrackingAllocator@ps@cloth@nv@@@cloth@nv@@YA?AU?$Range@$$CBI@01@AEBV?$Array@IVNonTrackingAllocator@ps@cloth@nv@@@ps@01@@Z 000000018002af40 f i CuClothClone.obj
 0001:00029fe0       ??$makeRange@IVNonTrackingAllocator@ps@cloth@nv@@@cloth@nv@@YA?AU?$Range@I@01@AEAV?$Array@IVNonTrackingAllocator@ps@cloth@nv@@@ps@01@@Z 000000018002afe0 f i CuClothClone.obj
 0001:0002a080       ??$makeRange@MVNonTrackingAllocator@ps@cloth@nv@@@cloth@nv@@YA?AU?$Range@M@01@AEAV?$Array@MVNonTrackingAllocator@ps@cloth@nv@@@ps@01@@Z 000000018002b080 f i CuClothClone.obj
 0001:0002a120       ??$makeRange@UPhaseConfig@cloth@nv@@VNonTrackingAllocator@ps@23@@cloth@nv@@YA?AU?$Range@$$CBUPhaseConfig@cloth@nv@@@01@AEBV?$Array@UPhaseConfig@cloth@nv@@VNonTrackingAllocator@ps@23@@ps@01@@Z 000000018002b120 f i CuClothClone.obj
 0001:0002a1c0       ??$makeRange@VPxVec4@physx@@V?$CuHostAllocator@VPxVec4@physx@@$01@cloth@nv@@@cloth@nv@@YA?AU?$Range@$$CBVPxVec4@physx@@@01@AEBV?$Array@VPxVec4@physx@@V?$CuHostAllocator@VPxVec4@physx@@$01@cloth@nv@@@ps@01@@Z 000000018002b1c0 f i CuClothClone.obj
 0001:0002a260       ??$makeRange@VPxVec4@physx@@VNonTrackingAllocator@ps@cloth@nv@@@cloth@nv@@YA?AU?$Range@$$CBVPxVec4@physx@@@01@AEBV?$Array@VPxVec4@physx@@VNonTrackingAllocator@ps@cloth@nv@@@ps@01@@Z 000000018002b260 f i CuClothClone.obj
 0001:0002a300       ??$makeRange@VPxVec4@physx@@VNonTrackingAllocator@ps@cloth@nv@@@cloth@nv@@YA?AU?$Range@VPxVec4@physx@@@01@AEAV?$Array@VPxVec4@physx@@VNonTrackingAllocator@ps@cloth@nv@@@ps@01@@Z 000000018002b300 f i CuClothClone.obj
 0001:0002a3a0       ??0?$Array@IVNonTrackingAllocator@ps@cloth@nv@@@ps@cloth@nv@@QEAA@IAEBIAEBVNonTrackingAllocator@123@@Z 000000018002b3a0 f i CuClothClone.obj
 0001:0002a420       ??0?$Array@MVNonTrackingAllocator@ps@cloth@nv@@@ps@cloth@nv@@QEAA@IAEBMAEBVNonTrackingAllocator@123@@Z 000000018002b420 f i CuClothClone.obj
 0001:0002a4a0       ??0?$Array@U?$Vec4T@I@cloth@nv@@VNonTrackingAllocator@ps@23@@ps@cloth@nv@@QEAA@IAEBU?$Vec4T@I@23@AEBVNonTrackingAllocator@123@@Z 000000018002b4a0 f i CuClothClone.obj
 0001:0002a520       ??0?$Array@VPxVec3@physx@@VNonTrackingAllocator@ps@cloth@nv@@@ps@cloth@nv@@QEAA@IAEBVPxVec3@physx@@AEBVNonTrackingAllocator@123@@Z 000000018002b520 f i CuClothClone.obj
 0001:0002a5a0       ??0?$Array@VPxVec4@physx@@VNonTrackingAllocator@ps@cloth@nv@@@ps@cloth@nv@@QEAA@IAEBVPxVec4@physx@@AEBVNonTrackingAllocator@123@@Z 000000018002b5a0 f i CuClothClone.obj
 0001:0002a620       ??0?$Range@$$BY03I@cloth@nv@@QEAA@PEAY03I0@Z 000000018002b620 f i CuClothClone.obj
 0001:0002a660       ??0?$Range@$$CBI@cloth@nv@@QEAA@PEBI0@Z 000000018002b660 f i CuClothClone.obj
 0001:0002a6a0       ??0?$Range@I@cloth@nv@@QEAA@PEAI0@Z 000000018002b6a0 f i CuClothClone.obj
 0001:0002a6e0       ??0?$Range@M@cloth@nv@@QEAA@PEAM0@Z 000000018002b6e0 f i CuClothClone.obj
 0001:0002a720       ??0?$Range@VPxVec3@physx@@@cloth@nv@@QEAA@PEAVPxVec3@physx@@0@Z 000000018002b720 f i CuClothClone.obj
 0001:0002a760       ??0?$Vec4T@I@cloth@nv@@QEAA@XZ 000000018002b760 f i CuClothClone.obj
 0001:0002a770       ??0SwContextLock@cloth@nv@@QEAA@AEBVSwFactory@12@@Z 000000018002b770 f i CuClothClone.obj
 0001:0002a790       ??1?$Array@MVNonTrackingAllocator@ps@cloth@nv@@@ps@cloth@nv@@QEAA@XZ 000000018002b790 f i CuClothClone.obj
 0001:0002a810       ??1?$Array@VPxVec3@physx@@VNonTrackingAllocator@ps@cloth@nv@@@ps@cloth@nv@@QEAA@XZ 000000018002b810 f i CuClothClone.obj
 0001:0002a890       ??1?$MappedRange@$$CBVPxVec4@physx@@@cloth@nv@@QEAA@XZ 000000018002b890 f i CuClothClone.obj
 0001:0002a8d0       ??1?$MappedRange@VPxVec4@physx@@@cloth@nv@@QEAA@XZ 000000018002b8d0 f i CuClothClone.obj
 0001:0002a910       ??2UserAllocated@cloth@nv@@SAPEAX_KPEBDHUNvClothOverload@12@@Z 000000018002b910 f i CuClothClone.obj
 0001:0002a990       ?allocate@?$Array@MVNonTrackingAllocator@ps@cloth@nv@@@ps@cloth@nv@@IEAAPEAMI@Z 000000018002b990 f i CuClothClone.obj
 0001:0002aa40       ?allocate@?$Array@U?$Vec4T@I@cloth@nv@@VNonTrackingAllocator@ps@23@@ps@cloth@nv@@IEAAPEAU?$Vec4T@I@34@I@Z 000000018002ba40 f i CuClothClone.obj
 0001:0002aaf0       ?allocate@?$Array@VPxVec3@physx@@VNonTrackingAllocator@ps@cloth@nv@@@ps@cloth@nv@@IEAAPEAVPxVec3@physx@@I@Z 000000018002baf0 f i CuClothClone.obj
 0001:0002aba0       ?begin@?$Array@IVNonTrackingAllocator@ps@cloth@nv@@@ps@cloth@nv@@QEBAPEBIXZ 000000018002bba0 f i CuClothClone.obj
 0001:0002abc0       ?begin@?$Array@MVNonTrackingAllocator@ps@cloth@nv@@@ps@cloth@nv@@QEAAPEAMXZ 000000018002bbc0 f i CuClothClone.obj
 0001:0002abe0       ?begin@?$Array@PEAVCuFabric@cloth@nv@@VNonTrackingAllocator@ps@23@@ps@cloth@nv@@QEAAPEAPEAVCuFabric@34@XZ 000000018002bbe0 f i CuClothClone.obj
 0001:0002ac00       ?begin@?$Array@PEAVSwFabric@cloth@nv@@VNonTrackingAllocator@ps@23@@ps@cloth@nv@@QEAAPEAPEAVSwFabric@34@XZ 000000018002bc00 f i CuClothClone.obj
 0001:0002ac20       ?begin@?$Array@VPxVec4@physx@@VNonTrackingAllocator@ps@cloth@nv@@@ps@cloth@nv@@QEAAPEAVPxVec4@physx@@XZ 000000018002bc20 f i CuClothClone.obj
 0001:0002ac40       ?begin@?$Array@VPxVec4@physx@@VNonTrackingAllocator@ps@cloth@nv@@@ps@cloth@nv@@QEBAPEBVPxVec4@physx@@XZ 000000018002bc40 f i CuClothClone.obj
 0001:0002ac60       ?begin@?$Range@$$BY03I@cloth@nv@@QEBAPEAY03IXZ 000000018002bc60 f i CuClothClone.obj
 0001:0002ac80       ?begin@?$Range@I@cloth@nv@@QEBAPEAIXZ 000000018002bc80 f i CuClothClone.obj
 0001:0002aca0       ?begin@?$Range@M@cloth@nv@@QEBAPEAMXZ 000000018002bca0 f i CuClothClone.obj
 0001:0002acc0       ?begin@?$Range@VPxVec3@physx@@@cloth@nv@@QEBAPEAVPxVec3@physx@@XZ 000000018002bcc0 f i CuClothClone.obj
 0001:0002ace0       ?begin@?$Range@VPxVec4@physx@@@cloth@nv@@QEBAPEAVPxVec4@physx@@XZ 000000018002bce0 f i CuClothClone.obj
 0001:0002ad00       ?capacity@?$Array@MVNonTrackingAllocator@ps@cloth@nv@@@ps@cloth@nv@@QEBAIXZ 000000018002bd00 f i CuClothClone.obj
 0001:0002ad20       ?capacity@?$Array@VPxVec3@physx@@VNonTrackingAllocator@ps@cloth@nv@@@ps@cloth@nv@@QEBAIXZ 000000018002bd20 f i CuClothClone.obj
 0001:0002ad40       ?copy@?$Array@MVNonTrackingAllocator@ps@cloth@nv@@@ps@cloth@nv@@KAXPEAM0PEBM@Z 000000018002bd40 f i CuClothClone.obj
 0001:0002ade0       ?copy@?$Array@U?$Vec4T@I@cloth@nv@@VNonTrackingAllocator@ps@23@@ps@cloth@nv@@KAXPEAU?$Vec4T@I@34@0PEBU534@@Z 000000018002bde0 f i CuClothClone.obj
 0001:0002ae80       ?copy@?$Array@VPxVec3@physx@@VNonTrackingAllocator@ps@cloth@nv@@@ps@cloth@nv@@KAXPEAVPxVec3@physx@@0PEBV56@@Z 000000018002be80 f i CuClothClone.obj
 0001:0002af20       ?create@?$Array@IVNonTrackingAllocator@ps@cloth@nv@@@ps@cloth@nv@@KAXPEAI0AEBI@Z 000000018002bf20 f i CuClothClone.obj
 0001:0002af90       ?create@?$Array@MVNonTrackingAllocator@ps@cloth@nv@@@ps@cloth@nv@@KAXPEAM0AEBM@Z 000000018002bf90 f i CuClothClone.obj
 0001:0002b010       ?create@?$Array@U?$Vec4T@I@cloth@nv@@VNonTrackingAllocator@ps@23@@ps@cloth@nv@@KAXPEAU?$Vec4T@I@34@0AEBU534@@Z 000000018002c010 f i CuClothClone.obj
 0001:0002b090       ?create@?$Array@VPxVec3@physx@@VNonTrackingAllocator@ps@cloth@nv@@@ps@cloth@nv@@KAXPEAVPxVec3@physx@@0AEBV56@@Z 000000018002c090 f i CuClothClone.obj
 0001:0002b110       ?create@?$Array@VPxVec4@physx@@VNonTrackingAllocator@ps@cloth@nv@@@ps@cloth@nv@@KAXPEAVPxVec4@physx@@0AEBV56@@Z 000000018002c110 f i CuClothClone.obj
 0001:0002b190       ?deallocate@?$Array@MVNonTrackingAllocator@ps@cloth@nv@@@ps@cloth@nv@@IEAAXPEAX@Z 000000018002c190 f i CuClothClone.obj
 0001:0002b1c0       ?deallocate@?$Array@VPxVec3@physx@@VNonTrackingAllocator@ps@cloth@nv@@@ps@cloth@nv@@IEAAXPEAX@Z 000000018002c1c0 f i CuClothClone.obj
 0001:0002b1f0       ?destroy@?$Array@MVNonTrackingAllocator@ps@cloth@nv@@@ps@cloth@nv@@KAXPEAM0@Z 000000018002c1f0 f i CuClothClone.obj
 0001:0002b230       ?destroy@?$Array@VPxVec3@physx@@VNonTrackingAllocator@ps@cloth@nv@@@ps@cloth@nv@@KAXPEAVPxVec3@physx@@0@Z 000000018002c230 f i CuClothClone.obj
 0001:0002b270       ?empty@?$Array@MVNonTrackingAllocator@ps@cloth@nv@@@ps@cloth@nv@@QEBA_NXZ 000000018002c270 f i CuClothClone.obj
 0001:0002b2b0       ?empty@?$Array@U?$Vec4T@I@cloth@nv@@VNonTrackingAllocator@ps@23@@ps@cloth@nv@@QEBA_NXZ 000000018002c2b0 f i CuClothClone.obj
 0001:0002b2f0       ?empty@?$Array@VPxVec3@physx@@VNonTrackingAllocator@ps@cloth@nv@@@ps@cloth@nv@@QEBA_NXZ 000000018002c2f0 f i CuClothClone.obj
 0001:0002b330       ?end@?$Array@PEAVCuFabric@cloth@nv@@VNonTrackingAllocator@ps@23@@ps@cloth@nv@@QEAAPEAPEAVCuFabric@34@XZ 000000018002c330 f i CuClothClone.obj
 0001:0002b360       ?end@?$Array@PEAVSwFabric@cloth@nv@@VNonTrackingAllocator@ps@23@@ps@cloth@nv@@QEAAPEAPEAVSwFabric@34@XZ 000000018002c360 f i CuClothClone.obj
 0001:0002b390       ?end@?$Range@$$BY03I@cloth@nv@@QEBAPEAY03IXZ 000000018002c390 f i CuClothClone.obj
 0001:0002b3b0       ?end@?$Range@I@cloth@nv@@QEBAPEAIXZ 000000018002c3b0 f i CuClothClone.obj
 0001:0002b3d0       ?end@?$Range@M@cloth@nv@@QEBAPEAMXZ 000000018002c3d0 f i CuClothClone.obj
 0001:0002b3f0       ?end@?$Range@VPxVec3@physx@@@cloth@nv@@QEBAPEAVPxVec3@physx@@XZ 000000018002c3f0 f i CuClothClone.obj
 0001:0002b410       ?end@?$Range@VPxVec4@physx@@@cloth@nv@@QEBAPEAVPxVec4@physx@@XZ 000000018002c410 f i CuClothClone.obj
 0001:0002b430       ?front@?$Array@U?$Vec4T@I@cloth@nv@@VNonTrackingAllocator@ps@23@@ps@cloth@nv@@QEAAAEAU?$Vec4T@I@34@XZ 000000018002c430 f i CuClothClone.obj
 0001:0002b4c0       ?front@?$Array@VPxVec3@physx@@VNonTrackingAllocator@ps@cloth@nv@@@ps@cloth@nv@@QEAAAEAVPxVec3@physx@@XZ 000000018002c4c0 f i CuClothClone.obj
 0001:0002b550       ?front@?$Array@VPxVec4@physx@@VNonTrackingAllocator@ps@cloth@nv@@@ps@cloth@nv@@QEAAAEAVPxVec4@physx@@XZ 000000018002c550 f i CuClothClone.obj
 0001:0002b5e0       ?getParticleAccelerations@cloth@nv@@YA?AU?$Range@$$CBVPxVec4@physx@@@12@AEBVSwCloth@12@@Z 000000018002c5e0 f i CuClothClone.obj
 0001:0002b620       ?getPhaseConfigs@cloth@nv@@YA?AU?$Range@$$CBUPhaseConfig@cloth@nv@@@12@AEBVSwCloth@12@@Z 000000018002c620 f i CuClothClone.obj
 0001:0002b660       ?getSelfCollisionIndices@cloth@nv@@YA?AU?$Range@$$CBI@12@AEBVSwCloth@12@@Z 000000018002c660 f i CuClothClone.obj
 0001:0002b6a0       ?grow@?$Array@MVNonTrackingAllocator@ps@cloth@nv@@@ps@cloth@nv@@IEAAXI@Z 000000018002c6a0 f i CuClothClone.obj
 0001:0002b740       ?grow@?$Array@U?$Vec4T@I@cloth@nv@@VNonTrackingAllocator@ps@23@@ps@cloth@nv@@IEAAXI@Z 000000018002c740 f i CuClothClone.obj
 0001:0002b7e0       ?grow@?$Array@VPxVec3@physx@@VNonTrackingAllocator@ps@cloth@nv@@@ps@cloth@nv@@IEAAXI@Z 000000018002c7e0 f i CuClothClone.obj
 0001:0002b880       ?isInUserMemory@?$Array@MVNonTrackingAllocator@ps@cloth@nv@@@ps@cloth@nv@@QEBAIXZ 000000018002c880 f i CuClothClone.obj
 0001:0002b8a0       ?isInUserMemory@?$Array@VPxVec3@physx@@VNonTrackingAllocator@ps@cloth@nv@@@ps@cloth@nv@@QEBAIXZ 000000018002c8a0 f i CuClothClone.obj
 0001:0002b8c0       ?recreate@?$Array@MVNonTrackingAllocator@ps@cloth@nv@@@ps@cloth@nv@@IEAAXI@Z 000000018002c8c0 f i CuClothClone.obj
 0001:0002ba20       ?recreate@?$Array@U?$Vec4T@I@cloth@nv@@VNonTrackingAllocator@ps@23@@ps@cloth@nv@@IEAAXI@Z 000000018002ca20 f i CuClothClone.obj
 0001:0002bb80       ?recreate@?$Array@VPxVec3@physx@@VNonTrackingAllocator@ps@cloth@nv@@@ps@cloth@nv@@IEAAXI@Z 000000018002cb80 f i CuClothClone.obj
 0001:0002bce0       ?reserve@?$Array@MVNonTrackingAllocator@ps@cloth@nv@@@ps@cloth@nv@@QEAAXI@Z 000000018002cce0 f i CuClothClone.obj
 0001:0002bd20       ?reserve@?$Array@U?$Vec4T@I@cloth@nv@@VNonTrackingAllocator@ps@23@@ps@cloth@nv@@QEAAXI@Z 000000018002cd20 f i CuClothClone.obj
 0001:0002bd60       ?reserve@?$Array@VPxVec3@physx@@VNonTrackingAllocator@ps@cloth@nv@@@ps@cloth@nv@@QEAAXI@Z 000000018002cd60 f i CuClothClone.obj
 0001:0002bda0       ?resize@?$Array@IVNonTrackingAllocator@ps@cloth@nv@@@ps@cloth@nv@@QEAAXIAEBI@Z 000000018002cda0 f i CuClothClone.obj
 0001:0002be60       ?resize@?$Array@MVNonTrackingAllocator@ps@cloth@nv@@@ps@cloth@nv@@QEAAXIAEBM@Z 000000018002ce60 f i CuClothClone.obj
 0001:0002bf20       ?resize@?$Array@U?$Vec4T@I@cloth@nv@@VNonTrackingAllocator@ps@23@@ps@cloth@nv@@QEAAXIAEBU?$Vec4T@I@34@@Z 000000018002cf20 f i CuClothClone.obj
 0001:0002bfe0       ?resize@?$Array@VPxVec3@physx@@VNonTrackingAllocator@ps@cloth@nv@@@ps@cloth@nv@@QEAAXIAEBVPxVec3@physx@@@Z 000000018002cfe0 f i CuClothClone.obj
 0001:0002c0a0       ?resize@?$Array@VPxVec4@physx@@VNonTrackingAllocator@ps@cloth@nv@@@ps@cloth@nv@@QEAAXIAEBVPxVec4@physx@@@Z 000000018002d0a0 f i CuClothClone.obj
 0001:0002c160       ?setPhaseConfigs@cloth@nv@@YAXAEAVSwCloth@12@U?$Range@$$CBUPhaseConfig@cloth@nv@@@12@@Z 000000018002d160 f i CuClothClone.obj
 0001:0002c1c0       ?size@?$Array@MVNonTrackingAllocator@ps@cloth@nv@@@ps@cloth@nv@@QEBAIXZ 000000018002d1c0 f i CuClothClone.obj
 0001:0002c1e0       ?size@?$Array@U?$Vec4T@I@cloth@nv@@VNonTrackingAllocator@ps@23@@ps@cloth@nv@@QEBAIXZ 000000018002d1e0 f i CuClothClone.obj
 0001:0002c200       ?size@?$Array@VPxVec3@physx@@VNonTrackingAllocator@ps@cloth@nv@@@ps@cloth@nv@@QEBAIXZ 000000018002d200 f i CuClothClone.obj
 0001:0002c220       ??0CuClothData@cloth@nv@@QEAA@AEAVCuCloth@12@@Z 000000018002d220 f   CuClothData.obj
 0001:0002c8a0       ??0CuFrameData@cloth@nv@@QEAA@AEAVCuCloth@12@IAEBU?$IterationState@T__m128@@@12@PEBUCuIterationData@12@@Z 000000018002d8a0 f   CuClothData.obj
 0001:0002d2c0       ??0CuIterationData@cloth@nv@@QEAA@AEBU?$IterationState@T__m128@@@12@@Z 000000018002e2c0 f   CuClothData.obj
 0001:0002dbd0       ??$array@G@cloth@nv@@YAAEAY03GAEAU?$Vec4T@G@01@@Z 000000018002ebd0 f i CuClothData.obj
 0001:0002dbe0       ??$getDevicePointer@I$01@cloth@nv@@YAPEAIAEAV?$CuHostVectorImpl@I$01@01@@Z 000000018002ebe0 f i CuClothData.obj
 0001:0002dc40       ??$getDevicePointer@UIndexPair@cloth@nv@@$01@cloth@nv@@YAPEAUIndexPair@01@AEAV?$CuHostVectorImpl@UIndexPair@cloth@nv@@$01@01@@Z 000000018002ec40 f i CuClothData.obj
 0001:0002dca0       ??$getDevicePointer@VPxVec3@physx@@$01@cloth@nv@@YAPEAVPxVec3@physx@@AEAV?$CuHostVectorImpl@VPxVec3@physx@@$01@01@@Z 000000018002eca0 f i CuClothData.obj
 0001:0002dd00       ??$getDevicePointer@VPxVec4@physx@@$01@cloth@nv@@YAPEAVPxVec4@physx@@AEAV?$CuHostVectorImpl@VPxVec4@physx@@$01@01@@Z 000000018002ed00 f i CuClothData.obj
 0001:0002dd60       ??0?$CuDevicePointer@G@cloth@nv@@QEAA@AEBV012@@Z 000000018002ed60 f i CuClothData.obj
 0001:0002dda0       ??0?$CuDevicePointer@I@cloth@nv@@QEAA@AEBV012@@Z 000000018002eda0 f i CuClothData.obj
 0001:0002dde0       ??0?$CuDevicePointer@U?$Vec4T@G@cloth@nv@@@cloth@nv@@QEAA@AEBV012@@Z 000000018002ede0 f i CuClothData.obj
 0001:0002de20       ??0?$CuDevicePointer@UCuPhaseConfig@cloth@nv@@@cloth@nv@@QEAA@AEBV012@@Z 000000018002ee20 f i CuClothData.obj
 0001:0002de60       ??0?$CuDevicePointer@UCuTether@cloth@nv@@@cloth@nv@@QEAA@AEBV012@@Z 000000018002ee60 f i CuClothData.obj
 0001:0002dea0       ??0Simd4fTupleFactory@cloth@nv@@QEAA@MMMM@Z 000000018002eea0 f i CuClothData.obj
 0001:0002df50       ??BSimd4fOneFactory@cloth@nv@@QEBA?AT__m128@@XZ 000000018002ef50 f i CuClothData.obj
 0001:0002df90       ??BSimd4fScalarFactory@cloth@nv@@QEBA?AT__m128@@XZ 000000018002ef90 f i CuClothData.obj
 0001:0002dfe0       ??BSimd4fTupleFactory@cloth@nv@@QEBA?AT__m128@@XZ 000000018002efe0 f i CuClothData.obj
 0001:0002e010       ??Dcloth@nv@@YA?AT__m128@@AEBT2@0@Z 000000018002f010 f i CuClothData.obj
 0001:0002e050       ??G?$CuDevicePointer@G@cloth@nv@@QEBA_JAEBV012@@Z 000000018002f050 f i CuClothData.obj
 0001:0002e080       ??G?$CuDevicePointer@UCuTether@cloth@nv@@@cloth@nv@@QEBA_JAEBV012@@Z 000000018002f080 f i CuClothData.obj
 0001:0002e0b0       ??Gcloth@nv@@YA?AT__m128@@AEBT2@0@Z 000000018002f0b0 f i CuClothData.obj
 0001:0002e0f0       ??Gcloth@nv@@YA?AT__m128@@AEBT2@@Z 000000018002f0f0 f i CuClothData.obj
 0001:0002e140       ??Hcloth@nv@@YA?AT__m128@@AEBT2@0@Z 000000018002f140 f i CuClothData.obj
 0001:0002e180       ?array@cloth@nv@@YAAEAY02MAEAVPxVec3@physx@@@Z 000000018002f180 f i CuClothData.obj
 0001:0002e190       ?array@cloth@nv@@YAAEAY03$$CBMAEBT__m128@@@Z 000000018002f190 f i CuClothData.obj
 0001:0002e1a0       ?array@cloth@nv@@YAAEAY03MAEAT__m128@@@Z 000000018002f1a0 f i CuClothData.obj
 0001:0002e1b0       ?begin@?$CuDeviceVector@G@cloth@nv@@QEAA?AV?$CuDevicePointer@G@23@XZ 000000018002f1b0 f i CuClothData.obj
 0001:0002e1f0       ?begin@?$CuDeviceVector@I@cloth@nv@@QEAA?AV?$CuDevicePointer@I@23@XZ 000000018002f1f0 f i CuClothData.obj
 0001:0002e230       ?begin@?$CuDeviceVector@U?$Vec4T@G@cloth@nv@@@cloth@nv@@QEAA?AV?$CuDevicePointer@U?$Vec4T@G@cloth@nv@@@23@XZ 000000018002f230 f i CuClothData.obj
 0001:0002e270       ?begin@?$CuDeviceVector@UCuPhaseConfig@cloth@nv@@@cloth@nv@@QEAA?AV?$CuDevicePointer@UCuPhaseConfig@cloth@nv@@@23@XZ 000000018002f270 f i CuClothData.obj
 0001:0002e2b0       ?begin@?$CuDeviceVector@UCuTether@cloth@nv@@@cloth@nv@@QEAA?AV?$CuDevicePointer@UCuTether@cloth@nv@@@23@XZ 000000018002f2b0 f i CuClothData.obj
 0001:0002e2f0       ?empty@?$Array@IV?$CuHostAllocator@I$01@cloth@nv@@@ps@cloth@nv@@QEBA_NXZ 000000018002f2f0 f i CuClothData.obj
 0001:0002e330       ?exp2@cloth@nv@@YA?AT__m128@@AEBT3@@Z 000000018002f330 f i CuClothData.obj
 0001:0002ea00       ?get@?$CuDevicePointer@G@cloth@nv@@QEBAPEAGXZ 000000018002fa00 f i CuClothData.obj
 0001:0002ea20       ?get@?$CuDevicePointer@I@cloth@nv@@QEBAPEAIXZ 000000018002fa20 f i CuClothData.obj
 0001:0002ea40       ?get@?$CuDevicePointer@U?$Vec4T@G@cloth@nv@@@cloth@nv@@QEBAPEAU?$Vec4T@G@23@XZ 000000018002fa40 f i CuClothData.obj
 0001:0002ea60       ?get@?$CuDevicePointer@UCuPhaseConfig@cloth@nv@@@cloth@nv@@QEBAPEAUCuPhaseConfig@23@XZ 000000018002fa60 f i CuClothData.obj
 0001:0002ea80       ?get@?$CuDevicePointer@UCuTether@cloth@nv@@@cloth@nv@@QEBAPEAUCuTether@23@XZ 000000018002fa80 f i CuClothData.obj
 0001:0002eaa0       ?getAllocator@?$Array@IV?$CuHostAllocator@I$01@cloth@nv@@@ps@cloth@nv@@QEAAAEAV?$CuHostAllocator@I$01@34@XZ 000000018002faa0 f i CuClothData.obj
 0001:0002eab0       ?getAllocator@?$Array@UIndexPair@cloth@nv@@V?$CuHostAllocator@UIndexPair@cloth@nv@@$01@23@@ps@cloth@nv@@QEAAAEAV?$CuHostAllocator@UIndexPair@cloth@nv@@$01@34@XZ 000000018002fab0 f i CuClothData.obj
 0001:0002eac0       ?getAllocator@?$Array@VPxVec3@physx@@V?$CuHostAllocator@VPxVec3@physx@@$01@cloth@nv@@@ps@cloth@nv@@QEAAAEAV?$CuHostAllocator@VPxVec3@physx@@$01@34@XZ 000000018002fac0 f i CuClothData.obj
 0001:0002ead0       ?getAllocator@?$Array@VPxVec4@physx@@V?$CuHostAllocator@VPxVec4@physx@@$01@cloth@nv@@@ps@cloth@nv@@QEAAAEAV?$CuHostAllocator@VPxVec4@physx@@$01@34@XZ 000000018002fad0 f i CuClothData.obj
 0001:0002eae0       ?max@cloth@nv@@YA?AT__m128@@AEBT3@0@Z 000000018002fae0 f i CuClothData.obj
 0001:0002eb20       ?min@cloth@nv@@YA?AT__m128@@AEBT3@0@Z 000000018002fb20 f i CuClothData.obj
 0001:0002eb60       ?recip@cloth@nv@@YA?AT__m128@@AEBT3@@Z 000000018002fb60 f i CuClothData.obj
 0001:0002eb90       ?simd4f@cloth@nv@@YA?AUSimd4fTupleFactory@12@MMMM@Z 000000018002fb90 f i CuClothData.obj
 0001:0002ec00       ?size@?$CuDeviceVector@G@cloth@nv@@QEBA_KXZ 000000018002fc00 f i CuClothData.obj
 0001:0002ec40       ?size@?$CuDeviceVector@UCuTether@cloth@nv@@@cloth@nv@@QEBA_KXZ 000000018002fc40 f i CuClothData.obj
 0001:0002ec80       ??0CuContextLock@cloth@nv@@QEAA@AEBVCuFactory@12@@Z 000000018002fc80 f   CuContextLock.obj
 0001:0002ecc0       ??1CuContextLock@cloth@nv@@QEAA@XZ 000000018002fcc0 f   CuContextLock.obj
 0001:0002ecf0       ?acquire@CuContextLock@cloth@nv@@QEAAXXZ 000000018002fcf0 f   CuContextLock.obj
 0001:0002ed30       ?release@CuContextLock@cloth@nv@@QEAAXXZ 000000018002fd30 f   CuContextLock.obj
 0001:0002eda0       ??0CuTether@cloth@nv@@QEAA@GG@Z 000000018002fda0 f   CuFabric.obj
 0001:0002ede0       ??0CuFabric@cloth@nv@@QEAA@AEAVCuFactory@12@IU?$Range@$$CBI@12@1U?$Range@$$CBM@12@21121I@Z 000000018002fde0 f   CuFabric.obj
 0001:0002fb40       ??1CuFabric@cloth@nv@@UEAA@XZ 0000000180030b40 f   CuFabric.obj
 0001:0002fd10       ?getFactory@CuFabric@cloth@nv@@UEBAAEAVFactory@23@XZ 0000000180030d10 f   CuFabric.obj
 0001:0002fd30       ?getNumPhases@CuFabric@cloth@nv@@UEBAIXZ 0000000180030d30 f   CuFabric.obj
 0001:0002fd60       ?getNumRestvalues@CuFabric@cloth@nv@@UEBAIXZ 0000000180030d60 f   CuFabric.obj
 0001:0002fd90       ?getNumStiffnessValues@CuFabric@cloth@nv@@UEBAIXZ 0000000180030d90 f   CuFabric.obj
 0001:0002fdc0       ?getNumSets@CuFabric@cloth@nv@@UEBAIXZ 0000000180030dc0 f   CuFabric.obj
 0001:0002fe00       ?getNumIndices@CuFabric@cloth@nv@@UEBAIXZ 0000000180030e00 f   CuFabric.obj
 0001:0002fe30       ?getNumParticles@CuFabric@cloth@nv@@UEBAIXZ 0000000180030e30 f   CuFabric.obj
 0001:0002fe50       ?getNumTethers@CuFabric@cloth@nv@@UEBAIXZ 0000000180030e50 f   CuFabric.obj
 0001:0002fe80       ?getNumTriangles@CuFabric@cloth@nv@@UEBAIXZ 0000000180030e80 f   CuFabric.obj
 0001:0002fec0       ?scaleRestvalues@CuFabric@cloth@nv@@UEAAXM@Z 0000000180030ec0 f   CuFabric.obj
 0001:00030080       ?scaleTetherLengths@CuFabric@cloth@nv@@UEAAXM@Z 0000000180031080 f   CuFabric.obj
 0001:00030580       ??$?0$$CBG@?$CuDevicePointer@$$CBG@cloth@nv@@QEAA@PEBG@Z 0000000180031580 f i CuFabric.obj
 0001:000305b0       ??$?0$$CBM@?$CuDevicePointer@$$CBM@cloth@nv@@QEAA@PEBM@Z 00000001800315b0 f i CuFabric.obj
 0001:000305e0       ??$?0G@?$CuDevicePointer@G@cloth@nv@@QEAA@PEAG@Z 00000001800315e0 f i CuFabric.obj
 0001:00030610       ??$?0I@?$CuDeviceReference@I@cloth@nv@@AEAA@V?$CuDevicePointer@I@12@@Z 0000000180031610 f i CuFabric.obj
 0001:00030650       ??$?0UCuTether@cloth@nv@@@?$CuDevicePointer@UCuTether@cloth@nv@@@cloth@nv@@QEAA@PEAUCuTether@12@@Z 0000000180031650 f i CuFabric.obj
 0001:00030680       ??$?4VNonTrackingAllocator@ps@cloth@nv@@@?$CuDeviceVector@M@cloth@nv@@QEAAAEAV012@AEBV?$Array@MVNonTrackingAllocator@ps@cloth@nv@@@ps@12@@Z 0000000180031680 f i CuFabric.obj
 0001:00030720       ??$PxMax@H@physx@@YAHHH@Z  0000000180031720 f i CuFabric.obj
 0001:00030760       ??$assign@PEAG@?$CuDeviceVector@G@cloth@nv@@QEAAXPEAG0@Z 0000000180031760 f i CuFabric.obj
 0001:00030820       ??$assign@PEAUCuTether@cloth@nv@@@?$CuDeviceVector@UCuTether@cloth@nv@@@cloth@nv@@QEAAXPEAUCuTether@12@0@Z 0000000180031820 f i CuFabric.obj
 0001:000308e0       ??$assign@PEBM@?$CuDeviceVector@M@cloth@nv@@QEAAXPEBM0@Z 00000001800318e0 f i CuFabric.obj
 0001:000309a0       ??$maxElement@I@ps@cloth@nv@@YAPEBIPEBI0@Z 00000001800319a0 f i CuFabric.obj
 0001:00030a20       ??$maxElement@M@ps@cloth@nv@@YAPEBMPEBM0@Z 0000000180031a20 f i CuFabric.obj
 0001:00030ab0       ??0?$Array@GVNonTrackingAllocator@ps@cloth@nv@@@ps@cloth@nv@@QEAA@AEBVNonTrackingAllocator@123@@Z 0000000180031ab0 f i CuFabric.obj
 0001:00030b00       ??0?$Array@UCuTether@cloth@nv@@VNonTrackingAllocator@ps@23@@ps@cloth@nv@@QEAA@AEBVNonTrackingAllocator@123@@Z 0000000180031b00 f i CuFabric.obj
 0001:00030b50       ??0?$Array@V?$CuDevicePointer@$$CBG@cloth@nv@@VNonTrackingAllocator@ps@23@@ps@cloth@nv@@QEAA@AEBVNonTrackingAllocator@123@@Z 0000000180031b50 f i CuFabric.obj
 0001:00030ba0       ??0?$Array@V?$CuDevicePointer@$$CBM@cloth@nv@@VNonTrackingAllocator@ps@23@@ps@cloth@nv@@QEAA@AEBVNonTrackingAllocator@123@@Z 0000000180031ba0 f i CuFabric.obj
 0001:00030bf0       ??0?$CuDevicePointer@$$CBG@cloth@nv@@QEAA@AEBV?$CuDevicePointer@G@12@@Z 0000000180031bf0 f i CuFabric.obj
 0001:00030c30       ??0?$CuDevicePointer@$$CBM@cloth@nv@@QEAA@AEBV?$CuDevicePointer@M@12@@Z 0000000180031c30 f i CuFabric.obj
 0001:00030c70       ??0?$CuDevicePointer@$$CBM@cloth@nv@@QEAA@XZ 0000000180031c70 f i CuFabric.obj
 0001:00030c90       ??0?$CuDevicePointer@G@cloth@nv@@QEAA@XZ 0000000180031c90 f i CuFabric.obj
 0001:00030cb0       ??0?$CuDevicePointer@UCuTether@cloth@nv@@@cloth@nv@@QEAA@XZ 0000000180031cb0 f i CuFabric.obj
 0001:00030cd0       ??0?$CuDeviceVector@G@cloth@nv@@QEAA@PEAUCUctx_st@@@Z 0000000180031cd0 f i CuFabric.obj
 0001:00030db0       ??0?$CuDeviceVector@I@cloth@nv@@QEAA@PEAUCUctx_st@@PEBI1@Z 0000000180031db0 f i CuFabric.obj
 0001:00030eb0       ??0?$CuDeviceVector@M@cloth@nv@@QEAA@PEAUCUctx_st@@PEBM1@Z 0000000180031eb0 f i CuFabric.obj
 0001:00030fb0       ??0?$CuDeviceVector@UCuTether@cloth@nv@@@cloth@nv@@QEAA@PEAUCUctx_st@@@Z 0000000180031fb0 f i CuFabric.obj
 0001:00031090       ??0Fabric@cloth@nv@@IEAA@XZ 0000000180032090 f i CuFabric.obj
 0001:000310d0       ??1?$Array@GVNonTrackingAllocator@ps@cloth@nv@@@ps@cloth@nv@@QEAA@XZ 00000001800320d0 f i CuFabric.obj
 0001:00031150       ??1?$Array@UCuTether@cloth@nv@@VNonTrackingAllocator@ps@23@@ps@cloth@nv@@QEAA@XZ 0000000180032150 f i CuFabric.obj
 0001:000311d0       ??1?$Array@V?$CuDevicePointer@$$CBG@cloth@nv@@VNonTrackingAllocator@ps@23@@ps@cloth@nv@@QEAA@XZ 00000001800321d0 f i CuFabric.obj
 0001:00031250       ??1?$Array@V?$CuDevicePointer@$$CBM@cloth@nv@@VNonTrackingAllocator@ps@23@@ps@cloth@nv@@QEAA@XZ 0000000180032250 f i CuFabric.obj
 0001:000312d0       ??1?$CuDeviceVector@G@cloth@nv@@QEAA@XZ 00000001800322d0 f i CuFabric.obj
 0001:00031320       ??1?$CuDeviceVector@UCuTether@cloth@nv@@@cloth@nv@@QEAA@XZ 0000000180032320 f i CuFabric.obj
 0001:00031370       ??1Fabric@cloth@nv@@MEAA@XZ 0000000180032370 f i CuFabric.obj
 0001:00031400       ??4?$CuDeviceReference@I@cloth@nv@@QEAAAEAV012@AEBI@Z 0000000180032400 f i CuFabric.obj
 0001:00031460       ??A?$CuDevicePointer@I@cloth@nv@@QEBA?AV?$CuDeviceReference@I@12@AEB_J@Z 0000000180032460 f i CuFabric.obj
 0001:000314c0       ??D?$CuDevicePointer@I@cloth@nv@@QEBA?AV?$CuDeviceReference@I@12@XZ 00000001800324c0 f i CuFabric.obj
 0001:00031510       ??E?$CuDevicePointer@I@cloth@nv@@QEAA?AV012@H@Z 0000000180032510 f i CuFabric.obj
 0001:000315a0       ??E?$CuDevicePointer@I@cloth@nv@@QEAAAEAV012@XZ 00000001800325a0 f i CuFabric.obj
 0001:000315d0       ??H?$CuDevicePointer@$$CBG@cloth@nv@@QEBA?AV012@AEB_J@Z 00000001800325d0 f i CuFabric.obj
 0001:00031620       ??H?$CuDevicePointer@$$CBM@cloth@nv@@QEBA?AV012@AEB_J@Z 0000000180032620 f i CuFabric.obj
 0001:00031670       ??H?$CuDevicePointer@G@cloth@nv@@QEBA?AV012@AEB_J@Z 0000000180032670 f i CuFabric.obj
 0001:000316c0       ??H?$CuDevicePointer@UCuTether@cloth@nv@@@cloth@nv@@QEBA?AV012@AEB_J@Z 00000001800326c0 f i CuFabric.obj
 0001:00031710       ??Y?$CuDevicePointer@I@cloth@nv@@QEAAAEAV012@_J@Z 0000000180032710 f i CuFabric.obj
 0001:00031750       ??_ECuFabric@cloth@nv@@UEAAPEAXI@Z 0000000180032750 f i CuFabric.obj
 0001:00031750       ??_GCuFabric@cloth@nv@@UEAAPEAXI@Z 0000000180032750 f i CuFabric.obj
 0001:000317c0       ??_EFabric@cloth@nv@@MEAAPEAXI@Z 00000001800327c0 f i CuFabric.obj
 0001:000317c0       ??_GFabric@cloth@nv@@MEAAPEAXI@Z 00000001800327c0 f i CuFabric.obj
 0001:00031830       ?allocate@?$Array@GVNonTrackingAllocator@ps@cloth@nv@@@ps@cloth@nv@@IEAAPEAGI@Z 0000000180032830 f i CuFabric.obj
 0001:000318e0       ?allocate@?$Array@PEAVCuFabric@cloth@nv@@VNonTrackingAllocator@ps@23@@ps@cloth@nv@@IEAAPEAPEAVCuFabric@34@I@Z 00000001800328e0 f i CuFabric.obj
 0001:00031990       ?allocate@?$Array@UCuTether@cloth@nv@@VNonTrackingAllocator@ps@23@@ps@cloth@nv@@IEAAPEAUCuTether@34@I@Z 0000000180032990 f i CuFabric.obj
 0001:00031a40       ?allocate@?$Array@V?$CuDevicePointer@$$CBG@cloth@nv@@VNonTrackingAllocator@ps@23@@ps@cloth@nv@@IEAAPEAV?$CuDevicePointer@$$CBG@34@I@Z 0000000180032a40 f i CuFabric.obj
 0001:00031af0       ?allocate@?$Array@V?$CuDevicePointer@$$CBM@cloth@nv@@VNonTrackingAllocator@ps@23@@ps@cloth@nv@@IEAAPEAV?$CuDevicePointer@$$CBM@34@I@Z 0000000180032af0 f i CuFabric.obj
 0001:00031ba0       ?back@?$Range@$$CBI@cloth@nv@@QEBAAEBIXZ 0000000180032ba0 f i CuFabric.obj
 0001:00031c40       ?begin@?$Array@GVNonTrackingAllocator@ps@cloth@nv@@@ps@cloth@nv@@QEAAPEAGXZ 0000000180032c40 f i CuFabric.obj
 0001:00031c60       ?begin@?$Array@UCuTether@cloth@nv@@VNonTrackingAllocator@ps@23@@ps@cloth@nv@@QEAAPEAUCuTether@34@XZ 0000000180032c60 f i CuFabric.obj
 0001:00031c80       ?begin@?$Range@$$CBM@cloth@nv@@QEBAPEBMXZ 0000000180032c80 f i CuFabric.obj
 0001:00031ca0       ?capacity@?$Array@GVNonTrackingAllocator@ps@cloth@nv@@@ps@cloth@nv@@QEBAIXZ 0000000180032ca0 f i CuFabric.obj
 0001:00031cc0       ?capacity@?$Array@PEAVCuFabric@cloth@nv@@VNonTrackingAllocator@ps@23@@ps@cloth@nv@@QEBAIXZ 0000000180032cc0 f i CuFabric.obj
 0001:00031ce0       ?capacity@?$Array@UCuTether@cloth@nv@@VNonTrackingAllocator@ps@23@@ps@cloth@nv@@QEBAIXZ 0000000180032ce0 f i CuFabric.obj
 0001:00031d00       ?capacity@?$Array@V?$CuDevicePointer@$$CBG@cloth@nv@@VNonTrackingAllocator@ps@23@@ps@cloth@nv@@QEBAIXZ 0000000180032d00 f i CuFabric.obj
 0001:00031d20       ?capacity@?$Array@V?$CuDevicePointer@$$CBM@cloth@nv@@VNonTrackingAllocator@ps@23@@ps@cloth@nv@@QEBAIXZ 0000000180032d20 f i CuFabric.obj
 0001:00031d40       ?capacity@?$CuDeviceVector@G@cloth@nv@@QEBA_KXZ 0000000180032d40 f i CuFabric.obj
 0001:00031d80       ?capacity@?$CuDeviceVector@UCuTether@cloth@nv@@@cloth@nv@@QEBA_KXZ 0000000180032d80 f i CuFabric.obj
 0001:00031dc0       ?capacityIncrement@?$Array@IVNonTrackingAllocator@ps@cloth@nv@@@ps@cloth@nv@@IEBAIXZ 0000000180032dc0 f i CuFabric.obj
 0001:00031e10       ?capacityIncrement@?$Array@PEAVCuFabric@cloth@nv@@VNonTrackingAllocator@ps@23@@ps@cloth@nv@@IEBAIXZ 0000000180032e10 f i CuFabric.obj
 0001:00031e60       ?capacityIncrement@?$Array@UCuTether@cloth@nv@@VNonTrackingAllocator@ps@23@@ps@cloth@nv@@IEBAIXZ 0000000180032e60 f i CuFabric.obj
 0001:00031eb0       ?capacityIncrement@?$Array@V?$CuDevicePointer@$$CBG@cloth@nv@@VNonTrackingAllocator@ps@23@@ps@cloth@nv@@IEBAIXZ 0000000180032eb0 f i CuFabric.obj
 0001:00031f00       ?capacityIncrement@?$Array@V?$CuDevicePointer@$$CBM@cloth@nv@@VNonTrackingAllocator@ps@23@@ps@cloth@nv@@IEBAIXZ 0000000180032f00 f i CuFabric.obj
 0001:00031f50       ?copy@?$Array@GVNonTrackingAllocator@ps@cloth@nv@@@ps@cloth@nv@@KAXPEAG0PEBG@Z 0000000180032f50 f i CuFabric.obj
 0001:00031ff0       ?copy@?$Array@PEAVCuFabric@cloth@nv@@VNonTrackingAllocator@ps@23@@ps@cloth@nv@@KAXPEAPEAVCuFabric@34@0PEBQEAV534@@Z 0000000180032ff0 f i CuFabric.obj
 0001:00032090       ?copy@?$Array@UCuTether@cloth@nv@@VNonTrackingAllocator@ps@23@@ps@cloth@nv@@KAXPEAUCuTether@34@0PEBU534@@Z 0000000180033090 f i CuFabric.obj
 0001:00032130       ?copy@?$Array@V?$CuDevicePointer@$$CBG@cloth@nv@@VNonTrackingAllocator@ps@23@@ps@cloth@nv@@KAXPEAV?$CuDevicePointer@$$CBG@34@0PEBV534@@Z 0000000180033130 f i CuFabric.obj
 0001:000321d0       ?copy@?$Array@V?$CuDevicePointer@$$CBM@cloth@nv@@VNonTrackingAllocator@ps@23@@ps@cloth@nv@@KAXPEAV?$CuDevicePointer@$$CBM@34@0PEBV534@@Z 00000001800331d0 f i CuFabric.obj
 0001:00032270       ?deallocate@?$Array@GVNonTrackingAllocator@ps@cloth@nv@@@ps@cloth@nv@@IEAAXPEAX@Z 0000000180033270 f i CuFabric.obj
 0001:000322a0       ?deallocate@?$Array@PEAVCuFabric@cloth@nv@@VNonTrackingAllocator@ps@23@@ps@cloth@nv@@IEAAXPEAX@Z 00000001800332a0 f i CuFabric.obj
 0001:000322d0       ?deallocate@?$Array@UCuTether@cloth@nv@@VNonTrackingAllocator@ps@23@@ps@cloth@nv@@IEAAXPEAX@Z 00000001800332d0 f i CuFabric.obj
 0001:00032300       ?deallocate@?$Array@V?$CuDevicePointer@$$CBG@cloth@nv@@VNonTrackingAllocator@ps@23@@ps@cloth@nv@@IEAAXPEAX@Z 0000000180033300 f i CuFabric.obj
 0001:00032330       ?deallocate@?$Array@V?$CuDevicePointer@$$CBM@cloth@nv@@VNonTrackingAllocator@ps@23@@ps@cloth@nv@@IEAAXPEAX@Z 0000000180033330 f i CuFabric.obj
 0001:00032360       ?destroy@?$Array@GVNonTrackingAllocator@ps@cloth@nv@@@ps@cloth@nv@@KAXPEAG0@Z 0000000180033360 f i CuFabric.obj
 0001:000323a0       ?destroy@?$Array@PEAVCuFabric@cloth@nv@@VNonTrackingAllocator@ps@23@@ps@cloth@nv@@KAXPEAPEAVCuFabric@34@0@Z 00000001800333a0 f i CuFabric.obj
 0001:000323e0       ?destroy@?$Array@UCuTether@cloth@nv@@VNonTrackingAllocator@ps@23@@ps@cloth@nv@@KAXPEAUCuTether@34@0@Z 00000001800333e0 f i CuFabric.obj
 0001:00032420       ?destroy@?$Array@V?$CuDevicePointer@$$CBG@cloth@nv@@VNonTrackingAllocator@ps@23@@ps@cloth@nv@@KAXPEAV?$CuDevicePointer@$$CBG@34@0@Z 0000000180033420 f i CuFabric.obj
 0001:00032460       ?destroy@?$Array@V?$CuDevicePointer@$$CBM@cloth@nv@@VNonTrackingAllocator@ps@23@@ps@cloth@nv@@KAXPEAV?$CuDevicePointer@$$CBM@34@0@Z 0000000180033460 f i CuFabric.obj
 0001:000324a0       ?dev@?$CuDevicePointer@G@cloth@nv@@QEBA_KXZ 00000001800334a0 f i CuFabric.obj
 0001:000324c0       ?dev@?$CuDevicePointer@UCuTether@cloth@nv@@@cloth@nv@@QEBA_KXZ 00000001800334c0 f i CuFabric.obj
 0001:000324e0       ?empty@?$Range@$$CBI@cloth@nv@@QEBA_NXZ 00000001800334e0 f i CuFabric.obj
 0001:00032530       ?empty@?$Range@$$CBM@cloth@nv@@QEBA_NXZ 0000000180033530 f i CuFabric.obj
 0001:00032580       ?end@?$Array@GVNonTrackingAllocator@ps@cloth@nv@@@ps@cloth@nv@@QEAAPEAGXZ 0000000180033580 f i CuFabric.obj
 0001:000325b0       ?end@?$Array@MVNonTrackingAllocator@ps@cloth@nv@@@ps@cloth@nv@@QEAAPEAMXZ 00000001800335b0 f i CuFabric.obj
 0001:000325e0       ?end@?$Array@UCuTether@cloth@nv@@VNonTrackingAllocator@ps@23@@ps@cloth@nv@@QEAAPEAUCuTether@34@XZ 00000001800335e0 f i CuFabric.obj
 0001:00032610       ?end@?$CuDeviceVector@M@cloth@nv@@QEAA?AV?$CuDevicePointer@M@23@XZ 0000000180033610 f i CuFabric.obj
 0001:00032650       ?end@?$Range@$$CBM@cloth@nv@@QEBAPEBMXZ 0000000180033650 f i CuFabric.obj
 0001:00032670       ?find@?$Array@PEAVCuFabric@cloth@nv@@VNonTrackingAllocator@ps@23@@ps@cloth@nv@@QEAAPEAPEAVCuFabric@34@AEBQEAV534@@Z 0000000180033670 f i CuFabric.obj
 0001:000326f0       ?front@?$Array@MVNonTrackingAllocator@ps@cloth@nv@@@ps@cloth@nv@@QEBAAEBMXZ 00000001800336f0 f i CuFabric.obj
 0001:00032780       ?front@?$Range@$$CBI@cloth@nv@@QEBAAEBIXZ 0000000180033780 f i CuFabric.obj
 0001:00032810       ?front@?$Range@$$CBM@cloth@nv@@QEBAAEBMXZ 0000000180033810 f i CuFabric.obj
 0001:000328a0       ?grow@?$Array@GVNonTrackingAllocator@ps@cloth@nv@@@ps@cloth@nv@@IEAAXI@Z 00000001800338a0 f i CuFabric.obj
 0001:00032940       ?grow@?$Array@UCuTether@cloth@nv@@VNonTrackingAllocator@ps@23@@ps@cloth@nv@@IEAAXI@Z 0000000180033940 f i CuFabric.obj
 0001:000329e0       ?growAndPushBack@?$Array@IVNonTrackingAllocator@ps@cloth@nv@@@ps@cloth@nv@@IEAAAEAIAEBI@Z 00000001800339e0 f i CuFabric.obj
 0001:00032bd0       ?growAndPushBack@?$Array@PEAVCuFabric@cloth@nv@@VNonTrackingAllocator@ps@23@@ps@cloth@nv@@IEAAAEAPEAVCuFabric@34@AEBQEAV534@@Z 0000000180033bd0 f i CuFabric.obj
 0001:00032dc0       ?growAndPushBack@?$Array@UCuTether@cloth@nv@@VNonTrackingAllocator@ps@23@@ps@cloth@nv@@IEAAAEAUCuTether@34@AEBU534@@Z 0000000180033dc0 f i CuFabric.obj
 0001:00032fb0       ?growAndPushBack@?$Array@V?$CuDevicePointer@$$CBG@cloth@nv@@VNonTrackingAllocator@ps@23@@ps@cloth@nv@@IEAAAEAV?$CuDevicePointer@$$CBG@34@AEBV534@@Z 0000000180033fb0 f i CuFabric.obj
 0001:000331a0       ?growAndPushBack@?$Array@V?$CuDevicePointer@$$CBM@cloth@nv@@VNonTrackingAllocator@ps@23@@ps@cloth@nv@@IEAAAEAV?$CuDevicePointer@$$CBM@34@AEBV534@@Z 00000001800341a0 f i CuFabric.obj
 0001:00033390       ?isInUserMemory@?$Array@GVNonTrackingAllocator@ps@cloth@nv@@@ps@cloth@nv@@QEBAIXZ 0000000180034390 f i CuFabric.obj
 0001:000333b0       ?isInUserMemory@?$Array@PEAVCuFabric@cloth@nv@@VNonTrackingAllocator@ps@23@@ps@cloth@nv@@QEBAIXZ 00000001800343b0 f i CuFabric.obj
 0001:000333d0       ?isInUserMemory@?$Array@UCuTether@cloth@nv@@VNonTrackingAllocator@ps@23@@ps@cloth@nv@@QEBAIXZ 00000001800343d0 f i CuFabric.obj
 0001:000333f0       ?isInUserMemory@?$Array@V?$CuDevicePointer@$$CBG@cloth@nv@@VNonTrackingAllocator@ps@23@@ps@cloth@nv@@QEBAIXZ 00000001800343f0 f i CuFabric.obj
 0001:00033410       ?isInUserMemory@?$Array@V?$CuDevicePointer@$$CBM@cloth@nv@@VNonTrackingAllocator@ps@23@@ps@cloth@nv@@QEBAIXZ 0000000180034410 f i CuFabric.obj
 0001:00033430       ?popFront@?$Range@$$CBI@cloth@nv@@QEAAXXZ 0000000180034430 f i CuFabric.obj
 0001:000334d0       ?popFront@?$Range@$$CBM@cloth@nv@@QEAAXXZ 00000001800344d0 f i CuFabric.obj
 0001:00033570       ?pushBack@?$Array@IVNonTrackingAllocator@ps@cloth@nv@@@ps@cloth@nv@@QEAAAEAIAEBI@Z 0000000180034570 f i CuFabric.obj
 0001:00033640       ?pushBack@?$Array@PEAVCuFabric@cloth@nv@@VNonTrackingAllocator@ps@23@@ps@cloth@nv@@QEAAAEAPEAVCuFabric@34@AEBQEAV534@@Z 0000000180034640 f i CuFabric.obj
 0001:00033710       ?pushBack@?$Array@UCuTether@cloth@nv@@VNonTrackingAllocator@ps@23@@ps@cloth@nv@@QEAAAEAUCuTether@34@AEBU534@@Z 0000000180034710 f i CuFabric.obj
 0001:000337e0       ?pushBack@?$Array@V?$CuDevicePointer@$$CBG@cloth@nv@@VNonTrackingAllocator@ps@23@@ps@cloth@nv@@QEAAAEAV?$CuDevicePointer@$$CBG@34@AEBV534@@Z 00000001800347e0 f i CuFabric.obj
 0001:000338b0       ?pushBack@?$Array@V?$CuDevicePointer@$$CBM@cloth@nv@@VNonTrackingAllocator@ps@23@@ps@cloth@nv@@QEAAAEAV?$CuDevicePointer@$$CBM@34@AEBV534@@Z 00000001800348b0 f i CuFabric.obj
 0001:00033980       ?push_back@?$CuDeviceVector@I@cloth@nv@@QEAAXAEBI@Z 0000000180034980 f i CuFabric.obj
 0001:00033a50       ?push_back@?$CuDeviceVector@I@cloth@nv@@QEAAXPEBI0@Z 0000000180034a50 f i CuFabric.obj
 0001:00033be0       ?recreate@?$Array@GVNonTrackingAllocator@ps@cloth@nv@@@ps@cloth@nv@@IEAAXI@Z 0000000180034be0 f i CuFabric.obj
 0001:00033d40       ?recreate@?$Array@UCuTether@cloth@nv@@VNonTrackingAllocator@ps@23@@ps@cloth@nv@@IEAAXI@Z 0000000180034d40 f i CuFabric.obj
 0001:00033ea0       ?replaceWithLast@?$Array@PEAVCuFabric@cloth@nv@@VNonTrackingAllocator@ps@23@@ps@cloth@nv@@QEAAXI@Z 0000000180034ea0 f i CuFabric.obj
 0001:00033f70       ?replaceWithLast@?$Array@PEAVCuFabric@cloth@nv@@VNonTrackingAllocator@ps@23@@ps@cloth@nv@@QEAAXPEAPEAVCuFabric@34@@Z 0000000180034f70 f i CuFabric.obj
 0001:00033fc0       ?reserve@?$Array@GVNonTrackingAllocator@ps@cloth@nv@@@ps@cloth@nv@@QEAAXI@Z 0000000180034fc0 f i CuFabric.obj
 0001:00034000       ?reserve@?$Array@UCuTether@cloth@nv@@VNonTrackingAllocator@ps@23@@ps@cloth@nv@@QEAAXI@Z 0000000180035000 f i CuFabric.obj
 0001:00034040       ?reserve@?$CuDeviceVector@G@cloth@nv@@QEAAX_K@Z 0000000180035040 f i CuFabric.obj
 0001:00034230       ?reserve@?$CuDeviceVector@UCuTether@cloth@nv@@@cloth@nv@@QEAAX_K@Z 0000000180035230 f i CuFabric.obj
 0001:00034420       ?resize@?$CuDeviceVector@G@cloth@nv@@QEAAX_K@Z 0000000180035420 f i CuFabric.obj
 0001:000344d0       ?resize@?$CuDeviceVector@UCuTether@cloth@nv@@@cloth@nv@@QEAAX_K@Z 00000001800354d0 f i CuFabric.obj
 0001:00034580       ?resizeUninitialized@?$Array@GVNonTrackingAllocator@ps@cloth@nv@@@ps@cloth@nv@@QEAAXI@Z 0000000180035580 f i CuFabric.obj
 0001:000345c0       ?size@?$Range@$$CBM@cloth@nv@@QEBAIXZ 00000001800355c0 f i CuFabric.obj
 0001:000345f0       ??0CuFactory@cloth@nv@@QEAA@PEAUCUctx_st@@@Z 00000001800355f0 f   CuFactory.obj
 0001:000346b0       ??1CuFactory@cloth@nv@@UEAA@XZ 00000001800356b0 f   CuFactory.obj
 0001:000347a0       ?createFabric@CuFactory@cloth@nv@@UEAAPEAVFabric@23@IU?$Range@$$CBI@23@0U?$Range@$$CBM@23@10010@Z 00000001800357a0 f   CuFactory.obj
 0001:00034970       ?createCloth@CuFactory@cloth@nv@@UEAAPEAVCloth@23@U?$Range@$$CBVPxVec4@physx@@@23@AEAVFabric@23@@Z 0000000180035970 f   CuFactory.obj
 0001:00034a10       ?createSolver@CuFactory@cloth@nv@@UEAAPEAVSolver@23@XZ 0000000180035a10 f   CuFactory.obj
 0001:00034ae0       ?extractFabricData@CuFactory@cloth@nv@@UEBAXAEBVFabric@23@U?$Range@I@23@1U?$Range@M@23@21121@Z 0000000180035ae0 f   CuFactory.obj
 0001:00035480       ?extractCollisionData@CuFactory@cloth@nv@@UEBAXAEBVCloth@23@U?$Range@VPxVec4@physx@@@23@U?$Range@I@23@12U?$Range@VPxVec3@physx@@@23@@Z 0000000180036480 f   CuFactory.obj
 0001:00035aa0       ?extractMotionConstraints@CuFactory@cloth@nv@@UEBAXAEBVCloth@23@U?$Range@VPxVec4@physx@@@23@@Z 0000000180036aa0 f   CuFactory.obj
 0001:00035dd0       ?extractSeparationConstraints@CuFactory@cloth@nv@@UEBAXAEBVCloth@23@U?$Range@VPxVec4@physx@@@23@@Z 0000000180036dd0 f   CuFactory.obj
 0001:00036100       ?extractParticleAccelerations@CuFactory@cloth@nv@@UEBAXAEBVCloth@23@U?$Range@VPxVec4@physx@@@23@@Z 0000000180037100 f   CuFactory.obj
 0001:00036280       ?extractVirtualParticles@CuFactory@cloth@nv@@UEBAXAEBVCloth@23@U?$Range@$$BY03I@23@U?$Range@VPxVec3@physx@@@23@@Z 0000000180037280 f   CuFactory.obj
 0001:000367b0       ?extractSelfCollisionIndices@CuFactory@cloth@nv@@UEBAXAEBVCloth@23@U?$Range@I@23@@Z 00000001800377b0 f   CuFactory.obj
 0001:000368d0       ?extractRestPositions@CuFactory@cloth@nv@@UEBAXAEBVCloth@23@U?$Range@VPxVec4@physx@@@23@@Z 00000001800378d0 f   CuFactory.obj
 0001:000369f0       ?copyToHost@CuFactory@cloth@nv@@QEBAXPEBX0PEAX@Z 00000001800379f0 f   CuFactory.obj
 0001:00036a90       ?checkSuccessImpl@cloth@nv@@YAXW4cudaError_enum@@PEBDH@Z 0000000180037a90 f   CuFactory.obj
 0001:00037c30       ??$?0G@?$Vec4T@I@cloth@nv@@QEAA@AEBU?$Vec4T@G@12@@Z 0000000180038c30 f i CuFactory.obj
 0001:00037ca0       ??0?$Array@PEAVCuFabric@cloth@nv@@VNonTrackingAllocator@ps@23@@ps@cloth@nv@@QEAA@AEBVNonTrackingAllocator@123@@Z 0000000180038ca0 f i CuFactory.obj
 0001:00037cf0       ??0?$Array@U?$Vec4T@G@cloth@nv@@VNonTrackingAllocator@ps@23@@ps@cloth@nv@@QEAA@IAEBU?$Vec4T@G@23@AEBVNonTrackingAllocator@123@@Z 0000000180038cf0 f i CuFactory.obj
 0001:00037d70       ??0?$Array@UCuTether@cloth@nv@@VNonTrackingAllocator@ps@23@@ps@cloth@nv@@QEAA@IAEBUCuTether@23@AEBVNonTrackingAllocator@123@@Z 0000000180038d70 f i CuFactory.obj
 0001:00037df0       ??0?$CuDevicePointer@$$CBI@cloth@nv@@QEAA@AEBV?$CuDevicePointer@I@12@@Z 0000000180038df0 f i CuFactory.obj
 0001:00037e30       ??0?$CuDevicePointer@$$CBU?$Vec4T@G@cloth@nv@@@cloth@nv@@QEAA@AEBV?$CuDevicePointer@U?$Vec4T@G@cloth@nv@@@12@@Z 0000000180038e30 f i CuFactory.obj
 0001:00037e70       ??0?$CuDevicePointer@$$CBUCuTether@cloth@nv@@@cloth@nv@@QEAA@AEBV?$CuDevicePointer@UCuTether@cloth@nv@@@12@@Z 0000000180038e70 f i CuFactory.obj
 0001:00037eb0       ??0?$CuDevicePointer@$$CBVPxVec4@physx@@@cloth@nv@@QEAA@AEBV?$CuDevicePointer@VPxVec4@physx@@@12@@Z 0000000180038eb0 f i CuFactory.obj
 0001:00037ef0       ??0?$Vec4T@G@cloth@nv@@QEAA@XZ 0000000180038ef0 f i CuFactory.obj
 0001:00037f00       ??0Factory@cloth@nv@@IEAA@XZ 0000000180038f00 f i CuFactory.obj
 0001:00037f30       ??1?$Array@PEAVCuFabric@cloth@nv@@VNonTrackingAllocator@ps@23@@ps@cloth@nv@@QEAA@XZ 0000000180038f30 f i CuFactory.obj
 0001:00037fb0       ??1Factory@cloth@nv@@MEAA@XZ 0000000180038fb0 f i CuFactory.obj
 0001:00037fd0       ??A?$Array@UCuTether@cloth@nv@@VNonTrackingAllocator@ps@23@@ps@cloth@nv@@QEAAAEAUCuTether@23@I@Z 0000000180038fd0 f i CuFactory.obj
 0001:00038070       ??A?$Range@I@cloth@nv@@QEBAAEAII@Z 0000000180039070 f i CuFactory.obj
 0001:00038120       ??_ECuFactory@cloth@nv@@UEAAPEAXI@Z 0000000180039120 f i CuFactory.obj
 0001:00038120       ??_GCuFactory@cloth@nv@@UEAAPEAXI@Z 0000000180039120 f i CuFactory.obj
 0001:00038190       ??_EFactory@cloth@nv@@MEAAPEAXI@Z 0000000180039190 f i CuFactory.obj
 0001:00038190       ??_GFactory@cloth@nv@@MEAAPEAXI@Z 0000000180039190 f i CuFactory.obj
 0001:00038200       ?begin@?$Array@U?$Vec4T@G@cloth@nv@@VNonTrackingAllocator@ps@23@@ps@cloth@nv@@QEAAPEAU?$Vec4T@G@34@XZ 0000000180039200 f i CuFactory.obj
 0001:00038220       ?begin@?$CuDeviceVector@G@cloth@nv@@QEBA?AV?$CuDevicePointer@$$CBG@23@XZ 0000000180039220 f i CuFactory.obj
 0001:00038260       ?begin@?$CuDeviceVector@I@cloth@nv@@QEBA?AV?$CuDevicePointer@$$CBI@23@XZ 0000000180039260 f i CuFactory.obj
 0001:000382a0       ?begin@?$CuDeviceVector@M@cloth@nv@@QEBA?AV?$CuDevicePointer@$$CBM@23@XZ 00000001800392a0 f i CuFactory.obj
 0001:000382e0       ?begin@?$CuDeviceVector@U?$Vec4T@G@cloth@nv@@@cloth@nv@@QEBA?AV?$CuDevicePointer@$$CBU?$Vec4T@G@cloth@nv@@@23@XZ 00000001800392e0 f i CuFactory.obj
 0001:00038320       ?begin@?$CuDeviceVector@UCuTether@cloth@nv@@@cloth@nv@@QEBA?AV?$CuDevicePointer@$$CBUCuTether@cloth@nv@@@23@XZ 0000000180039320 f i CuFactory.obj
 0001:00038360       ?begin@?$CuDeviceVector@VPxVec4@physx@@@cloth@nv@@QEBA?AV?$CuDevicePointer@$$CBVPxVec4@physx@@@23@XZ 0000000180039360 f i CuFactory.obj
 0001:000383a0       ?create@?$Array@U?$Vec4T@G@cloth@nv@@VNonTrackingAllocator@ps@23@@ps@cloth@nv@@KAXPEAU?$Vec4T@G@34@0AEBU534@@Z 00000001800393a0 f i CuFactory.obj
 0001:00038420       ?create@?$Array@UCuTether@cloth@nv@@VNonTrackingAllocator@ps@23@@ps@cloth@nv@@KAXPEAUCuTether@34@0AEBU534@@Z 0000000180039420 f i CuFactory.obj
 0001:00038490       ?empty@?$Range@I@cloth@nv@@QEBA_NXZ 0000000180039490 f i CuFactory.obj
 0001:000384e0       ?empty@?$Range@M@cloth@nv@@QEBA_NXZ 00000001800394e0 f i CuFactory.obj
 0001:00038530       ?empty@?$Range@VPxVec3@physx@@@cloth@nv@@QEBA_NXZ 0000000180039530 f i CuFactory.obj
 0001:00038580       ?empty@?$Range@VPxVec4@physx@@@cloth@nv@@QEBA_NXZ 0000000180039580 f i CuFactory.obj
 0001:000385d0       ?end@?$CuDeviceVector@I@cloth@nv@@QEBA?AV?$CuDevicePointer@$$CBI@23@XZ 00000001800395d0 f i CuFactory.obj
 0001:00038610       ?end@?$CuDeviceVector@U?$Vec4T@G@cloth@nv@@@cloth@nv@@QEBA?AV?$CuDevicePointer@$$CBU?$Vec4T@G@cloth@nv@@@23@XZ 0000000180039610 f i CuFactory.obj
 0001:00038650       ?end@?$CuDeviceVector@VPxVec4@physx@@@cloth@nv@@QEBA?AV?$CuDevicePointer@$$CBVPxVec4@physx@@@23@XZ 0000000180039650 f i CuFactory.obj
 0001:00038690       ?front@?$Array@IV?$CuHostAllocator@I$01@cloth@nv@@@ps@cloth@nv@@QEBAAEBIXZ 0000000180039690 f i CuFactory.obj
 0001:00038730       ?front@?$Array@U?$Vec4T@G@cloth@nv@@VNonTrackingAllocator@ps@23@@ps@cloth@nv@@QEAAAEAU?$Vec4T@G@34@XZ 0000000180039730 f i CuFactory.obj
 0001:000387c0       ?front@?$Array@UIndexPair@cloth@nv@@V?$CuHostAllocator@UIndexPair@cloth@nv@@$01@23@@ps@cloth@nv@@QEBAAEBUIndexPair@34@XZ 00000001800397c0 f i CuFactory.obj
 0001:00038860       ?front@?$Array@VPxVec3@physx@@V?$CuHostAllocator@VPxVec3@physx@@$01@cloth@nv@@@ps@cloth@nv@@QEBAAEBVPxVec3@physx@@XZ 0000000180039860 f i CuFactory.obj
 0001:00038900       ?front@?$Array@VPxVec4@physx@@V?$CuHostAllocator@VPxVec4@physx@@$01@cloth@nv@@@ps@cloth@nv@@QEBAAEBVPxVec4@physx@@XZ 0000000180039900 f i CuFactory.obj
 0001:000389a0       ?front@?$Range@I@cloth@nv@@QEBAAEAIXZ 00000001800399a0 f i CuFactory.obj
 0001:00038a30       ?front@?$Range@M@cloth@nv@@QEBAAEAMXZ 0000000180039a30 f i CuFactory.obj
 0001:00038ac0       ?get@?$CuDevicePointer@$$CBI@cloth@nv@@QEBAPEBIXZ 0000000180039ac0 f i CuFactory.obj
 0001:00038ae0       ?get@?$CuDevicePointer@$$CBU?$Vec4T@G@cloth@nv@@@cloth@nv@@QEBAPEBU?$Vec4T@G@23@XZ 0000000180039ae0 f i CuFactory.obj
 0001:00038b00       ?get@?$CuDevicePointer@$$CBUCuTether@cloth@nv@@@cloth@nv@@QEBAPEBUCuTether@23@XZ 0000000180039b00 f i CuFactory.obj
 0001:00038b20       ?get@?$CuDevicePointer@$$CBVPxVec4@physx@@@cloth@nv@@QEBAPEBVPxVec4@physx@@XZ 0000000180039b20 f i CuFactory.obj
 0001:00038b40       ?getPlatform@CuFactory@cloth@nv@@UEBA?AW4Platform@23@XZ 0000000180039b40 f i CuFactory.obj
 0001:00038b50       ?popFront@?$Range@I@cloth@nv@@QEAAXXZ 0000000180039b50 f i CuFactory.obj
 0001:00038bf0       ?popFront@?$Range@M@cloth@nv@@QEAAXXZ 0000000180039bf0 f i CuFactory.obj
 0001:00038c90       ?resize@?$Array@U?$Vec4T@G@cloth@nv@@VNonTrackingAllocator@ps@23@@ps@cloth@nv@@QEAAXIAEBU?$Vec4T@G@34@@Z 0000000180039c90 f i CuFactory.obj
 0001:00038d50       ?resize@?$Array@UCuTether@cloth@nv@@VNonTrackingAllocator@ps@23@@ps@cloth@nv@@QEAAXIAEBUCuTether@34@@Z 0000000180039d50 f i CuFactory.obj
 0001:00038e10       ?size@?$Array@PEAVCuFabric@cloth@nv@@VNonTrackingAllocator@ps@23@@ps@cloth@nv@@QEBAIXZ 0000000180039e10 f i CuFactory.obj
 0001:00038e30       ?size@?$Array@UCuTether@cloth@nv@@VNonTrackingAllocator@ps@23@@ps@cloth@nv@@QEBAIXZ 0000000180039e30 f i CuFactory.obj
 0001:00038e50       ?size@?$Range@$$BY03I@cloth@nv@@QEBAIXZ 0000000180039e50 f i CuFactory.obj
 0001:00038e80       ?size@?$Range@I@cloth@nv@@QEBAIXZ 0000000180039e80 f i CuFactory.obj
 0001:00038eb0       ?size@?$Range@M@cloth@nv@@QEBAIXZ 0000000180039eb0 f i CuFactory.obj
 0001:00038ee0       ?size@?$Range@VPxVec3@physx@@@cloth@nv@@QEBAIXZ 0000000180039ee0 f i CuFactory.obj
 0001:00038f10       ?size@?$Range@VPxVec4@physx@@@cloth@nv@@QEBAIXZ 0000000180039f10 f i CuFactory.obj
 0001:00038fc0       ?getKernelFunctionName@cloth@nv@@YAPEBDXZ 0000000180039fc0 f   CuSolver.obj
 0001:00038fe0       ??0CuSolver@cloth@nv@@QEAA@AEAVCuFactory@12@@Z 0000000180039fe0 f   CuSolver.obj
 0001:00039450       ??1CuSolver@cloth@nv@@UEAA@XZ 000000018003a450 f   CuSolver.obj
 0001:00039640       ?addCloth@CuSolver@cloth@nv@@UEAAXPEAVCloth@23@@Z 000000018003a640 f   CuSolver.obj
 0001:00039680       ?addCloths@CuSolver@cloth@nv@@UEAAXU?$Range@PEAVCloth@cloth@nv@@@23@@Z 000000018003a680 f   CuSolver.obj
 0001:000396f0       ?removeCloth@CuSolver@cloth@nv@@UEAAXPEAVCloth@23@@Z 000000018003a6f0 f   CuSolver.obj
 0001:000397f0       ?getNumCloths@CuSolver@cloth@nv@@UEBAHXZ 000000018003a7f0 f   CuSolver.obj
 0001:00039820       ?getClothList@CuSolver@cloth@nv@@UEBAPEBQEAVCloth@23@XZ 000000018003a820 f   CuSolver.obj
 0001:00039870       ?beginSimulation@CuSolver@cloth@nv@@UEAA_NM@Z 000000018003a870 f   CuSolver.obj
 0001:000398d0       ?simulateChunk@CuSolver@cloth@nv@@UEAAXH@Z 000000018003a8d0 f   CuSolver.obj
 0001:000399b0       ?endSimulation@CuSolver@cloth@nv@@UEAAXXZ 000000018003a9b0 f   CuSolver.obj
 0001:00039a30       ?getSimulationChunkCount@CuSolver@cloth@nv@@UEBAHXZ 000000018003aa30 f   CuSolver.obj
 0001:00039a70       ?addClothAppend@CuSolver@cloth@nv@@AEAAXPEAVCloth@23@@Z 000000018003aa70 f   CuSolver.obj
 0001:00039b50       ?addClothUpdateData@CuSolver@cloth@nv@@AEAAXXZ 000000018003ab50 f   CuSolver.obj
 0001:00039c80       ?updateKernelData@CuSolver@cloth@nv@@AEAAXXZ 000000018003ac80 f   CuSolver.obj
 0001:00039d30       ?beginFrame@CuSolver@cloth@nv@@AEAAXXZ 000000018003ad30 f   CuSolver.obj
 0001:0003a6b0       ?KernelFinished@CuSolver@cloth@nv@@CAXPEAUCUstream_st@@W4cudaError_enum@@PEAX@Z 000000018003b6b0 f   CuSolver.obj
 0001:0003a6f0       ?executeKernel@CuSolver@cloth@nv@@AEAAXXZ 000000018003b6f0 f   CuSolver.obj
 0001:0003a9e0       ?endFrame@CuSolver@cloth@nv@@AEAAXXZ 000000018003b9e0 f   CuSolver.obj
 0001:0003adb0       ?interCollision@CuSolver@cloth@nv@@AEAAXXZ 000000018003bdb0 f   CuSolver.obj
 0001:0003bca0       ??$?0UCuClothData@cloth@nv@@@?$CuDevicePointer@UCuClothData@cloth@nv@@@cloth@nv@@QEAA@PEAUCuClothData@12@@Z 000000018003cca0 f i CuSolver.obj
 0001:0003bcd0       ??$?0VCuCloth@cloth@nv@@@IterationStateFactory@cloth@nv@@QEAA@AEAVCuCloth@12@M@Z 000000018003ccd0 f i CuSolver.obj
 0001:0003c1a0       ??$PX_UNUSED@H@@YAXAEBH@Z  000000018003d1a0 f i CuSolver.obj
 0001:0003c1b0       ??$PX_UNUSED@PEAUCUstream_st@@@@YAXAEBQEAUCUstream_st@@@Z 000000018003d1b0 f i CuSolver.obj
 0001:0003c1c0       ??$PX_UNUSED@PEAX@@YAXAEBQEAX@Z 000000018003d1c0 f i CuSolver.obj
 0001:0003c1d0       ??$PX_UNUSED@W4cudaError_enum@@@@YAXAEBW4cudaError_enum@@@Z 000000018003d1d0 f i CuSolver.obj
 0001:0003c1e0       ??$PxClamp@M@physx@@YAMMMM@Z 000000018003d1e0 f i CuSolver.obj
 0001:0003c260       ??$assign@T__m128@@$02@cloth@nv@@YAXAEAY02T__m128@@AEBVPxMat44@physx@@@Z 000000018003d260 f i CuSolver.obj
 0001:0003c300       ??$castToPxVec3@T__m128@@@IterationStateFactory@cloth@nv@@SA?AVPxVec3@physx@@AEBT__m128@@@Z 000000018003d300 f i CuSolver.obj
 0001:0003c340       ??$create@T__m128@@VCuCloth@cloth@nv@@@IterationStateFactory@cloth@nv@@QEBA?AU?$IterationState@T__m128@@@12@AEBVCuCloth@12@@Z 000000018003d340 f i CuSolver.obj
 0001:0003dc60       ??$getDevicePointer@UCuFrameData@cloth@nv@@$01@cloth@nv@@YAPEAUCuFrameData@01@AEAV?$CuHostVectorImpl@UCuFrameData@cloth@nv@@$01@01@@Z 000000018003ec60 f i CuSolver.obj
 0001:0003dcc0       ??$getDevicePointer@UCuIterationData@cloth@nv@@$01@cloth@nv@@YAPEAUCuIterationData@01@AEAV?$CuHostVectorImpl@UCuIterationData@cloth@nv@@$01@01@@Z 000000018003ecc0 f i CuSolver.obj
 0001:0003dd20       ??$lengthSqr@T__m128@@@IterationStateFactory@cloth@nv@@SA?AT__m128@@AEBT3@@Z 000000018003ed20 f i CuSolver.obj
 0001:0003dd60       ??$splat@$00@cloth@nv@@YA?AT__m128@@AEBT2@@Z 000000018003ed60 f i CuSolver.obj
 0001:0003dda0       ??$splat@$01@cloth@nv@@YA?AT__m128@@AEBT2@@Z 000000018003eda0 f i CuSolver.obj
 0001:0003dde0       ??$splat@$0A@@cloth@nv@@YA?AT__m128@@AEBT2@@Z 000000018003ede0 f i CuSolver.obj
 0001:0003de20       ??$sqr@M@cloth@nv@@YAMAEBM@Z 000000018003ee20 f i CuSolver.obj
 0001:0003de50       ??$swap@PEAVPxVec3@physx@@@ps@cloth@nv@@YAXAEAPEAVPxVec3@physx@@0@Z 000000018003ee50 f i CuSolver.obj
 0001:0003dea0       ??$swap@VPxVec3@physx@@$01@ps@cloth@nv@@YAXAEAV?$CuHostVectorImpl@VPxVec3@physx@@$01@12@0@Z 000000018003eea0 f i CuSolver.obj
 0001:0003ded0       ??$transform@T__m128@@@cloth@nv@@YA?AT__m128@@AEAY02$$CBT2@AEBT2@@Z 000000018003eed0 f i CuSolver.obj
 0001:0003e020       ??0?$Array@PEAVCuCloth@cloth@nv@@VNonTrackingAllocator@ps@23@@ps@cloth@nv@@QEAA@AEBVNonTrackingAllocator@123@@Z 000000018003f020 f i CuSolver.obj
 0001:0003e070       ??0?$Array@UCuClothData@cloth@nv@@V?$CuHostAllocator@UCuClothData@cloth@nv@@$03@23@@ps@cloth@nv@@QEAA@AEBV?$CuHostAllocator@UCuClothData@cloth@nv@@$03@23@@Z 000000018003f070 f i CuSolver.obj
 0001:0003e0d0       ??0?$Array@UCuFrameData@cloth@nv@@V?$CuHostAllocator@UCuFrameData@cloth@nv@@$01@23@@ps@cloth@nv@@QEAA@AEBV?$CuHostAllocator@UCuFrameData@cloth@nv@@$01@23@@Z 000000018003f0d0 f i CuSolver.obj
 0001:0003e130       ??0?$Array@UCuIterationData@cloth@nv@@V?$CuHostAllocator@UCuIterationData@cloth@nv@@$01@23@@ps@cloth@nv@@QEAA@AEBV?$CuHostAllocator@UCuIterationData@cloth@nv@@$01@23@@Z 000000018003f130 f i CuSolver.obj
 0001:0003e190       ??0?$Array@USwInterCollisionData@cloth@nv@@VNonTrackingAllocator@ps@23@@ps@cloth@nv@@QEAA@AEBVNonTrackingAllocator@123@@Z 000000018003f190 f i CuSolver.obj
 0001:0003e1e0       ??0?$CuDevicePointer@UCuClothData@cloth@nv@@@cloth@nv@@QEAA@AEBV012@@Z 000000018003f1e0 f i CuSolver.obj
 0001:0003e220       ??0?$CuDevicePointer@UCuClothData@cloth@nv@@@cloth@nv@@QEAA@XZ 000000018003f220 f i CuSolver.obj
 0001:0003e240       ??0?$CuDeviceVector@UCuClothData@cloth@nv@@@cloth@nv@@QEAA@PEAUCUctx_st@@@Z 000000018003f240 f i CuSolver.obj
 0001:0003e320       ??0?$CuHostAllocator@UCuClothData@cloth@nv@@$03@cloth@nv@@QEAA@PEAUCUctx_st@@@Z 000000018003f320 f i CuSolver.obj
 0001:0003e360       ??0?$CuHostAllocator@UCuFrameData@cloth@nv@@$01@cloth@nv@@QEAA@PEAUCUctx_st@@@Z 000000018003f360 f i CuSolver.obj
 0001:0003e3a0       ??0?$CuHostAllocator@UCuIterationData@cloth@nv@@$01@cloth@nv@@QEAA@PEAUCUctx_st@@@Z 000000018003f3a0 f i CuSolver.obj
 0001:0003e3e0       ??0?$CuHostVectorImpl@UCuClothData@cloth@nv@@$03@cloth@nv@@QEAA@AEBV?$CuHostAllocator@UCuClothData@cloth@nv@@$03@12@@Z 000000018003f3e0 f i CuSolver.obj
 0001:0003e420       ??0?$CuHostVectorImpl@UCuFrameData@cloth@nv@@$01@cloth@nv@@QEAA@AEBV?$CuHostAllocator@UCuFrameData@cloth@nv@@$01@12@@Z 000000018003f420 f i CuSolver.obj
 0001:0003e460       ??0?$CuHostVectorImpl@UCuIterationData@cloth@nv@@$01@cloth@nv@@QEAA@AEBV?$CuHostAllocator@UCuIterationData@cloth@nv@@$01@12@@Z 000000018003f460 f i CuSolver.obj
 0001:0003e4a0       ??0?$StackAllocator@$0BA@@cloth@nv@@QEAA@PEAX_K@Z 000000018003f4a0 f i CuSolver.obj
 0001:0003e510       ??0CuClothData@cloth@nv@@QEAA@XZ 000000018003f510 f i CuSolver.obj
 0001:0003e520       ??0CuFrameData@cloth@nv@@QEAA@XZ 000000018003f520 f i CuSolver.obj
 0001:0003e530       ??0CuIterationData@cloth@nv@@QEAA@XZ 000000018003f530 f i CuSolver.obj
 0001:0003e540       ??0PxMat33@physx@@QEAA@AEBVPxVec3@1@00@Z 000000018003f540 f i CuSolver.obj
 0001:0003e5c0       ??0PxMat44@physx@@QEAA@AEBVPxQuat@1@@Z 000000018003f5c0 f i CuSolver.obj
 0001:0003e9a0       ??0PxQuat@physx@@QEAA@AEBV01@@Z 000000018003f9a0 f i CuSolver.obj
 0001:0003ea20       ??0PxTransform@physx@@QEAA@AEBV01@@Z 000000018003fa20 f i CuSolver.obj
 0001:0003ea80       ??0PxVec4@physx@@QEAA@AEBVPxVec3@1@M@Z 000000018003fa80 f i CuSolver.obj
 0001:0003eb00       ??0Simd4fLoadFactory@cloth@nv@@QEAA@PEBM@Z 000000018003fb00 f i CuSolver.obj
 0001:0003eb30       ??0Simd4iTupleFactory@cloth@nv@@QEAA@HHHH@Z 000000018003fb30 f i CuSolver.obj
 0001:0003ebc0       ??0Solver@cloth@nv@@IEAA@XZ 000000018003fbc0 f i CuSolver.obj
 0001:0003ebf0       ??0SwInterCollisionData@cloth@nv@@QEAA@AEBU012@@Z 000000018003fbf0 f i CuSolver.obj
 0001:0003ed00       ??0SwInterCollisionData@cloth@nv@@QEAA@PEAVPxVec4@physx@@0IPEAIAEBVPxTransform@4@AEBVPxVec3@4@3MPEAX@Z 000000018003fd00 f i CuSolver.obj
 0001:0003edf0       ??0SwInterCollisionData@cloth@nv@@QEAA@XZ 000000018003fdf0 f i CuSolver.obj
 0001:0003ee50       ??1?$Array@PEAVCuCloth@cloth@nv@@VNonTrackingAllocator@ps@23@@ps@cloth@nv@@QEAA@XZ 000000018003fe50 f i CuSolver.obj
 0001:0003eed0       ??1?$Array@UCuClothData@cloth@nv@@V?$CuHostAllocator@UCuClothData@cloth@nv@@$03@23@@ps@cloth@nv@@QEAA@XZ 000000018003fed0 f i CuSolver.obj
 0001:0003ef60       ??1?$Array@UCuFrameData@cloth@nv@@V?$CuHostAllocator@UCuFrameData@cloth@nv@@$01@23@@ps@cloth@nv@@QEAA@XZ 000000018003ff60 f i CuSolver.obj
 0001:0003eff0       ??1?$Array@UCuIterationData@cloth@nv@@V?$CuHostAllocator@UCuIterationData@cloth@nv@@$01@23@@ps@cloth@nv@@QEAA@XZ 000000018003fff0 f i CuSolver.obj
 0001:0003f070       ??1?$Array@USwInterCollisionData@cloth@nv@@VNonTrackingAllocator@ps@23@@ps@cloth@nv@@QEAA@XZ 0000000180040070 f i CuSolver.obj
 0001:0003f0f0       ??1?$CuDeviceVector@UCuClothData@cloth@nv@@@cloth@nv@@QEAA@XZ 00000001800400f0 f i CuSolver.obj
 0001:0003f140       ??1?$CuHostVectorImpl@UCuClothData@cloth@nv@@$03@cloth@nv@@QEAA@XZ 0000000180040140 f i CuSolver.obj
 0001:0003f170       ??1?$CuHostVectorImpl@UCuFrameData@cloth@nv@@$01@cloth@nv@@QEAA@XZ 0000000180040170 f i CuSolver.obj
 0001:0003f1a0       ??1?$CuHostVectorImpl@UCuIterationData@cloth@nv@@$01@cloth@nv@@QEAA@XZ 00000001800401a0 f i CuSolver.obj
 0001:0003f1d0       ??1?$StackAllocator@$0BA@@cloth@nv@@QEAA@XZ 00000001800401d0 f i CuSolver.obj
 0001:0003f250       ??1Solver@cloth@nv@@UEAA@XZ 0000000180040250 f i CuSolver.obj
 0001:0003f270       ??A?$Array@PEAVCuCloth@cloth@nv@@VNonTrackingAllocator@ps@23@@ps@cloth@nv@@QEAAAEAPEAVCuCloth@23@I@Z 0000000180040270 f i CuSolver.obj
 0001:0003f310       ??A?$Array@PEAVCuCloth@cloth@nv@@VNonTrackingAllocator@ps@23@@ps@cloth@nv@@QEBAAEBQEAVCuCloth@23@I@Z 0000000180040310 f i CuSolver.obj
 0001:0003f3b0       ??A?$Array@UCuFrameData@cloth@nv@@V?$CuHostAllocator@UCuFrameData@cloth@nv@@$01@23@@ps@cloth@nv@@QEAAAEAUCuFrameData@23@I@Z 00000001800403b0 f i CuSolver.obj
 0001:0003f450       ??A?$Array@USwInterCollisionData@cloth@nv@@VNonTrackingAllocator@ps@23@@ps@cloth@nv@@QEAAAEAUSwInterCollisionData@23@I@Z 0000000180040450 f i CuSolver.obj
 0001:0003f4f0       ??APxMat33@physx@@QEAAAEAVPxVec3@1@I@Z 00000001800404f0 f i CuSolver.obj
 0001:0003f520       ??APxMat44@physx@@QEAAAEAVPxVec4@1@I@Z 0000000180040520 f i CuSolver.obj
 0001:0003f550       ??APxMat44@physx@@QEBAAEBVPxVec4@1@I@Z 0000000180040550 f i CuSolver.obj
 0001:0003f580       ??APxVec3@physx@@QEAAAEAMI@Z 0000000180040580 f i CuSolver.obj
 0001:0003f5e0       ??APxVec4@physx@@QEAAAEAMI@Z 00000001800405e0 f i CuSolver.obj
 0001:0003f640       ??BSimd4fLoadFactory@cloth@nv@@QEBA?AT__m128@@XZ 0000000180040640 f i CuSolver.obj
 0001:0003f690       ??BSimd4fZeroFactory@cloth@nv@@QEBA?AT__m128@@XZ 0000000180040690 f i CuSolver.obj
 0001:0003f6d0       ??DPxQuat@physx@@QEBA?AV01@AEBV01@@Z 00000001800406d0 f i CuSolver.obj
 0001:0003f8f0       ??DPxVec3@physx@@QEBA?AV01@M@Z 00000001800408f0 f i CuSolver.obj
 0001:0003f980       ??G?$CuDevicePointer@UCuClothData@cloth@nv@@@cloth@nv@@QEBA_JAEBV012@@Z 0000000180040980 f i CuSolver.obj
 0001:0003f9c0       ??H?$CuDevicePointer@UCuClothData@cloth@nv@@@cloth@nv@@QEBA?AV012@AEB_J@Z 00000001800409c0 f i CuSolver.obj
 0001:0003fa10       ??Icloth@nv@@YA?AT__m128@@AEBT2@0@Z 0000000180040a10 f i CuSolver.obj
 0001:0003fa50       ??RPxMat33@physx@@QEAAAEAMII@Z 0000000180040a50 f i CuSolver.obj
 0001:0003fa90       ??RPxMat44@physx@@QEAAAEAMII@Z 0000000180040a90 f i CuSolver.obj
 0001:0003fad0       ??_ECuSolver@cloth@nv@@UEAAPEAXI@Z 0000000180040ad0 f i CuSolver.obj
 0001:0003fad0       ??_GCuSolver@cloth@nv@@UEAAPEAXI@Z 0000000180040ad0 f i CuSolver.obj
 0001:0003fb40       ??_ESolver@cloth@nv@@UEAAPEAXI@Z 0000000180040b40 f i CuSolver.obj
 0001:0003fb40       ??_GSolver@cloth@nv@@UEAAPEAXI@Z 0000000180040b40 f i CuSolver.obj
 0001:0003fbb0       ?PxAsin@physx@@YAMM@Z      0000000180040bb0 f i CuSolver.obj
 0001:0003fbf0       ?PxCos@physx@@YAMM@Z       0000000180040bf0 f i CuSolver.obj
 0001:0003fc20       ?PxSin@physx@@YAMM@Z       0000000180040c20 f i CuSolver.obj
 0001:0003fc50       ?PxSqrt@physx@@YAMM@Z      0000000180040c50 f i CuSolver.obj
 0001:0003fc80       ?allocate@?$Array@PEAVCuCloth@cloth@nv@@VNonTrackingAllocator@ps@23@@ps@cloth@nv@@IEAAPEAPEAVCuCloth@34@I@Z 0000000180040c80 f i CuSolver.obj
 0001:0003fd30       ?allocate@?$Array@UCuClothData@cloth@nv@@V?$CuHostAllocator@UCuClothData@cloth@nv@@$03@23@@ps@cloth@nv@@IEAAPEAUCuClothData@34@I@Z 0000000180040d30 f i CuSolver.obj
 0001:0003fde0       ?allocate@?$Array@UCuFrameData@cloth@nv@@V?$CuHostAllocator@UCuFrameData@cloth@nv@@$01@23@@ps@cloth@nv@@IEAAPEAUCuFrameData@34@I@Z 0000000180040de0 f i CuSolver.obj
 0001:0003fe90       ?allocate@?$Array@UCuIterationData@cloth@nv@@V?$CuHostAllocator@UCuIterationData@cloth@nv@@$01@23@@ps@cloth@nv@@IEAAPEAUCuIterationData@34@I@Z 0000000180040e90 f i CuSolver.obj
 0001:0003ff40       ?allocate@?$Array@USwInterCollisionData@cloth@nv@@VNonTrackingAllocator@ps@23@@ps@cloth@nv@@IEAAPEAUSwInterCollisionData@34@I@Z 0000000180040f40 f i CuSolver.obj
 0001:0003fff0       ?allocate@?$CuHostAllocator@UCuClothData@cloth@nv@@$03@cloth@nv@@QEAAPEAUCuClothData@23@_KPEBDH@Z 0000000180040ff0 f i CuSolver.obj
 0001:000400e0       ?allocate@?$CuHostAllocator@UCuFrameData@cloth@nv@@$01@cloth@nv@@QEAAPEAUCuFrameData@23@_KPEBDH@Z 00000001800410e0 f i CuSolver.obj
 0001:000401d0       ?allocate@?$CuHostAllocator@UCuIterationData@cloth@nv@@$01@cloth@nv@@QEAAPEAUCuIterationData@23@_KPEBDH@Z 00000001800411d0 f i CuSolver.obj
 0001:000402c0       ?array@cloth@nv@@YAAEAY02$$CBMAEBVPxVec3@physx@@@Z 00000001800412c0 f i CuSolver.obj
 0001:000402d0       ?array@cloth@nv@@YAAEAY03$$CBMAEBVPxVec4@physx@@@Z 00000001800412d0 f i CuSolver.obj
 0001:000402e0       ?average@MovingAverage@cloth@nv@@QEBAMXZ 00000001800412e0 f i CuSolver.obj
 0001:00040770       ?begin@?$Array@PEAVCuCloth@cloth@nv@@VNonTrackingAllocator@ps@23@@ps@cloth@nv@@QEAAPEAPEAVCuCloth@34@XZ 0000000180041770 f i CuSolver.obj
 0001:00040790       ?begin@?$Array@UCuClothData@cloth@nv@@V?$CuHostAllocator@UCuClothData@cloth@nv@@$03@23@@ps@cloth@nv@@QEAAPEAUCuClothData@34@XZ 0000000180041790 f i CuSolver.obj
 0001:000407b0       ?begin@?$Array@UCuFrameData@cloth@nv@@V?$CuHostAllocator@UCuFrameData@cloth@nv@@$01@23@@ps@cloth@nv@@QEAAPEAUCuFrameData@34@XZ 00000001800417b0 f i CuSolver.obj
 0001:000407d0       ?begin@?$Array@USwInterCollisionData@cloth@nv@@VNonTrackingAllocator@ps@23@@ps@cloth@nv@@QEAAPEAUSwInterCollisionData@34@XZ 00000001800417d0 f i CuSolver.obj
 0001:000407f0       ?begin@?$CuDeviceVector@UCuClothData@cloth@nv@@@cloth@nv@@QEAA?AV?$CuDevicePointer@UCuClothData@cloth@nv@@@23@XZ 00000001800417f0 f i CuSolver.obj
 0001:00040830       ?begin@?$Range@PEAVCloth@cloth@nv@@@cloth@nv@@QEBAPEAPEAVCloth@23@XZ 0000000180041830 f i CuSolver.obj
 0001:00040850       ?capacity@?$Array@PEAVCuCloth@cloth@nv@@VNonTrackingAllocator@ps@23@@ps@cloth@nv@@QEBAIXZ 0000000180041850 f i CuSolver.obj
 0001:00040870       ?capacity@?$Array@UCuClothData@cloth@nv@@V?$CuHostAllocator@UCuClothData@cloth@nv@@$03@23@@ps@cloth@nv@@QEBAIXZ 0000000180041870 f i CuSolver.obj
 0001:00040890       ?capacity@?$Array@UCuFrameData@cloth@nv@@V?$CuHostAllocator@UCuFrameData@cloth@nv@@$01@23@@ps@cloth@nv@@QEBAIXZ 0000000180041890 f i CuSolver.obj
 0001:000408b0       ?capacity@?$Array@UCuIterationData@cloth@nv@@V?$CuHostAllocator@UCuIterationData@cloth@nv@@$01@23@@ps@cloth@nv@@QEBAIXZ 00000001800418b0 f i CuSolver.obj
 0001:000408d0       ?capacity@?$Array@USwInterCollisionData@cloth@nv@@VNonTrackingAllocator@ps@23@@ps@cloth@nv@@QEBAIXZ 00000001800418d0 f i CuSolver.obj
 0001:000408f0       ?capacity@?$CuDeviceVector@UCuClothData@cloth@nv@@@cloth@nv@@QEBA_KXZ 00000001800418f0 f i CuSolver.obj
 0001:00040930       ?capacityIncrement@?$Array@PEAVCuCloth@cloth@nv@@VNonTrackingAllocator@ps@23@@ps@cloth@nv@@IEBAIXZ 0000000180041930 f i CuSolver.obj
 0001:00040980       ?capacityIncrement@?$Array@UCuFrameData@cloth@nv@@V?$CuHostAllocator@UCuFrameData@cloth@nv@@$01@23@@ps@cloth@nv@@IEBAIXZ 0000000180041980 f i CuSolver.obj
 0001:000409d0       ?capacityIncrement@?$Array@UCuIterationData@cloth@nv@@V?$CuHostAllocator@UCuIterationData@cloth@nv@@$01@23@@ps@cloth@nv@@IEBAIXZ 00000001800419d0 f i CuSolver.obj
 0001:00040a20       ?capacityIncrement@?$Array@USwInterCollisionData@cloth@nv@@VNonTrackingAllocator@ps@23@@ps@cloth@nv@@IEBAIXZ 0000000180041a20 f i CuSolver.obj
 0001:00040a70       ?copy@?$Array@PEAVCuCloth@cloth@nv@@VNonTrackingAllocator@ps@23@@ps@cloth@nv@@KAXPEAPEAVCuCloth@34@0PEBQEAV534@@Z 0000000180041a70 f i CuSolver.obj
 0001:00040b10       ?copy@?$Array@UCuClothData@cloth@nv@@V?$CuHostAllocator@UCuClothData@cloth@nv@@$03@23@@ps@cloth@nv@@KAXPEAUCuClothData@34@0PEBU534@@Z 0000000180041b10 f i CuSolver.obj
 0001:00040bb0       ?copy@?$Array@UCuFrameData@cloth@nv@@V?$CuHostAllocator@UCuFrameData@cloth@nv@@$01@23@@ps@cloth@nv@@KAXPEAUCuFrameData@34@0PEBU534@@Z 0000000180041bb0 f i CuSolver.obj
 0001:00040c50       ?copy@?$Array@UCuIterationData@cloth@nv@@V?$CuHostAllocator@UCuIterationData@cloth@nv@@$01@23@@ps@cloth@nv@@KAXPEAUCuIterationData@34@0PEBU534@@Z 0000000180041c50 f i CuSolver.obj
 0001:00040cf0       ?copy@?$Array@USwInterCollisionData@cloth@nv@@VNonTrackingAllocator@ps@23@@ps@cloth@nv@@KAXPEAUSwInterCollisionData@34@0PEBU534@@Z 0000000180041cf0 f i CuSolver.obj
 0001:00040d90       ?cos@intrinsics@physx@@YAMM@Z 0000000180041d90 f i CuSolver.obj
 0001:00040dc0       ?create@?$Array@UCuClothData@cloth@nv@@V?$CuHostAllocator@UCuClothData@cloth@nv@@$03@23@@ps@cloth@nv@@KAXPEAUCuClothData@34@0AEBU534@@Z 0000000180041dc0 f i CuSolver.obj
 0001:00040e40       ?create@?$Array@UCuFrameData@cloth@nv@@V?$CuHostAllocator@UCuFrameData@cloth@nv@@$01@23@@ps@cloth@nv@@KAXPEAUCuFrameData@34@0AEBU534@@Z 0000000180041e40 f i CuSolver.obj
 0001:00040ec0       ?create@?$Array@UCuIterationData@cloth@nv@@V?$CuHostAllocator@UCuIterationData@cloth@nv@@$01@23@@ps@cloth@nv@@KAXPEAUCuIterationData@34@0AEBU534@@Z 0000000180041ec0 f i CuSolver.obj
 0001:00040f40       ?create@?$Array@USwInterCollisionData@cloth@nv@@VNonTrackingAllocator@ps@23@@ps@cloth@nv@@KAXPEAUSwInterCollisionData@34@0AEBU534@@Z 0000000180041f40 f i CuSolver.obj
 0001:00040fc0       ?deallocate@?$Array@PEAVCuCloth@cloth@nv@@VNonTrackingAllocator@ps@23@@ps@cloth@nv@@IEAAXPEAX@Z 0000000180041fc0 f i CuSolver.obj
 0001:00040ff0       ?deallocate@?$Array@UCuClothData@cloth@nv@@V?$CuHostAllocator@UCuClothData@cloth@nv@@$03@23@@ps@cloth@nv@@IEAAXPEAX@Z 0000000180041ff0 f i CuSolver.obj
 0001:00041020       ?deallocate@?$Array@UCuFrameData@cloth@nv@@V?$CuHostAllocator@UCuFrameData@cloth@nv@@$01@23@@ps@cloth@nv@@IEAAXPEAX@Z 0000000180042020 f i CuSolver.obj
 0001:00041050       ?deallocate@?$Array@UCuIterationData@cloth@nv@@V?$CuHostAllocator@UCuIterationData@cloth@nv@@$01@23@@ps@cloth@nv@@IEAAXPEAX@Z 0000000180042050 f i CuSolver.obj
 0001:00041080       ?deallocate@?$Array@USwInterCollisionData@cloth@nv@@VNonTrackingAllocator@ps@23@@ps@cloth@nv@@IEAAXPEAX@Z 0000000180042080 f i CuSolver.obj
 0001:000410b0       ?deallocate@?$CuHostAllocator@UCuClothData@cloth@nv@@$03@cloth@nv@@QEAAXPEAX@Z 00000001800420b0 f i CuSolver.obj
 0001:00041100       ?deallocate@?$CuHostAllocator@UCuFrameData@cloth@nv@@$01@cloth@nv@@QEAAXPEAX@Z 0000000180042100 f i CuSolver.obj
 0001:00041150       ?deallocate@?$CuHostAllocator@UCuIterationData@cloth@nv@@$01@cloth@nv@@QEAAXPEAX@Z 0000000180042150 f i CuSolver.obj
 0001:000411a0       ?destroy@?$Array@PEAVCuCloth@cloth@nv@@VNonTrackingAllocator@ps@23@@ps@cloth@nv@@KAXPEAPEAVCuCloth@34@0@Z 00000001800421a0 f i CuSolver.obj
 0001:000411e0       ?destroy@?$Array@UCuClothData@cloth@nv@@V?$CuHostAllocator@UCuClothData@cloth@nv@@$03@23@@ps@cloth@nv@@KAXPEAUCuClothData@34@0@Z 00000001800421e0 f i CuSolver.obj
 0001:00041220       ?destroy@?$Array@UCuFrameData@cloth@nv@@V?$CuHostAllocator@UCuFrameData@cloth@nv@@$01@23@@ps@cloth@nv@@KAXPEAUCuFrameData@34@0@Z 0000000180042220 f i CuSolver.obj
 0001:00041260       ?destroy@?$Array@UCuIterationData@cloth@nv@@V?$CuHostAllocator@UCuIterationData@cloth@nv@@$01@23@@ps@cloth@nv@@KAXPEAUCuIterationData@34@0@Z 0000000180042260 f i CuSolver.obj
 0001:000412a0       ?destroy@?$Array@USwInterCollisionData@cloth@nv@@VNonTrackingAllocator@ps@23@@ps@cloth@nv@@KAXPEAUSwInterCollisionData@34@0@Z 00000001800422a0 f i CuSolver.obj
 0001:000412e0       ?dev@?$CuDevicePointer@UCuClothData@cloth@nv@@@cloth@nv@@QEBA_KXZ 00000001800422e0 f i CuSolver.obj
 0001:00041300       ?dot3@cloth@nv@@YA?AT__m128@@AEBT3@0@Z 0000000180042300 f i CuSolver.obj
 0001:00041420       ?empty@?$Array@PEAVCuCloth@cloth@nv@@VNonTrackingAllocator@ps@23@@ps@cloth@nv@@QEBA_NXZ 0000000180042420 f i CuSolver.obj
 0001:00041460       ?empty@?$Array@UCuFrameData@cloth@nv@@V?$CuHostAllocator@UCuFrameData@cloth@nv@@$01@23@@ps@cloth@nv@@QEBA_NXZ 0000000180042460 f i CuSolver.obj
 0001:000414a0       ?empty@?$Array@UCuIterationData@cloth@nv@@V?$CuHostAllocator@UCuIterationData@cloth@nv@@$01@23@@ps@cloth@nv@@QEBA_NXZ 00000001800424a0 f i CuSolver.obj
 0001:000414e0       ?empty@MovingAverage@cloth@nv@@QEBA_NXZ 00000001800424e0 f i CuSolver.obj
 0001:00041520       ?end@?$Array@PEAVCuCloth@cloth@nv@@VNonTrackingAllocator@ps@23@@ps@cloth@nv@@QEAAPEAPEAVCuCloth@34@XZ 0000000180042520 f i CuSolver.obj
 0001:00041550       ?end@?$Array@UCuFrameData@cloth@nv@@V?$CuHostAllocator@UCuFrameData@cloth@nv@@$01@23@@ps@cloth@nv@@QEAAPEAUCuFrameData@34@XZ 0000000180042550 f i CuSolver.obj
 0001:00041580       ?exp@cloth@nv@@YA?AVPxQuat@physx@@AEBVPxVec3@4@@Z 0000000180042580 f i CuSolver.obj
 0001:00041680       ?find@?$Array@PEAVCuCloth@cloth@nv@@VNonTrackingAllocator@ps@23@@ps@cloth@nv@@QEAAPEAPEAVCuCloth@34@AEBQEAV534@@Z 0000000180042680 f i CuSolver.obj
 0001:00041700       ?front@?$Array@UCuIterationData@cloth@nv@@V?$CuHostAllocator@UCuIterationData@cloth@nv@@$01@23@@ps@cloth@nv@@QEAAAEAUCuIterationData@34@XZ 0000000180042700 f i CuSolver.obj
 0001:000417a0       ?fsel@intrinsics@physx@@YAMMMM@Z 00000001800427a0 f i CuSolver.obj
 0001:00041800       ?get@?$CuDevicePointer@UCuClothData@cloth@nv@@@cloth@nv@@QEBAPEAUCuClothData@23@XZ 0000000180042800 f i CuSolver.obj
 0001:00041820       ?getAllocator@?$Array@UCuFrameData@cloth@nv@@V?$CuHostAllocator@UCuFrameData@cloth@nv@@$01@23@@ps@cloth@nv@@QEAAAEAV?$CuHostAllocator@UCuFrameData@cloth@nv@@$01@34@XZ 0000000180042820 f i CuSolver.obj
 0001:00041830       ?getAllocator@?$Array@UCuIterationData@cloth@nv@@V?$CuHostAllocator@UCuIterationData@cloth@nv@@$01@23@@ps@cloth@nv@@QEAAAEAV?$CuHostAllocator@UCuIterationData@cloth@nv@@$01@34@XZ 0000000180042830 f i CuSolver.obj
 0001:00041840       ?getConjugate@PxQuat@physx@@QEBA?AV12@XZ 0000000180042840 f i CuSolver.obj
 0001:000418e0       ?getImaginaryPart@PxQuat@physx@@QEBA?AVPxVec3@2@XZ 00000001800428e0 f i CuSolver.obj
 0001:00041940       ?getInterCollisionDistance@CuSolver@cloth@nv@@UEBAMXZ 0000000180042940 f i CuSolver.obj
 0001:00041970       ?getInterCollisionNbIterations@CuSolver@cloth@nv@@UEBAIXZ 0000000180042970 f i CuSolver.obj
 0001:00041990       ?getInterCollisionStiffness@CuSolver@cloth@nv@@UEBAMXZ 0000000180042990 f i CuSolver.obj
 0001:000419c0       ?grow@?$Array@UCuClothData@cloth@nv@@V?$CuHostAllocator@UCuClothData@cloth@nv@@$03@23@@ps@cloth@nv@@IEAAXI@Z 00000001800429c0 f i CuSolver.obj
 0001:00041a60       ?grow@?$Array@UCuFrameData@cloth@nv@@V?$CuHostAllocator@UCuFrameData@cloth@nv@@$01@23@@ps@cloth@nv@@IEAAXI@Z 0000000180042a60 f i CuSolver.obj
 0001:00041b00       ?grow@?$Array@UCuIterationData@cloth@nv@@V?$CuHostAllocator@UCuIterationData@cloth@nv@@$01@23@@ps@cloth@nv@@IEAAXI@Z 0000000180042b00 f i CuSolver.obj
 0001:00041ba0       ?grow@?$Array@USwInterCollisionData@cloth@nv@@VNonTrackingAllocator@ps@23@@ps@cloth@nv@@IEAAXI@Z 0000000180042ba0 f i CuSolver.obj
 0001:00041c40       ?growAndPushBack@?$Array@PEAVCuCloth@cloth@nv@@VNonTrackingAllocator@ps@23@@ps@cloth@nv@@IEAAAEAPEAVCuCloth@34@AEBQEAV534@@Z 0000000180042c40 f i CuSolver.obj
 0001:00041e30       ?growAndPushBack@?$Array@UCuFrameData@cloth@nv@@V?$CuHostAllocator@UCuFrameData@cloth@nv@@$01@23@@ps@cloth@nv@@IEAAAEAUCuFrameData@34@AEBU534@@Z 0000000180042e30 f i CuSolver.obj
 0001:00042090       ?growAndPushBack@?$Array@UCuIterationData@cloth@nv@@V?$CuHostAllocator@UCuIterationData@cloth@nv@@$01@23@@ps@cloth@nv@@IEAAAEAUCuIterationData@34@AEBU534@@Z 0000000180043090 f i CuSolver.obj
 0001:000422e0       ?growAndPushBack@?$Array@USwInterCollisionData@cloth@nv@@VNonTrackingAllocator@ps@23@@ps@cloth@nv@@IEAAAEAUSwInterCollisionData@34@AEBU534@@Z 00000001800432e0 f i CuSolver.obj
 0001:000424e0       ?hasError@CuSolver@cloth@nv@@UEBA_NXZ 00000001800434e0 f i CuSolver.obj
 0001:00042500       ?isInUserMemory@?$Array@PEAVCuCloth@cloth@nv@@VNonTrackingAllocator@ps@23@@ps@cloth@nv@@QEBAIXZ 0000000180043500 f i CuSolver.obj
 0001:00042520       ?isInUserMemory@?$Array@UCuClothData@cloth@nv@@V?$CuHostAllocator@UCuClothData@cloth@nv@@$03@23@@ps@cloth@nv@@QEBAIXZ 0000000180043520 f i CuSolver.obj
 0001:00042540       ?isInUserMemory@?$Array@UCuFrameData@cloth@nv@@V?$CuHostAllocator@UCuFrameData@cloth@nv@@$01@23@@ps@cloth@nv@@QEBAIXZ 0000000180043540 f i CuSolver.obj
 0001:00042560       ?isInUserMemory@?$Array@UCuIterationData@cloth@nv@@V?$CuHostAllocator@UCuIterationData@cloth@nv@@$01@23@@ps@cloth@nv@@QEBAIXZ 0000000180043560 f i CuSolver.obj
 0001:00042580       ?isInUserMemory@?$Array@USwInterCollisionData@cloth@nv@@VNonTrackingAllocator@ps@23@@ps@cloth@nv@@QEBAIXZ 0000000180043580 f i CuSolver.obj
 0001:000425a0       ?load@cloth@nv@@YA?AUSimd4fLoadFactory@12@PEBM@Z 00000001800435a0 f i CuSolver.obj
 0001:000425e0       ?log@cloth@nv@@YA?AVPxVec3@physx@@AEBVPxQuat@4@@Z 00000001800435e0 f i CuSolver.obj
 0001:00042710       ?magnitude@PxVec3@physx@@QEBAMXZ 0000000180043710 f i CuSolver.obj
 0001:00042740       ?push@MovingAverage@cloth@nv@@QEAAXIM@Z 0000000180043740 f i CuSolver.obj
 0001:000429c0       ?pushBack@?$Array@PEAVCuCloth@cloth@nv@@VNonTrackingAllocator@ps@23@@ps@cloth@nv@@QEAAAEAPEAVCuCloth@34@AEBQEAV534@@Z 00000001800439c0 f i CuSolver.obj
 0001:00042a90       ?pushBack@?$Array@UCuFrameData@cloth@nv@@V?$CuHostAllocator@UCuFrameData@cloth@nv@@$01@23@@ps@cloth@nv@@QEAAAEAUCuFrameData@34@AEBU534@@Z 0000000180043a90 f i CuSolver.obj
 0001:00042b70       ?pushBack@?$Array@UCuIterationData@cloth@nv@@V?$CuHostAllocator@UCuIterationData@cloth@nv@@$01@23@@ps@cloth@nv@@QEAAAEAUCuIterationData@34@AEBU534@@Z 0000000180043b70 f i CuSolver.obj
 0001:00042c40       ?pushBack@?$Array@USwInterCollisionData@cloth@nv@@VNonTrackingAllocator@ps@23@@ps@cloth@nv@@QEAAAEAUSwInterCollisionData@34@AEBU534@@Z 0000000180043c40 f i CuSolver.obj
 0001:00042d10       ?recreate@?$Array@UCuClothData@cloth@nv@@V?$CuHostAllocator@UCuClothData@cloth@nv@@$03@23@@ps@cloth@nv@@IEAAXI@Z 0000000180043d10 f i CuSolver.obj
 0001:00042e80       ?recreate@?$Array@UCuFrameData@cloth@nv@@V?$CuHostAllocator@UCuFrameData@cloth@nv@@$01@23@@ps@cloth@nv@@IEAAXI@Z 0000000180043e80 f i CuSolver.obj
 0001:00042ff0       ?recreate@?$Array@UCuIterationData@cloth@nv@@V?$CuHostAllocator@UCuIterationData@cloth@nv@@$01@23@@ps@cloth@nv@@IEAAXI@Z 0000000180043ff0 f i CuSolver.obj
 0001:00043160       ?recreate@?$Array@USwInterCollisionData@cloth@nv@@VNonTrackingAllocator@ps@23@@ps@cloth@nv@@IEAAXI@Z 0000000180044160 f i CuSolver.obj
 0001:000432c0       ?remove@?$Array@PEAVCuCloth@cloth@nv@@VNonTrackingAllocator@ps@23@@ps@cloth@nv@@QEAAXI@Z 00000001800442c0 f i CuSolver.obj
 0001:000433e0       ?remove@?$Array@UCuClothData@cloth@nv@@V?$CuHostAllocator@UCuClothData@cloth@nv@@$03@23@@ps@cloth@nv@@QEAAXI@Z 00000001800443e0 f i CuSolver.obj
 0001:00043520       ?reserve@?$Array@UCuClothData@cloth@nv@@V?$CuHostAllocator@UCuClothData@cloth@nv@@$03@23@@ps@cloth@nv@@QEAAXI@Z 0000000180044520 f i CuSolver.obj
 0001:00043560       ?reserve@?$Array@UCuFrameData@cloth@nv@@V?$CuHostAllocator@UCuFrameData@cloth@nv@@$01@23@@ps@cloth@nv@@QEAAXI@Z 0000000180044560 f i CuSolver.obj
 0001:000435a0       ?reserve@?$Array@UCuIterationData@cloth@nv@@V?$CuHostAllocator@UCuIterationData@cloth@nv@@$01@23@@ps@cloth@nv@@QEAAXI@Z 00000001800445a0 f i CuSolver.obj
 0001:000435e0       ?reserve@?$Array@USwInterCollisionData@cloth@nv@@VNonTrackingAllocator@ps@23@@ps@cloth@nv@@QEAAXI@Z 00000001800445e0 f i CuSolver.obj
 0001:00043620       ?reserve@?$CuDeviceVector@UCuClothData@cloth@nv@@@cloth@nv@@QEAAX_K@Z 0000000180044620 f i CuSolver.obj
 0001:00043810       ?resize@?$Array@UCuClothData@cloth@nv@@V?$CuHostAllocator@UCuClothData@cloth@nv@@$03@23@@ps@cloth@nv@@QEAAXIAEBUCuClothData@34@@Z 0000000180044810 f i CuSolver.obj
 0001:000438e0       ?resize@?$Array@UCuFrameData@cloth@nv@@V?$CuHostAllocator@UCuFrameData@cloth@nv@@$01@23@@ps@cloth@nv@@QEAAXIAEBUCuFrameData@34@@Z 00000001800448e0 f i CuSolver.obj
 0001:000439b0       ?resize@?$Array@UCuIterationData@cloth@nv@@V?$CuHostAllocator@UCuIterationData@cloth@nv@@$01@23@@ps@cloth@nv@@QEAAXIAEBUCuIterationData@34@@Z 00000001800449b0 f i CuSolver.obj
 0001:00043a70       ?resize@?$Array@USwInterCollisionData@cloth@nv@@VNonTrackingAllocator@ps@23@@ps@cloth@nv@@QEAAXIAEBUSwInterCollisionData@34@@Z 0000000180044a70 f i CuSolver.obj
 0001:00043b30       ?resize@?$CuDeviceVector@UCuClothData@cloth@nv@@@cloth@nv@@QEAAX_K@Z 0000000180044b30 f i CuSolver.obj
 0001:00043be0       ?rotate@PxMat44@physx@@QEBA?BVPxVec3@2@AEBV32@@Z 0000000180044be0 f i CuSolver.obj
 0001:00043c50       ?rotate@PxMat44@physx@@QEBA?BVPxVec4@2@AEBV32@@Z 0000000180044c50 f i CuSolver.obj
 0001:00043d50       ?rsqrt@cloth@nv@@YA?AT__m128@@AEBT3@@Z 0000000180044d50 f i CuSolver.obj
 0001:00043d80       ?select@cloth@nv@@YA?AT__m128@@AEBT3@00@Z 0000000180044d80 f i CuSolver.obj
 0001:00043df0       ?setInterCollisionDistance@CuSolver@cloth@nv@@UEAAXM@Z 0000000180044df0 f i CuSolver.obj
 0001:00043e20       ?setInterCollisionFilter@CuSolver@cloth@nv@@UEAAXP6A_NPEAX0@Z@Z 0000000180044e20 f i CuSolver.obj
 0001:00043e50       ?setInterCollisionNbIterations@CuSolver@cloth@nv@@UEAAXI@Z 0000000180044e50 f i CuSolver.obj
 0001:00043e80       ?setInterCollisionStiffness@CuSolver@cloth@nv@@UEAAXM@Z 0000000180044e80 f i CuSolver.obj
 0001:00043eb0       ?simd4f@cloth@nv@@YA?AUSimd4fTupleFactory@12@AEBUSimd4iTupleFactory@12@@Z 0000000180044eb0 f i CuSolver.obj
 0001:00043ee0       ?simd4i@cloth@nv@@YA?AUSimd4iTupleFactory@12@HHHH@Z 0000000180044ee0 f i CuSolver.obj
 0001:00043f40       ?sin@intrinsics@physx@@YAMM@Z 0000000180044f40 f i CuSolver.obj
 0001:00043f70       ?size@?$Array@PEAVCuCloth@cloth@nv@@VNonTrackingAllocator@ps@23@@ps@cloth@nv@@QEBAIXZ 0000000180044f70 f i CuSolver.obj
 0001:00043f90       ?size@?$Array@UCuClothData@cloth@nv@@V?$CuHostAllocator@UCuClothData@cloth@nv@@$03@23@@ps@cloth@nv@@QEBAIXZ 0000000180044f90 f i CuSolver.obj
 0001:00043fb0       ?size@?$Array@UCuIterationData@cloth@nv@@V?$CuHostAllocator@UCuIterationData@cloth@nv@@$01@23@@ps@cloth@nv@@QEBAIXZ 0000000180044fb0 f i CuSolver.obj
 0001:00043fd0       ?size@?$Array@USwInterCollisionData@cloth@nv@@VNonTrackingAllocator@ps@23@@ps@cloth@nv@@QEBAIXZ 0000000180044fd0 f i CuSolver.obj
 0001:00043ff0       ?size@?$CuDeviceVector@UCuClothData@cloth@nv@@@cloth@nv@@QEBA_KXZ 0000000180044ff0 f i CuSolver.obj
 0001:00044030       ?size@?$Range@PEAVCloth@cloth@nv@@@cloth@nv@@QEBAIXZ 0000000180045030 f i CuSolver.obj
 0001:00044060       ?sqrt@intrinsics@physx@@YAMM@Z 0000000180045060 f i CuSolver.obj
 0001:00044090       ?star@ps@cloth@nv@@YA?AVPxMat33@physx@@AEBVPxVec3@5@@Z 0000000180045090 f i CuSolver.obj
 0001:00044190       ?swap@?$Array@VPxVec3@physx@@V?$CuHostAllocator@VPxVec3@physx@@$01@cloth@nv@@@ps@cloth@nv@@QEAAXAEAV1234@@Z 0000000180045190 f i CuSolver.obj
 0001:00044210       ?swap@?$CuHostVectorImpl@VPxVec3@physx@@$01@cloth@nv@@QEAAXAEAV123@@Z 0000000180045210 f i CuSolver.obj
 0001:000442d0       ?update@?$IterationState@T__m128@@@cloth@nv@@QEAAXXZ 00000001800452d0 f i CuSolver.obj
 0001:00044580       ?userBytes@?$StackAllocator@$0BA@@cloth@nv@@QEBA_KXZ 0000000180045580 f i CuSolver.obj
 0001:00044600       ?initialize@avx@@YAXXZ     0000000180045600 f   SwSolveConstraints.obj
 0001:000446d0       ??$fmadd_ps@$01@avx@@YA?AT__m256@@T1@00@Z 00000001800456d0 f   SwSolveConstraints.obj
 0001:00044730       ??$fnmadd_ps@$01@avx@@YA?AT__m256@@T1@00@Z 0000000180045730 f   SwSolveConstraints.obj
 0001:00044790       ??$exp2@$01@avx@@YA?AT__m256@@AEBT1@@Z 0000000180045790 f   SwSolveConstraints.obj
 0001:00044c80       ??$exp2@$00@avx@@YA?AT__m256@@AEBT1@@Z 0000000180045c80 f i SwSolveConstraints.obj
 0001:00045370       ??$fmadd_ps@$00@avx@@YA?AT__m256@@T1@00@Z 0000000180046370 f i SwSolveConstraints.obj
 0001:000453f0       ??$fnmadd_ps@$00@avx@@YA?AT__m256@@T1@00@Z 00000001800463f0 f i SwSolveConstraints.obj
 0001:00045470       ??$solveConstraints@$00$00@avx@@YAXPEIAMPEIBM11PEIBGAEBT__m128@@3@Z 0000000180046470 f i SwSolveConstraints.obj
 0001:00047000       ??$solveConstraints@$00$01@avx@@YAXPEIAMPEIBM11PEIBGAEBT__m128@@3@Z 0000000180048000 f i SwSolveConstraints.obj
 0001:00048b90       ??$solveConstraints@$0A@$00@avx@@YAXPEIAMPEIBM11PEIBGAEBT__m128@@3@Z 0000000180049b90 f i SwSolveConstraints.obj
 0001:0004a720       ??$solveConstraints@$0A@$01@avx@@YAXPEIAMPEIBM11PEIBGAEBT__m128@@3@Z 000000018004b720 f i SwSolveConstraints.obj
 0001:0004c2b0       ?allocate@Allocator@ps@cloth@nv@@QEAAPEAX_KPEBDH@Z 000000018004d2b0 f   PsAllocator.obj
 0001:0004c320       ?deallocate@Allocator@ps@cloth@nv@@QEAAXPEAX@Z 000000018004d320 f   PsAllocator.obj
 0001:0004c390       ?allocate@cloth@nv@@YAPEAX_K@Z 000000018004d390 f   Allocator.obj
 0001:0004c400       ?deallocate@cloth@nv@@YAXPEAX@Z 000000018004d400 f   Allocator.obj
 0001:0004c470       InitializeNvCloth          000000018004d470 f   Callbacks.obj
 0001:0004c570       GetNvClothAllocator        000000018004d570 f   Callbacks.obj
 0001:0004c5e0       ?LogErrorFn@cloth@nv@@YAXPEBDH0ZZ 000000018004d5e0 f   Callbacks.obj
 0001:0004c660       ?LogInvalidParameterFn@cloth@nv@@YAXPEBDH0ZZ 000000018004d660 f   Callbacks.obj
 0001:0004c6e0       ?LogWarningFn@cloth@nv@@YAXPEBDH0ZZ 000000018004d6e0 f   Callbacks.obj
 0001:0004c760       ?LogInfoFn@cloth@nv@@YAXPEBDH0ZZ 000000018004d760 f   Callbacks.obj
 0001:0004c7e0       GetNvClothAssertHandler    000000018004d7e0 f   Callbacks.obj
 0001:0004c800       ?GetNvClothProfiler@cloth@nv@@YAPEAVPxProfilerCallback@physx@@XZ 000000018004d800 f   Callbacks.obj
 0001:0004c820       ?LogFn@cloth@nv@@YAXW4Enum@PxErrorCode@physx@@PEBDH1PEAD@Z 000000018004d820 f   Callbacks.obj
 0001:0004c9f0       __local_stdio_printf_options 000000018004d9f0 f i Callbacks.obj
 0001:0004ca00       _vsnprintf_s               000000018004da00 f i Callbacks.obj
 0001:0004ca60       _vsnprintf_s_l             000000018004da60 f i Callbacks.obj
 0001:0004cb10       NvClothCreateFactoryCPU    000000018004db10 f   Factory.obj
 0001:0004cb70       NvClothCreateFactoryCUDA   000000018004db70 f   Factory.obj
 0001:0004cbe0       NvClothCreateFactoryDX11   000000018004dbe0 f   Factory.obj
 0001:0004cc10       NvClothDestroyFactory      000000018004dc10 f   Factory.obj
 0001:0004cc60       NvClothCompiledWithCudaSupport 000000018004dc60 f   Factory.obj
 0001:0004cc70       NvClothCompiledWithDxSupport 000000018004dc70 f   Factory.obj
 0001:0004cc80       ?getNextFabricId@cloth@nv@@YAIXZ 000000018004dc80 f   Factory.obj
 0001:0004cd10       ??$PX_UNUSED@PEAVDxContextManagerCallback@cloth@nv@@@@YAXAEBQEAVDxContextManagerCallback@cloth@nv@@@Z 000000018004dd10 f i Factory.obj
 0001:0004cd20       ?transform@cloth@nv@@YA?AUPhaseConfig@12@AEBU312@@Z 000000018004dd20 f   PhaseConfig.obj
 0001:0004ce50       ??0PhaseConfig@cloth@nv@@QEAA@G@Z 000000018004de50 f i PhaseConfig.obj
 0001:0004cef0       ??0SwCloth@cloth@nv@@QEAA@AEAVSwFactory@12@AEAVSwFabric@12@U?$Range@$$CBVPxVec4@physx@@@12@@Z 000000018004def0 f   SwCloth.obj
 0001:0004d4b0       ??0SwCloth@cloth@nv@@QEAA@AEAVSwFactory@12@AEBV012@@Z 000000018004e4b0 f   SwCloth.obj
 0001:0004da70       ??1SwCloth@cloth@nv@@UEAA@XZ 000000018004ea70 f   SwCloth.obj
 0001:0004dc10       ?clone@SwCloth@cloth@nv@@UEBAPEAVCloth@23@AEAVFactory@23@@Z 000000018004ec10 f   SwCloth.obj
 0001:0004dc40       ?getNumParticles@SwCloth@cloth@nv@@UEBAIXZ 000000018004ec40 f   SwCloth.obj
 0001:0004dc70       ?lockParticles@SwCloth@cloth@nv@@UEBAXXZ 000000018004ec70 f   SwCloth.obj
 0001:0004dc80       ?unlockParticles@SwCloth@cloth@nv@@UEBAXXZ 000000018004ec80 f   SwCloth.obj
 0001:0004dc90       ?getCurrentParticles@SwCloth@cloth@nv@@UEAA?AU?$MappedRange@VPxVec4@physx@@@23@XZ 000000018004ec90 f   SwCloth.obj
 0001:0004dce0       ?getCurrentParticles@SwCloth@cloth@nv@@UEBA?AU?$MappedRange@$$CBVPxVec4@physx@@@23@XZ 000000018004ece0 f   SwCloth.obj
 0001:0004dd30       ?getPreviousParticles@SwCloth@cloth@nv@@UEAA?AU?$MappedRange@VPxVec4@physx@@@23@XZ 000000018004ed30 f   SwCloth.obj
 0001:0004dd80       ?getPreviousParticles@SwCloth@cloth@nv@@UEBA?AU?$MappedRange@$$CBVPxVec4@physx@@@23@XZ 000000018004ed80 f   SwCloth.obj
 0001:0004ddd0       ?getGpuParticles@SwCloth@cloth@nv@@UEAA?AUGpuParticles@23@XZ 000000018004edd0 f   SwCloth.obj
 0001:0004de50       ?setPhaseConfig@SwCloth@cloth@nv@@UEAAXU?$Range@$$CBUPhaseConfig@cloth@nv@@@23@@Z 000000018004ee50 f   SwCloth.obj
 0001:0004df10       ?setSelfCollisionIndices@SwCloth@cloth@nv@@UEAAXU?$Range@$$CBI@23@@Z 000000018004ef10 f   SwCloth.obj
 0001:0004dfc0       ?getNumVirtualParticles@SwCloth@cloth@nv@@UEBAIXZ 000000018004efc0 f   SwCloth.obj
 0001:0004dfe0       ?getParticleAccelerations@SwCloth@cloth@nv@@UEAA?AU?$Range@VPxVec4@physx@@@23@XZ 000000018004efe0 f   SwCloth.obj
 0001:0004e0c0       ?clearParticleAccelerations@SwCloth@cloth@nv@@UEAAXXZ 000000018004f0c0 f   SwCloth.obj
 0001:0004e130       ?setVirtualParticles@SwCloth@cloth@nv@@UEAAXU?$Range@$$BY03$$CBI@23@U?$Range@$$CBVPxVec3@physx@@@23@@Z 000000018004f130 f   SwCloth.obj
 0001:0004e360       ?setParticleBounds@SwCloth@cloth@nv@@QEAAXPEBM@Z 000000018004f360 f   SwCloth.obj
 0001:0004e440       ?push@SwCloth@cloth@nv@@QEAA?AU?$Range@VPxVec4@physx@@@23@AEAUSwConstraints@23@@Z 000000018004f440 f   SwCloth.obj
 0001:0004e5c0       ?clear@SwCloth@cloth@nv@@SAXAEAUSwConstraints@23@@Z 000000018004f5c0 f   SwCloth.obj
 0001:0004e660       ?clampTriangleCount@SwCloth@cloth@nv@@SA?AU?$Range@$$CBVPxVec3@physx@@@23@U423@I@Z 000000018004f660 f   SwCloth.obj
 0001:0004ed60       ??$?4VNonTrackingAllocator@ps@cloth@nv@@@?$Array@VPxVec4@physx@@VNonTrackingAllocator@ps@cloth@nv@@@ps@cloth@nv@@QEAAAEAV0123@AEBV0123@@Z 000000018004fd60 f i SwCloth.obj
 0001:0004ee10       ??$copy@VNonTrackingAllocator@ps@cloth@nv@@@?$Array@IVNonTrackingAllocator@ps@cloth@nv@@@ps@cloth@nv@@IEAAXAEBV0123@@Z 000000018004fe10 f i SwCloth.obj
 0001:0004ef00       ??$copy@VNonTrackingAllocator@ps@cloth@nv@@@?$Array@U?$Vec4T@G@cloth@nv@@VNonTrackingAllocator@ps@23@@ps@cloth@nv@@IEAAXAEBV0123@@Z 000000018004ff00 f i SwCloth.obj
 0001:0004eff0       ??$copy@VNonTrackingAllocator@ps@cloth@nv@@@?$Array@UIndexPair@cloth@nv@@VNonTrackingAllocator@ps@23@@ps@cloth@nv@@IEAAXAEBV0123@@Z 000000018004fff0 f i SwCloth.obj
 0001:0004f0e0       ??$copy@VNonTrackingAllocator@ps@cloth@nv@@@?$Array@VPxVec3@physx@@VNonTrackingAllocator@ps@cloth@nv@@@ps@cloth@nv@@IEAAXAEBV0123@@Z 00000001800500e0 f i SwCloth.obj
 0001:0004f1d0       ??$copy@VNonTrackingAllocator@ps@cloth@nv@@@?$Array@VPxVec4@physx@@VNonTrackingAllocator@ps@cloth@nv@@@ps@cloth@nv@@IEAAXAEBV0123@@Z 00000001800501d0 f i SwCloth.obj
 0001:0004f2c0       ??$copy@VSwCloth@cloth@nv@@V123@@cloth@nv@@YAXAEAVSwCloth@01@AEBV201@@Z 00000001800502c0 f i SwCloth.obj
 0001:0004f770       ??$getMappedParticles@$$CBVPxVec4@physx@@@?$ClothImpl@VSwCloth@cloth@nv@@@cloth@nv@@QEBA?AU?$MappedRange@$$CBVPxVec4@physx@@@12@PEBVPxVec4@physx@@@Z 0000000180050770 f i SwCloth.obj
 0001:0004f880       ??$getMappedParticles@VPxVec4@physx@@@?$ClothImpl@VSwCloth@cloth@nv@@@cloth@nv@@QEBA?AU?$MappedRange@VPxVec4@physx@@@12@PEAVPxVec4@physx@@@Z 0000000180050880 f i SwCloth.obj
 0001:0004f990       ??$initialize@VSwCloth@cloth@nv@@@cloth@nv@@YAXAEAVSwCloth@01@PEBVPxVec4@physx@@1@Z 0000000180050990 f i SwCloth.obj
 0001:00050030       ??$swap@PEAU?$Vec4T@G@cloth@nv@@@ps@cloth@nv@@YAXAEAPEAU?$Vec4T@G@12@0@Z 0000000180051030 f i SwCloth.obj
 0001:00050080       ??$swap@VPxVec4@physx@@VNonTrackingAllocator@ps@cloth@nv@@@ps@cloth@nv@@YAXAEAV?$Array@VPxVec4@physx@@VNonTrackingAllocator@ps@cloth@nv@@@012@0@Z 0000000180051080 f i SwCloth.obj
 0001:000500b0       ??0?$Array@IVNonTrackingAllocator@ps@cloth@nv@@@ps@cloth@nv@@QEAA@AEBV0123@AEBVNonTrackingAllocator@123@@Z 00000001800510b0 f i SwCloth.obj
 0001:000500f0       ??0?$Array@U?$Vec4T@G@cloth@nv@@VNonTrackingAllocator@ps@23@@ps@cloth@nv@@QEAA@AEBV0123@AEBVNonTrackingAllocator@123@@Z 00000001800510f0 f i SwCloth.obj
 0001:00050130       ??0?$Array@UIndexPair@cloth@nv@@VNonTrackingAllocator@ps@23@@ps@cloth@nv@@QEAA@AEBV0123@AEBVNonTrackingAllocator@123@@Z 0000000180051130 f i SwCloth.obj
 0001:00050170       ??0?$Array@UIndexPair@cloth@nv@@VNonTrackingAllocator@ps@23@@ps@cloth@nv@@QEAA@AEBVNonTrackingAllocator@123@@Z 0000000180051170 f i SwCloth.obj
 0001:000501c0       ??0?$Array@VPxVec3@physx@@VNonTrackingAllocator@ps@cloth@nv@@@ps@cloth@nv@@QEAA@AEBV0123@AEBVNonTrackingAllocator@123@@Z 00000001800511c0 f i SwCloth.obj
 0001:00050200       ??0?$Array@VPxVec3@physx@@VNonTrackingAllocator@ps@cloth@nv@@@ps@cloth@nv@@QEAA@AEBVNonTrackingAllocator@123@@Z 0000000180051200 f i SwCloth.obj
 0001:00050250       ??0?$Array@VPxVec4@physx@@VNonTrackingAllocator@ps@cloth@nv@@@ps@cloth@nv@@QEAA@AEBV0123@AEBVNonTrackingAllocator@123@@Z 0000000180051250 f i SwCloth.obj
 0001:00050290       ??0?$ClothImpl@VSwCloth@cloth@nv@@@cloth@nv@@QEAA@XZ 0000000180051290 f i SwCloth.obj
 0001:00050420       ??0SwConstraints@cloth@nv@@QEAA@XZ 0000000180051420 f i SwCloth.obj
 0001:00050480       ??1?$Array@UIndexPair@cloth@nv@@VNonTrackingAllocator@ps@23@@ps@cloth@nv@@QEAA@XZ 0000000180051480 f i SwCloth.obj
 0001:00050500       ??1?$ClothImpl@VSwCloth@cloth@nv@@@cloth@nv@@UEAA@XZ 0000000180051500 f i SwCloth.obj
 0001:00050540       ??1SwConstraints@cloth@nv@@QEAA@XZ 0000000180051540 f i SwCloth.obj
 0001:00050580       ??4?$Array@VPxVec4@physx@@VNonTrackingAllocator@ps@cloth@nv@@@ps@cloth@nv@@QEAAAEAV0123@AEBV0123@@Z 0000000180051580 f i SwCloth.obj
 0001:000505b0       ??A?$Array@UIndexPair@cloth@nv@@VNonTrackingAllocator@ps@23@@ps@cloth@nv@@QEAAAEAUIndexPair@23@I@Z 00000001800515b0 f i SwCloth.obj
 0001:00050650       ??A?$Array@VPxVec3@physx@@VNonTrackingAllocator@ps@cloth@nv@@@ps@cloth@nv@@QEAAAEAVPxVec3@physx@@I@Z 0000000180051650 f i SwCloth.obj
 0001:000506f0       ??A?$Array@VPxVec4@physx@@VNonTrackingAllocator@ps@cloth@nv@@@ps@cloth@nv@@QEAAAEAVPxVec4@physx@@I@Z 00000001800516f0 f i SwCloth.obj
 0001:00050790       ??_E?$ClothImpl@VSwCloth@cloth@nv@@@cloth@nv@@UEAAPEAXI@Z 0000000180051790 f i SwCloth.obj
 0001:00050790       ??_G?$ClothImpl@VSwCloth@cloth@nv@@@cloth@nv@@UEAAPEAXI@Z 0000000180051790 f i SwCloth.obj
 0001:00050800       ??_ESwCloth@cloth@nv@@UEAAPEAXI@Z 0000000180051800 f i SwCloth.obj
 0001:00050800       ??_GSwCloth@cloth@nv@@UEAAPEAXI@Z 0000000180051800 f i SwCloth.obj
 0001:00050870       ?allocate@?$Array@UIndexPair@cloth@nv@@VNonTrackingAllocator@ps@23@@ps@cloth@nv@@IEAAPEAUIndexPair@34@I@Z 0000000180051870 f i SwCloth.obj
 0001:00050920       ?assign@?$Array@VPxVec3@physx@@VNonTrackingAllocator@ps@cloth@nv@@@ps@cloth@nv@@QEAAXPEBVPxVec3@physx@@0@Z 0000000180051920 f i SwCloth.obj
 0001:000509b0       ?assign@?$Array@VPxVec4@physx@@VNonTrackingAllocator@ps@cloth@nv@@@ps@cloth@nv@@QEAAXPEBVPxVec4@physx@@0@Z 00000001800519b0 f i SwCloth.obj
 0001:00050a40       ?begin@?$Array@U?$Vec4T@G@cloth@nv@@VNonTrackingAllocator@ps@23@@ps@cloth@nv@@QEBAPEBU?$Vec4T@G@34@XZ 0000000180051a40 f i SwCloth.obj
 0001:00050a60       ?begin@?$Array@UIndexPair@cloth@nv@@VNonTrackingAllocator@ps@23@@ps@cloth@nv@@QEAAPEAUIndexPair@34@XZ 0000000180051a60 f i SwCloth.obj
 0001:00050a80       ?begin@?$Array@UIndexPair@cloth@nv@@VNonTrackingAllocator@ps@23@@ps@cloth@nv@@QEBAPEBUIndexPair@34@XZ 0000000180051a80 f i SwCloth.obj
 0001:00050aa0       ?begin@?$Array@VPxVec3@physx@@VNonTrackingAllocator@ps@cloth@nv@@@ps@cloth@nv@@QEAAPEAVPxVec3@physx@@XZ 0000000180051aa0 f i SwCloth.obj
 0001:00050ac0       ?begin@?$Array@VPxVec3@physx@@VNonTrackingAllocator@ps@cloth@nv@@@ps@cloth@nv@@QEBAPEBVPxVec3@physx@@XZ 0000000180051ac0 f i SwCloth.obj
 0001:00050ae0       ?capacity@?$Array@UIndexPair@cloth@nv@@VNonTrackingAllocator@ps@23@@ps@cloth@nv@@QEBAIXZ 0000000180051ae0 f i SwCloth.obj
 0001:00050b00       ?capacityIncrement@?$Array@VPxVec3@physx@@VNonTrackingAllocator@ps@cloth@nv@@@ps@cloth@nv@@IEBAIXZ 0000000180051b00 f i SwCloth.obj
 0001:00050b50       ?clear@?$Array@VPxVec4@physx@@VNonTrackingAllocator@ps@cloth@nv@@@ps@cloth@nv@@QEAAXXZ 0000000180051b50 f i SwCloth.obj
 0001:00050ba0       ?clearInertia@?$ClothImpl@VSwCloth@cloth@nv@@@cloth@nv@@UEAAXXZ 0000000180051ba0 f i SwCloth.obj
 0001:00050c50       ?clearInterpolation@?$ClothImpl@VSwCloth@cloth@nv@@@cloth@nv@@UEAAXXZ 0000000180051c50 f i SwCloth.obj
 0001:00050dc0       ?clearMotionConstraints@?$ClothImpl@VSwCloth@cloth@nv@@@cloth@nv@@UEAAXXZ 0000000180051dc0 f i SwCloth.obj
 0001:00050e20       ?clearSeparationConstraints@?$ClothImpl@VSwCloth@cloth@nv@@@cloth@nv@@UEAAXXZ 0000000180051e20 f i SwCloth.obj
 0001:00050e80       ?copy@?$Array@UIndexPair@cloth@nv@@VNonTrackingAllocator@ps@23@@ps@cloth@nv@@KAXPEAUIndexPair@34@0PEBU534@@Z 0000000180051e80 f i SwCloth.obj
 0001:00050f20       ?create@?$Array@UIndexPair@cloth@nv@@VNonTrackingAllocator@ps@23@@ps@cloth@nv@@KAXPEAUIndexPair@34@0AEBU534@@Z 0000000180051f20 f i SwCloth.obj
 0001:00050fa0       ?create@?$Array@UPhaseConfig@cloth@nv@@VNonTrackingAllocator@ps@23@@ps@cloth@nv@@KAXPEAUPhaseConfig@34@0AEBU534@@Z 0000000180051fa0 f i SwCloth.obj
 0001:00051020       ?deallocate@?$Array@UIndexPair@cloth@nv@@VNonTrackingAllocator@ps@23@@ps@cloth@nv@@IEAAXPEAX@Z 0000000180052020 f i SwCloth.obj
 0001:00051050       ?destroy@?$Array@UIndexPair@cloth@nv@@VNonTrackingAllocator@ps@23@@ps@cloth@nv@@KAXPEAUIndexPair@34@0@Z 0000000180052050 f i SwCloth.obj
 0001:00051090       ?empty@?$Array@UIndexPair@cloth@nv@@VNonTrackingAllocator@ps@23@@ps@cloth@nv@@QEBA_NXZ 0000000180052090 f i SwCloth.obj
 0001:000510d0       ?enableContinuousCollision@?$ClothImpl@VSwCloth@cloth@nv@@@cloth@nv@@UEAAX_N@Z 00000001800520d0 f i SwCloth.obj
 0001:00051160       ?end@?$Array@UIndexPair@cloth@nv@@VNonTrackingAllocator@ps@23@@ps@cloth@nv@@QEAAPEAUIndexPair@34@XZ 0000000180052160 f i SwCloth.obj
 0001:00051190       ?end@?$Array@VPxVec3@physx@@VNonTrackingAllocator@ps@cloth@nv@@@ps@cloth@nv@@QEAAPEAVPxVec3@physx@@XZ 0000000180052190 f i SwCloth.obj
 0001:000511c0       ?end@?$Array@VPxVec4@physx@@VNonTrackingAllocator@ps@cloth@nv@@@ps@cloth@nv@@QEAAPEAVPxVec4@physx@@XZ 00000001800521c0 f i SwCloth.obj
 0001:000511f0       ?end@?$Array@VPxVec4@physx@@VNonTrackingAllocator@ps@cloth@nv@@@ps@cloth@nv@@QEBAPEBVPxVec4@physx@@XZ 00000001800521f0 f i SwCloth.obj
 0001:00051220       ?getAccelerationFilterWidth@?$ClothImpl@VSwCloth@cloth@nv@@@cloth@nv@@UEBAIXZ 0000000180052220 f i SwCloth.obj
 0001:00051250       ?getAngularDrag@?$ClothImpl@VSwCloth@cloth@nv@@@cloth@nv@@UEBA?AVPxVec3@physx@@XZ 0000000180052250 f i SwCloth.obj
 0001:000512d0       ?getAngularInertia@?$ClothImpl@VSwCloth@cloth@nv@@@cloth@nv@@UEBA?AVPxVec3@physx@@XZ 00000001800522d0 f i SwCloth.obj
 0001:00051310       ?getBoundingBoxCenter@?$ClothImpl@VSwCloth@cloth@nv@@@cloth@nv@@UEBAAEBVPxVec3@physx@@XZ 0000000180052310 f i SwCloth.obj
 0001:00051340       ?getBoundingBoxScale@?$ClothImpl@VSwCloth@cloth@nv@@@cloth@nv@@UEBAAEBVPxVec3@physx@@XZ 0000000180052340 f i SwCloth.obj
 0001:00051370       ?getCentrifugalInertia@?$ClothImpl@VSwCloth@cloth@nv@@@cloth@nv@@UEBA?AVPxVec3@physx@@XZ 0000000180052370 f i SwCloth.obj
 0001:000513b0       ?getChildCloth@?$ClothImpl@VSwCloth@cloth@nv@@@cloth@nv@@QEAAPEAVSwCloth@23@XZ 00000001800523b0 f i SwCloth.obj
 0001:000513c0       ?getChildCloth@?$ClothImpl@VSwCloth@cloth@nv@@@cloth@nv@@QEBAPEBVSwCloth@23@XZ 00000001800523c0 f i SwCloth.obj
 0001:000513d0       ?getCollisionMassScale@?$ClothImpl@VSwCloth@cloth@nv@@@cloth@nv@@UEBAMXZ 00000001800523d0 f i SwCloth.obj
 0001:00051400       ?getDamping@?$ClothImpl@VSwCloth@cloth@nv@@@cloth@nv@@UEBA?AVPxVec3@physx@@XZ 0000000180052400 f i SwCloth.obj
 0001:00051480       ?getDragCoefficient@?$ClothImpl@VSwCloth@cloth@nv@@@cloth@nv@@UEBAMXZ 0000000180052480 f i SwCloth.obj
 0001:000514c0       ?getFabric@?$ClothImpl@VSwCloth@cloth@nv@@@cloth@nv@@UEBAAEAVFabric@23@XZ 00000001800524c0 f i SwCloth.obj
 0001:000514f0       ?getFactory@?$ClothImpl@VSwCloth@cloth@nv@@@cloth@nv@@UEBAAEAVFactory@23@XZ 00000001800524f0 f i SwCloth.obj
 0001:00051520       ?getFluidDensity@?$ClothImpl@VSwCloth@cloth@nv@@@cloth@nv@@UEBAMXZ 0000000180052520 f i SwCloth.obj
 0001:00051550       ?getFriction@?$ClothImpl@VSwCloth@cloth@nv@@@cloth@nv@@UEBAMXZ 0000000180052550 f i SwCloth.obj
 0001:00051580       ?getGravity@?$ClothImpl@VSwCloth@cloth@nv@@@cloth@nv@@UEBA?AVPxVec3@physx@@XZ 0000000180052580 f i SwCloth.obj
 0001:000515c0       ?getLiftCoefficient@?$ClothImpl@VSwCloth@cloth@nv@@@cloth@nv@@UEBAMXZ 00000001800525c0 f i SwCloth.obj
 0001:00051600       ?getLinearDrag@?$ClothImpl@VSwCloth@cloth@nv@@@cloth@nv@@UEBA?AVPxVec3@physx@@XZ 0000000180052600 f i SwCloth.obj
 0001:00051680       ?getLinearInertia@?$ClothImpl@VSwCloth@cloth@nv@@@cloth@nv@@UEBA?AVPxVec3@physx@@XZ 0000000180052680 f i SwCloth.obj
 0001:000516c0       ?getMotionConstraintBias@?$ClothImpl@VSwCloth@cloth@nv@@@cloth@nv@@UEBAMXZ 00000001800526c0 f i SwCloth.obj
 0001:000516f0       ?getMotionConstraintScale@?$ClothImpl@VSwCloth@cloth@nv@@@cloth@nv@@UEBAMXZ 00000001800526f0 f i SwCloth.obj
 0001:00051720       ?getMotionConstraintStiffness@?$ClothImpl@VSwCloth@cloth@nv@@@cloth@nv@@UEBAMXZ 0000000180052720 f i SwCloth.obj
 0001:00051770       ?getMotionConstraints@?$ClothImpl@VSwCloth@cloth@nv@@@cloth@nv@@UEAA?AU?$Range@VPxVec4@physx@@@23@XZ 0000000180052770 f i SwCloth.obj
 0001:000517f0       ?getNumCapsules@?$ClothImpl@VSwCloth@cloth@nv@@@cloth@nv@@UEBAIXZ 00000001800527f0 f i SwCloth.obj
 0001:00051830       ?getNumConvexes@?$ClothImpl@VSwCloth@cloth@nv@@@cloth@nv@@UEBAIXZ 0000000180052830 f i SwCloth.obj
 0001:00051870       ?getNumMotionConstraints@?$ClothImpl@VSwCloth@cloth@nv@@@cloth@nv@@UEBAIXZ 0000000180052870 f i SwCloth.obj
 0001:000518b0       ?getNumParticleAccelerations@?$ClothImpl@VSwCloth@cloth@nv@@@cloth@nv@@UEBAIXZ 00000001800528b0 f i SwCloth.obj
 0001:000518f0       ?getNumPlanes@?$ClothImpl@VSwCloth@cloth@nv@@@cloth@nv@@UEBAIXZ 00000001800528f0 f i SwCloth.obj
 0001:00051930       ?getNumRestPositions@?$ClothImpl@VSwCloth@cloth@nv@@@cloth@nv@@UEBAIXZ 0000000180052930 f i SwCloth.obj
 0001:00051970       ?getNumSelfCollisionIndices@?$ClothImpl@VSwCloth@cloth@nv@@@cloth@nv@@UEBAIXZ 0000000180052970 f i SwCloth.obj
 0001:000519b0       ?getNumSeparationConstraints@?$ClothImpl@VSwCloth@cloth@nv@@@cloth@nv@@UEBAIXZ 00000001800529b0 f i SwCloth.obj
 0001:000519f0       ?getNumSpheres@?$ClothImpl@VSwCloth@cloth@nv@@@cloth@nv@@UEBAIXZ 00000001800529f0 f i SwCloth.obj
 0001:00051a30       ?getNumTriangles@?$ClothImpl@VSwCloth@cloth@nv@@@cloth@nv@@UEBAIXZ 0000000180052a30 f i SwCloth.obj
 0001:00051a70       ?getNumVirtualParticleWeights@?$ClothImpl@VSwCloth@cloth@nv@@@cloth@nv@@UEBAIXZ 0000000180052a70 f i SwCloth.obj
 0001:00051ab0       ?getPreviousIterationDt@?$ClothImpl@VSwCloth@cloth@nv@@@cloth@nv@@UEBAMXZ 0000000180052ab0 f i SwCloth.obj
 0001:00051ae0       ?getRotation@?$ClothImpl@VSwCloth@cloth@nv@@@cloth@nv@@UEBAAEBVPxQuat@physx@@XZ 0000000180052ae0 f i SwCloth.obj
 0001:00051b00       ?getSelfCollisionDistance@?$ClothImpl@VSwCloth@cloth@nv@@@cloth@nv@@UEBAMXZ 0000000180052b00 f i SwCloth.obj
 0001:00051b30       ?getSelfCollisionStiffness@?$ClothImpl@VSwCloth@cloth@nv@@@cloth@nv@@UEBAMXZ 0000000180052b30 f i SwCloth.obj
 0001:00051b80       ?getSeparationConstraints@?$ClothImpl@VSwCloth@cloth@nv@@@cloth@nv@@UEAA?AU?$Range@VPxVec4@physx@@@23@XZ 0000000180052b80 f i SwCloth.obj
 0001:00051c00       ?getSleepAfterCount@?$ClothImpl@VSwCloth@cloth@nv@@@cloth@nv@@UEBAIXZ 0000000180052c00 f i SwCloth.obj
 0001:00051c20       ?getSleepPassCount@?$ClothImpl@VSwCloth@cloth@nv@@@cloth@nv@@UEBAIXZ 0000000180052c20 f i SwCloth.obj
 0001:00051c40       ?getSleepTestInterval@?$ClothImpl@VSwCloth@cloth@nv@@@cloth@nv@@UEBAIXZ 0000000180052c40 f i SwCloth.obj
 0001:00051c60       ?getSleepThreshold@?$ClothImpl@VSwCloth@cloth@nv@@@cloth@nv@@UEBAMXZ 0000000180052c60 f i SwCloth.obj
 0001:00051c90       ?getSolverFrequency@?$ClothImpl@VSwCloth@cloth@nv@@@cloth@nv@@UEBAMXZ 0000000180052c90 f i SwCloth.obj
 0001:00051cb0       ?getStiffnessFrequency@?$ClothImpl@VSwCloth@cloth@nv@@@cloth@nv@@UEBAMXZ 0000000180052cb0 f i SwCloth.obj
 0001:00051cd0       ?getTetherConstraintScale@?$ClothImpl@VSwCloth@cloth@nv@@@cloth@nv@@UEBAMXZ 0000000180052cd0 f i SwCloth.obj
 0001:00051d00       ?getTetherConstraintStiffness@?$ClothImpl@VSwCloth@cloth@nv@@@cloth@nv@@UEBAMXZ 0000000180052d00 f i SwCloth.obj
 0001:00051d50       ?getTranslation@?$ClothImpl@VSwCloth@cloth@nv@@@cloth@nv@@UEBAAEBVPxVec3@physx@@XZ 0000000180052d50 f i SwCloth.obj
 0001:00051d70       ?getUserData@?$ClothImpl@VSwCloth@cloth@nv@@@cloth@nv@@UEBAPEAXXZ 0000000180052d70 f i SwCloth.obj
 0001:00051da0       ?getWindVelocity@?$ClothImpl@VSwCloth@cloth@nv@@@cloth@nv@@UEBA?AVPxVec3@physx@@XZ 0000000180052da0 f i SwCloth.obj
 0001:00051de0       ?grow@?$Array@UIndexPair@cloth@nv@@VNonTrackingAllocator@ps@23@@ps@cloth@nv@@IEAAXI@Z 0000000180052de0 f i SwCloth.obj
 0001:00051e80       ?growAndPushBack@?$Array@VPxVec3@physx@@VNonTrackingAllocator@ps@cloth@nv@@@ps@cloth@nv@@IEAAAEAVPxVec3@physx@@AEBV56@@Z 0000000180052e80 f i SwCloth.obj
 0001:00052080       ?ignoreVelocityDiscontinuity@?$ClothImpl@VSwCloth@cloth@nv@@@cloth@nv@@UEAAXXZ 0000000180053080 f i SwCloth.obj
 0001:000520a0       ?isAsleep@?$ClothImpl@VSwCloth@cloth@nv@@@cloth@nv@@UEBA_NXZ 00000001800530a0 f i SwCloth.obj
 0001:000520d0       ?isContinuousCollisionEnabled@?$ClothImpl@VSwCloth@cloth@nv@@@cloth@nv@@UEBA_NXZ 00000001800530d0 f i SwCloth.obj
 0001:00052100       ?isInUserMemory@?$Array@UIndexPair@cloth@nv@@VNonTrackingAllocator@ps@23@@ps@cloth@nv@@QEBAIXZ 0000000180053100 f i SwCloth.obj
 0001:00052120       ?isSleeping@?$ClothImpl@VSwCloth@cloth@nv@@@cloth@nv@@UEBA_NXZ 0000000180053120 f i SwCloth.obj
 0001:00052170       ?notifyChanged@SwCloth@cloth@nv@@QEAAXXZ 0000000180053170 f i SwCloth.obj
 0001:00052180       ?pop@SwConstraints@cloth@nv@@QEAAXXZ 0000000180053180 f i SwCloth.obj
 0001:00052200       ?pushBack@?$Array@VPxVec3@physx@@VNonTrackingAllocator@ps@cloth@nv@@@ps@cloth@nv@@QEAAAEAVPxVec3@physx@@AEBV56@@Z 0000000180053200 f i SwCloth.obj
 0001:000522d0       ?putToSleep@?$ClothImpl@VSwCloth@cloth@nv@@@cloth@nv@@UEAAXXZ 00000001800532d0 f i SwCloth.obj
 0001:00052300       ?recreate@?$Array@UIndexPair@cloth@nv@@VNonTrackingAllocator@ps@23@@ps@cloth@nv@@IEAAXI@Z 0000000180053300 f i SwCloth.obj
 0001:00052460       ?replaceWithLast@?$Array@IVNonTrackingAllocator@ps@cloth@nv@@@ps@cloth@nv@@QEAAXI@Z 0000000180053460 f i SwCloth.obj
 0001:00052530       ?replaceWithLast@?$Array@IVNonTrackingAllocator@ps@cloth@nv@@@ps@cloth@nv@@QEAAXPEAI@Z 0000000180053530 f i SwCloth.obj
 0001:00052580       ?replaceWithLast@?$Array@UIndexPair@cloth@nv@@VNonTrackingAllocator@ps@23@@ps@cloth@nv@@QEAAXI@Z 0000000180053580 f i SwCloth.obj
 0001:00052650       ?replaceWithLast@?$Array@UIndexPair@cloth@nv@@VNonTrackingAllocator@ps@23@@ps@cloth@nv@@QEAAXPEAUIndexPair@34@@Z 0000000180053650 f i SwCloth.obj
 0001:000526a0       ?reserve@?$Array@UIndexPair@cloth@nv@@VNonTrackingAllocator@ps@23@@ps@cloth@nv@@QEAAXI@Z 00000001800536a0 f i SwCloth.obj
 0001:000526e0       ?resize@?$Array@UIndexPair@cloth@nv@@VNonTrackingAllocator@ps@23@@ps@cloth@nv@@QEAAXIAEBUIndexPair@34@@Z 00000001800536e0 f i SwCloth.obj
 0001:000527a0       ?resize@?$Array@UPhaseConfig@cloth@nv@@VNonTrackingAllocator@ps@23@@ps@cloth@nv@@QEAAXIAEBUPhaseConfig@34@@Z 00000001800537a0 f i SwCloth.obj
 0001:00052860       ?resizeUninitialized@?$Array@VPxVec3@physx@@VNonTrackingAllocator@ps@cloth@nv@@@ps@cloth@nv@@QEAAXI@Z 0000000180053860 f i SwCloth.obj
 0001:000528a0       ?resizeUninitialized@?$Array@VPxVec4@physx@@VNonTrackingAllocator@ps@cloth@nv@@@ps@cloth@nv@@QEAAXI@Z 00000001800538a0 f i SwCloth.obj
 0001:000528e0       ?setAcceleationFilterWidth@?$ClothImpl@VSwCloth@cloth@nv@@@cloth@nv@@UEAAXI@Z 00000001800538e0 f i SwCloth.obj
 0001:00052920       ?setAngularDrag@?$ClothImpl@VSwCloth@cloth@nv@@@cloth@nv@@UEAAXAEBVPxVec3@physx@@@Z 0000000180053920 f i SwCloth.obj
 0001:00052a10       ?setAngularInertia@?$ClothImpl@VSwCloth@cloth@nv@@@cloth@nv@@UEAAXAEBVPxVec3@physx@@@Z 0000000180053a10 f i SwCloth.obj
 0001:00052ad0       ?setCapsules@?$ClothImpl@VSwCloth@cloth@nv@@@cloth@nv@@UEAAXU?$Range@$$CBI@23@II@Z 0000000180053ad0 f i SwCloth.obj
 0001:00053050       ?setCentrifugalInertia@?$ClothImpl@VSwCloth@cloth@nv@@@cloth@nv@@UEAAXAEBVPxVec3@physx@@@Z 0000000180054050 f i SwCloth.obj
 0001:00053110       ?setCollisionMassScale@?$ClothImpl@VSwCloth@cloth@nv@@@cloth@nv@@UEAAXM@Z 0000000180054110 f i SwCloth.obj
 0001:000531a0       ?setConvexes@?$ClothImpl@VSwCloth@cloth@nv@@@cloth@nv@@UEAAXU?$Range@$$CBI@23@II@Z 00000001800541a0 f i SwCloth.obj
 0001:000536b0       ?setDamping@?$ClothImpl@VSwCloth@cloth@nv@@@cloth@nv@@UEAAXAEBVPxVec3@physx@@@Z 00000001800546b0 f i SwCloth.obj
 0001:000537a0       ?setDragCoefficient@?$ClothImpl@VSwCloth@cloth@nv@@@cloth@nv@@UEAAXM@Z 00000001800547a0 f i SwCloth.obj
 0001:000538b0       ?setFluidDensity@?$ClothImpl@VSwCloth@cloth@nv@@@cloth@nv@@UEAAXM@Z 00000001800548b0 f i SwCloth.obj
 0001:000539a0       ?setFriction@?$ClothImpl@VSwCloth@cloth@nv@@@cloth@nv@@UEAAXM@Z 00000001800549a0 f i SwCloth.obj
 0001:00053a00       ?setGravity@?$ClothImpl@VSwCloth@cloth@nv@@@cloth@nv@@UEAAXAEBVPxVec3@physx@@@Z 0000000180054a00 f i SwCloth.obj
 0001:00053ac0       ?setLiftCoefficient@?$ClothImpl@VSwCloth@cloth@nv@@@cloth@nv@@UEAAXM@Z 0000000180054ac0 f i SwCloth.obj
 0001:00053bd0       ?setLinearDrag@?$ClothImpl@VSwCloth@cloth@nv@@@cloth@nv@@UEAAXAEBVPxVec3@physx@@@Z 0000000180054bd0 f i SwCloth.obj
 0001:00053cc0       ?setLinearInertia@?$ClothImpl@VSwCloth@cloth@nv@@@cloth@nv@@UEAAXAEBVPxVec3@physx@@@Z 0000000180054cc0 f i SwCloth.obj
 0001:00053d80       ?setMotionConstraintScaleBias@?$ClothImpl@VSwCloth@cloth@nv@@@cloth@nv@@UEAAXMM@Z 0000000180054d80 f i SwCloth.obj
 0001:00053e50       ?setMotionConstraintStiffness@?$ClothImpl@VSwCloth@cloth@nv@@@cloth@nv@@UEAAXM@Z 0000000180054e50 f i SwCloth.obj
 0001:00053f00       ?setPlanes@?$ClothImpl@VSwCloth@cloth@nv@@@cloth@nv@@UEAAXU?$Range@$$CBVPxVec4@physx@@@23@0@Z 0000000180054f00 f i SwCloth.obj
 0001:00054450       ?setPlanes@?$ClothImpl@VSwCloth@cloth@nv@@@cloth@nv@@UEAAXU?$Range@$$CBVPxVec4@physx@@@23@II@Z 0000000180055450 f i SwCloth.obj
 0001:00055080       ?setRestPositions@?$ClothImpl@VSwCloth@cloth@nv@@@cloth@nv@@UEAAXU?$Range@$$CBVPxVec4@physx@@@23@@Z 0000000180056080 f i SwCloth.obj
 0001:00055240       ?setRotation@?$ClothImpl@VSwCloth@cloth@nv@@@cloth@nv@@UEAAXAEBVPxQuat@physx@@@Z 0000000180056240 f i SwCloth.obj
 0001:000552d0       ?setSelfCollisionDistance@?$ClothImpl@VSwCloth@cloth@nv@@@cloth@nv@@UEAAXM@Z 00000001800562d0 f i SwCloth.obj
 0001:00055360       ?setSelfCollisionStiffness@?$ClothImpl@VSwCloth@cloth@nv@@@cloth@nv@@UEAAXM@Z 0000000180056360 f i SwCloth.obj
 0001:00055480       ?setSleepAfterCount@?$ClothImpl@VSwCloth@cloth@nv@@@cloth@nv@@UEAAXI@Z 0000000180056480 f i SwCloth.obj
 0001:00055500       ?setSleepTestInterval@?$ClothImpl@VSwCloth@cloth@nv@@@cloth@nv@@UEAAXI@Z 0000000180056500 f i SwCloth.obj
 0001:00055580       ?setSleepThreshold@?$ClothImpl@VSwCloth@cloth@nv@@@cloth@nv@@UEAAXM@Z 0000000180056580 f i SwCloth.obj
 0001:00055600       ?setSolverFrequency@?$ClothImpl@VSwCloth@cloth@nv@@@cloth@nv@@UEAAXM@Z 0000000180056600 f i SwCloth.obj
 0001:00055690       ?setSpheres@?$ClothImpl@VSwCloth@cloth@nv@@@cloth@nv@@UEAAXU?$Range@$$CBVPxVec4@physx@@@23@0@Z 0000000180056690 f i SwCloth.obj
 0001:00055be0       ?setSpheres@?$ClothImpl@VSwCloth@cloth@nv@@@cloth@nv@@UEAAXU?$Range@$$CBVPxVec4@physx@@@23@II@Z 0000000180056be0 f i SwCloth.obj
 0001:000566e0       ?setStiffnessFrequency@?$ClothImpl@VSwCloth@cloth@nv@@@cloth@nv@@UEAAXM@Z 00000001800576e0 f i SwCloth.obj
 0001:00056740       ?setTetherConstraintScale@?$ClothImpl@VSwCloth@cloth@nv@@@cloth@nv@@UEAAXM@Z 0000000180057740 f i SwCloth.obj
 0001:000567d0       ?setTetherConstraintStiffness@?$ClothImpl@VSwCloth@cloth@nv@@@cloth@nv@@UEAAXM@Z 00000001800577d0 f i SwCloth.obj
 0001:00056880       ?setTranslation@?$ClothImpl@VSwCloth@cloth@nv@@@cloth@nv@@UEAAXAEBVPxVec3@physx@@@Z 0000000180057880 f i SwCloth.obj
 0001:00056940       ?setTriangles@?$ClothImpl@VSwCloth@cloth@nv@@@cloth@nv@@UEAAXU?$Range@$$CBVPxVec3@physx@@@23@0I@Z 0000000180057940 f i SwCloth.obj
 0001:00057040       ?setTriangles@?$ClothImpl@VSwCloth@cloth@nv@@@cloth@nv@@UEAAXU?$Range@$$CBVPxVec3@physx@@@23@II@Z 0000000180058040 f i SwCloth.obj
 0001:00057940       ?setUserData@?$ClothImpl@VSwCloth@cloth@nv@@@cloth@nv@@UEAAXPEAX@Z 0000000180058940 f i SwCloth.obj
 0001:00057980       ?setWindVelocity@?$ClothImpl@VSwCloth@cloth@nv@@@cloth@nv@@UEAAXVPxVec3@physx@@@Z 0000000180058980 f i SwCloth.obj
 0001:00057a20       ?size@?$Array@UIndexPair@cloth@nv@@VNonTrackingAllocator@ps@23@@ps@cloth@nv@@QEBAIXZ 0000000180058a20 f i SwCloth.obj
 0001:00057a40       ?swap@?$Array@U?$Vec4T@G@cloth@nv@@VNonTrackingAllocator@ps@23@@ps@cloth@nv@@QEAAXAEAV1234@@Z 0000000180058a40 f i SwCloth.obj
 0001:00057ac0       ?swap@?$Array@VPxVec4@physx@@VNonTrackingAllocator@ps@cloth@nv@@@ps@cloth@nv@@QEAAXAEAV1234@@Z 0000000180058ac0 f i SwCloth.obj
 0001:00057b40       ?teleport@?$ClothImpl@VSwCloth@cloth@nv@@@cloth@nv@@UEAAXAEBVPxVec3@physx@@@Z 0000000180058b40 f i SwCloth.obj
 0001:00057ba0       ?teleportToLocation@?$ClothImpl@VSwCloth@cloth@nv@@@cloth@nv@@UEAAXAEBVPxVec3@physx@@AEBVPxQuat@5@@Z 0000000180058ba0 f i SwCloth.obj
 0001:00057c40       ?wakeUp@?$ClothImpl@VSwCloth@cloth@nv@@@cloth@nv@@UEAAXXZ 0000000180058c40 f i SwCloth.obj
 0001:00057c60       ??0SwClothData@cloth@nv@@QEAA@AEAVSwCloth@12@AEBVSwFabric@12@@Z 0000000180058c60 f   SwClothData.obj
 0001:00058ad0       ?reconcile@SwClothData@cloth@nv@@QEBAXAEAVSwCloth@23@@Z 0000000180059ad0 f   SwClothData.obj
 0001:00058b30       ?verify@SwClothData@cloth@nv@@QEBAXXZ 0000000180059b30 f   SwClothData.obj
 0001:000590a0       ?begin@?$Array@GVNonTrackingAllocator@ps@cloth@nv@@@ps@cloth@nv@@QEBAPEBGXZ 000000018005a0a0 f i SwClothData.obj
 0001:000590c0       ?begin@?$Array@USwTether@cloth@nv@@VNonTrackingAllocator@ps@23@@ps@cloth@nv@@QEBAPEBUSwTether@34@XZ 000000018005a0c0 f i SwClothData.obj
 0001:000590e0       ?empty@?$Array@MV?$AlignedAllocator@$0CA@VNonTrackingAllocator@ps@cloth@nv@@@ps@cloth@nv@@@ps@cloth@nv@@QEBA_NXZ 000000018005a0e0 f i SwClothData.obj
 0001:00059120       ?front@?$Array@GVNonTrackingAllocator@ps@cloth@nv@@@ps@cloth@nv@@QEBAAEBGXZ 000000018005a120 f i SwClothData.obj
 0001:000591b0       ?front@?$Array@IVNonTrackingAllocator@ps@cloth@nv@@@ps@cloth@nv@@QEAAAEAIXZ 000000018005a1b0 f i SwClothData.obj
 0001:00059240       ?front@?$Array@MV?$AlignedAllocator@$0CA@VNonTrackingAllocator@ps@cloth@nv@@@ps@cloth@nv@@@ps@cloth@nv@@QEBAAEBMXZ 000000018005a240 f i SwClothData.obj
 0001:000592d0       ?front@?$Array@UIndexPair@cloth@nv@@VNonTrackingAllocator@ps@23@@ps@cloth@nv@@QEAAAEAUIndexPair@34@XZ 000000018005a2d0 f i SwClothData.obj
 0001:00059360       ?front@?$Array@UPhaseConfig@cloth@nv@@VNonTrackingAllocator@ps@23@@ps@cloth@nv@@QEAAAEAUPhaseConfig@34@XZ 000000018005a360 f i SwClothData.obj
 0001:000593f0       ?size@?$Array@GVNonTrackingAllocator@ps@cloth@nv@@@ps@cloth@nv@@QEBAIXZ 000000018005a3f0 f i SwClothData.obj
 0001:00059410       ?size@?$Array@MV?$AlignedAllocator@$0CA@VNonTrackingAllocator@ps@cloth@nv@@@ps@cloth@nv@@@ps@cloth@nv@@QEBAIXZ 000000018005a410 f i SwClothData.obj
 0001:00059430       ?size@?$Array@USwTether@cloth@nv@@VNonTrackingAllocator@ps@23@@ps@cloth@nv@@QEBAIXZ 000000018005a430 f i SwClothData.obj
 0001:00059960       ??$?IT__m128@@@cloth@nv@@YA?AT__m128@@AEBT2@AEBU?$ComplementExpr@T__m128@@@01@@Z 000000018005a960 f i SwCollision.obj
 0001:000599a0       ??$?IT__m128i@@@cloth@nv@@YA?AT__m128i@@AEBT2@AEBU?$ComplementExpr@T__m128i@@@01@@Z 000000018005a9a0 f i SwCollision.obj
 0001:000599e0       ??$PX_UNUSED@PEBD@@YAXAEBQEBD@Z 000000018005a9e0 f i SwCollision.obj
 0001:0005a370       ??$emptyBounds@T__m128@@@cloth@nv@@YA?AU?$BoundingBox@T__m128@@@01@XZ 000000018005b370 f i SwCollision.obj
 0001:0005a430       ??$expandBounds@T__m128@@@cloth@nv@@YA?AU?$BoundingBox@T__m128@@@01@AEBU201@0@Z 000000018005b430 f i SwCollision.obj
 0001:0005a530       ??$expandBounds@T__m128@@@cloth@nv@@YA?AU?$BoundingBox@T__m128@@@01@AEBU201@PEBUSphereData@01@1@Z 000000018005b530 f i SwCollision.obj
 0001:0005b9a0       ??$intersectBounds@T__m128@@@cloth@nv@@YA?AU?$BoundingBox@T__m128@@@01@AEBU201@0@Z 000000018005c9a0 f i SwCollision.obj
 0001:0005baa0       ??$loadBounds@T__m128@@@cloth@nv@@YA?AU?$BoundingBox@T__m128@@@01@PEBM@Z 000000018005caa0 f i SwCollision.obj
 0001:0005bba0       ??$recip@$00@cloth@nv@@YA?AT__m128@@AEBT2@@Z 000000018005cba0 f i SwCollision.obj
 0001:0005bd20       ??$splat@$00@cloth@nv@@YA?AT__m128i@@AEBT2@@Z 000000018005cd20 f i SwCollision.obj
 0001:0005bd60       ??$splat@$01@cloth@nv@@YA?AT__m128i@@AEBT2@@Z 000000018005cd60 f i SwCollision.obj
 0001:0005bda0       ??$splat@$02@cloth@nv@@YA?AT__m128@@AEBT2@@Z 000000018005cda0 f i SwCollision.obj
 0001:0005bde0       ??$splat@$02@cloth@nv@@YA?AT__m128i@@AEBT2@@Z 000000018005cde0 f i SwCollision.obj
 0001:0005be20       ??$splat@$0A@@cloth@nv@@YA?AT__m128i@@AEBT2@@Z 000000018005ce20 f i SwCollision.obj
 0001:0005bec0       ??$swap@UCollisionData@?$SwCollision@T__m128@@@cloth@nv@@@ps@cloth@nv@@YAXAEAUCollisionData@?$SwCollision@T__m128@@@12@0@Z 000000018005cec0 f i SwCollision.obj
 0001:0005bf60       ??0?$ComplementExpr@T__m128@@@cloth@nv@@QEAA@AEBT__m128@@@Z 000000018005cf60 f i SwCollision.obj
 0001:0005bf90       ??0?$ComplementExpr@T__m128i@@@cloth@nv@@QEAA@AEBT__m128i@@@Z 000000018005cf90 f i SwCollision.obj
 0001:0005bfc0       ??0?$Gather@T__m128i@@@cloth@nv@@QEAA@AEBT__m128i@@@Z 000000018005cfc0 f i SwCollision.obj
 0001:0005c130       ??0?$LerpIterator@T__m128@@PEBT1@@cloth@nv@@QEAA@PEBT__m128@@0M@Z 000000018005d130 f i SwCollision.obj
 0001:0005c1c0       ??0?$LerpIterator@T__m128@@V?$UnalignedIterator@T__m128@@$02@cloth@nv@@@cloth@nv@@QEAA@V?$UnalignedIterator@T__m128@@$02@12@0M@Z 000000018005d1c0 f i SwCollision.obj
 0001:0005c250       ??0?$SwCollision@T__m128@@@cloth@nv@@QEAA@AEAUSwClothData@12@AEAV?$StackAllocator@$0BA@@12@@Z 000000018005d250 f i SwCollision.obj
 0001:0005c3e0       ??0?$UnalignedIterator@T__m128@@$02@cloth@nv@@QEAA@PEBM@Z 000000018005d3e0 f i SwCollision.obj
 0001:0005c410       ??0CollisionData@?$SwCollision@T__m128@@@cloth@nv@@QEAA@XZ 000000018005d410 f i SwCollision.obj
 0001:0005c440       ??0ImpulseAccumulator@?$SwCollision@T__m128@@@cloth@nv@@QEAA@XZ 000000018005d440 f i SwCollision.obj
 0001:0005c500       ??0NvClothProfileScoped@cloth@nv@@QEAA@PEBD_N_K0HPEAVPxProfilerCallback@physx@@@Z 000000018005d500 f i SwCollision.obj
 0001:0005c600       ??0Simd4fAlignedLoadFactory@cloth@nv@@QEAA@PEBM@Z 000000018005d600 f i SwCollision.obj
 0001:0005c630       ??0Simd4fOffsetLoadFactory@cloth@nv@@QEAA@PEBMI@Z 000000018005d630 f i SwCollision.obj
 0001:0005c670       ??0Simd4iOffsetLoadFactory@cloth@nv@@QEAA@PEBHI@Z 000000018005d670 f i SwCollision.obj
 0001:0005c6b0       ??1?$SwCollision@T__m128@@@cloth@nv@@QEAA@XZ 000000018005d6b0 f i SwCollision.obj
 0001:0005c710       ??1NvClothProfileScoped@cloth@nv@@QEAA@XZ 000000018005d710 f i SwCollision.obj
 0001:0005c790       ??4ShapeMask@?$SwCollision@T__m128@@@cloth@nv@@QEAAAEAU0123@AEBU0123@@Z 000000018005d790 f i SwCollision.obj
 0001:0005c7e0       ??6cloth@nv@@YA?AT__m128i@@AEBT2@H@Z 000000018005d7e0 f i SwCollision.obj
 0001:0005c830       ??8cloth@nv@@YA?AT__m128@@AEBT2@0@Z 000000018005d830 f i SwCollision.obj
 0001:0005c870       ??8cloth@nv@@YA?AT__m128i@@AEBT2@0@Z 000000018005d870 f i SwCollision.obj
 0001:0005c8b0       ??A?$LerpIterator@T__m128@@PEBT1@@cloth@nv@@QEBA?AT__m128@@_K@Z 000000018005d8b0 f i SwCollision.obj
 0001:0005c970       ??A?$LerpIterator@T__m128@@V?$UnalignedIterator@T__m128@@$02@cloth@nv@@@cloth@nv@@QEBA?AT__m128@@_K@Z 000000018005d970 f i SwCollision.obj
 0001:0005ca90       ??A?$UnalignedIterator@T__m128@@$02@cloth@nv@@QEBA?AT__m128@@_K@Z 000000018005da90 f i SwCollision.obj
 0001:0005caf0       ??BSimd4fAlignedLoadFactory@cloth@nv@@QEBA?AT__m128@@XZ 000000018005daf0 f i SwCollision.obj
 0001:0005cb40       ??BSimd4fOffsetLoadFactory@cloth@nv@@QEBA?AT__m128@@XZ 000000018005db40 f i SwCollision.obj
 0001:0005cb90       ??BSimd4iOffsetLoadFactory@cloth@nv@@QEBA?AT__m128i@@XZ 000000018005db90 f i SwCollision.obj
 0001:0005cbf0       ??BSimd4iScalarFactory@cloth@nv@@QEBA?AT__m128i@@XZ 000000018005dbf0 f i SwCollision.obj
 0001:0005cc40       ??BSimd4iZeroFactory@cloth@nv@@QEBA?AT__m128i@@XZ 000000018005dc40 f i SwCollision.obj
 0001:0005cc80       ??D?$LerpIterator@T__m128@@PEBT1@@cloth@nv@@QEBA?AT__m128@@XZ 000000018005dc80 f i SwCollision.obj
 0001:0005ccc0       ??D?$LerpIterator@T__m128@@V?$UnalignedIterator@T__m128@@$02@cloth@nv@@@cloth@nv@@QEBA?AT__m128@@XZ 000000018005dcc0 f i SwCollision.obj
 0001:0005cd00       ??D?$UnalignedIterator@T__m128@@$02@cloth@nv@@QEBA?AT__m128@@XZ 000000018005dd00 f i SwCollision.obj
 0001:0005cd40       ??E?$LerpIterator@T__m128@@PEBT1@@cloth@nv@@QEAAAEAV012@XZ 000000018005dd40 f i SwCollision.obj
 0001:0005cd90       ??E?$LerpIterator@T__m128@@V?$UnalignedIterator@T__m128@@$02@cloth@nv@@@cloth@nv@@QEAAAEAV012@XZ 000000018005dd90 f i SwCollision.obj
 0001:0005cde0       ??E?$UnalignedIterator@T__m128@@$02@cloth@nv@@QEAAAEAV012@XZ 000000018005dde0 f i SwCollision.obj
 0001:0005ce10       ??Gcloth@nv@@YA?AT__m128i@@AEBT2@0@Z 000000018005de10 f i SwCollision.obj
 0001:0005ce50       ??Icloth@nv@@YA?AT__m128i@@AEBT2@0@Z 000000018005de50 f i SwCollision.obj
 0001:0005ce90       ??Mcloth@nv@@YA?AT__m128@@AEBT2@0@Z 000000018005de90 f i SwCollision.obj
 0001:0005ced0       ??Ocloth@nv@@YA?AT__m128@@AEBT2@0@Z 000000018005ded0 f i SwCollision.obj
 0001:0005cf10       ??Ocloth@nv@@YA?AT__m128i@@AEBT2@0@Z 000000018005df10 f i SwCollision.obj
 0001:0005cf50       ??Pcloth@nv@@YA?AT__m128@@AEBT2@0@Z 000000018005df50 f i SwCollision.obj
 0001:0005cf90       ??R?$Gather@T__m128i@@@cloth@nv@@QEBA?AT__m128i@@PEBT3@@Z 000000018005df90 f i SwCollision.obj
 0001:0005d370       ??R?$SwCollision@T__m128@@@cloth@nv@@QEAAXAEBU?$IterationState@T__m128@@@12@@Z 000000018005e370 f i SwCollision.obj
 0001:0005d6e0       ??Scloth@nv@@YA?AU?$ComplementExpr@T__m128@@@01@AEBT__m128@@@Z 000000018005e6e0 f i SwCollision.obj
 0001:0005d720       ??Scloth@nv@@YA?AU?$ComplementExpr@T__m128i@@@01@AEBT__m128i@@@Z 000000018005e720 f i SwCollision.obj
 0001:0005d760       ??Tcloth@nv@@YA?AT__m128i@@AEBT2@0@Z 000000018005e760 f i SwCollision.obj
 0001:0005d7a0       ??Ucloth@nv@@YA?AT__m128@@AEBT2@0@Z 000000018005e7a0 f i SwCollision.obj
 0001:0005d7e0       ??Ucloth@nv@@YA?AT__m128i@@AEBT2@0@Z 000000018005e7e0 f i SwCollision.obj
 0001:0005d820       ??_4ShapeMask@?$SwCollision@T__m128@@@cloth@nv@@QEAAAEAU0123@AEBU0123@@Z 000000018005e820 f i SwCollision.obj
 0001:0005d8b0       ?abs@cloth@nv@@YA?AT__m128@@AEBT3@@Z 000000018005e8b0 f i SwCollision.obj
 0001:0005d900       ?add@ImpulseAccumulator@?$SwCollision@T__m128@@@cloth@nv@@QEAAXAEBT__m128@@0000@Z 000000018005e900 f i SwCollision.obj
 0001:0005ded0       ?addVelocity@ImpulseAccumulator@?$SwCollision@T__m128@@@cloth@nv@@QEAAXAEBT__m128@@000@Z 000000018005eed0 f i SwCollision.obj
 0001:0005e2d0       ?allEqual@cloth@nv@@YAHAEBT__m128@@0@Z 000000018005f2d0 f i SwCollision.obj
 0001:0005e310       ?allEqual@cloth@nv@@YAHAEBT__m128i@@0@Z 000000018005f310 f i SwCollision.obj
 0001:0005e360       ?allGreaterEqual@cloth@nv@@YAHAEBT__m128@@0@Z 000000018005f360 f i SwCollision.obj
 0001:0005e3a0       ?allTrue@cloth@nv@@YAHAEBT__m128@@@Z 000000018005f3a0 f i SwCollision.obj
 0001:0005e3e0       ?allTrue@cloth@nv@@YAHAEBT__m128i@@@Z 000000018005f3e0 f i SwCollision.obj
 0001:0005e430       ?allocate@?$StackAllocator@$0BA@@cloth@nv@@QEAAPEAX_K@Z 000000018005f430 f i SwCollision.obj
 0001:0005e5d0       ?allocate@?$SwCollision@T__m128@@@cloth@nv@@AEAAXAEAUCollisionData@123@@Z 000000018005f5d0 f i SwCollision.obj
 0001:0005e670       ?anyEqual@cloth@nv@@YAHAEBT__m128i@@0AEAT3@@Z 000000018005f670 f i SwCollision.obj
 0001:0005e6d0       ?anyGreater@cloth@nv@@YAHAEBT__m128@@0AEAT3@@Z 000000018005f6d0 f i SwCollision.obj
 0001:0005e730       ?anyTrue@cloth@nv@@YAHAEBT__m128@@@Z 000000018005f730 f i SwCollision.obj
 0001:0005e750       ?anyTrue@cloth@nv@@YAHAEBT__m128i@@@Z 000000018005f750 f i SwCollision.obj
 0001:0005e780       ?array@cloth@nv@@YAAEAY03HAEAT__m128i@@@Z 000000018005f780 f i SwCollision.obj
 0001:0005e790       ?buildAcceleration@?$SwCollision@T__m128@@@cloth@nv@@AEAA_NXZ 000000018005f790 f i SwCollision.obj
 0001:0005f200       ?buildConeAcceleration@?$SwCollision@T__m128@@@cloth@nv@@AEAAXXZ 0000000180060200 f i SwCollision.obj
 0001:0005f360       ?buildSphereAcceleration@?$SwCollision@T__m128@@@cloth@nv@@AEAAXPEBUSphereData@23@@Z 0000000180060360 f i SwCollision.obj
 0001:0005f8c0       ?collideCones@?$SwCollision@T__m128@@@cloth@nv@@AEBA?AT__m128i@@PEBT__m128@@AEAUImpulseAccumulator@123@@Z 00000001800608c0 f i SwCollision.obj
 0001:00060d90       ?collideCones@?$SwCollision@T__m128@@@cloth@nv@@AEBA?AT__m128i@@PEBT__m128@@PEAT5@AEAUImpulseAccumulator@123@@Z 0000000180061d90 f i SwCollision.obj
 0001:000644d0       ?collideContinuousParticles@?$SwCollision@T__m128@@@cloth@nv@@AEAAXXZ 00000001800654d0 f i SwCollision.obj
 0001:00065340       ?collideConvexes@?$SwCollision@T__m128@@@cloth@nv@@AEAAXAEBU?$IterationState@T__m128@@@23@@Z 0000000180066340 f i SwCollision.obj
 0001:00066060       ?collideConvexes@?$SwCollision@T__m128@@@cloth@nv@@AEAAXPEBT__m128@@PEAT4@AEAUImpulseAccumulator@123@@Z 0000000180067060 f i SwCollision.obj
 0001:00066960       ?collideParticles@?$SwCollision@T__m128@@@cloth@nv@@AEAAXXZ 0000000180067960 f i SwCollision.obj
 0001:00067810       ?collideSpheres@?$SwCollision@T__m128@@@cloth@nv@@AEBAXAEBT__m128i@@PEBT__m128@@AEAUImpulseAccumulator@123@@Z 0000000180068810 f i SwCollision.obj
 0001:00067ea0       ?collideSpheres@?$SwCollision@T__m128@@@cloth@nv@@AEBAXAEBT__m128i@@PEBT__m128@@PEAT5@AEAUImpulseAccumulator@123@@Z 0000000180068ea0 f i SwCollision.obj
 0001:000693c0       ?collideTriangles@?$SwCollision@T__m128@@@cloth@nv@@AEAAXAEBU?$IterationState@T__m128@@@23@@Z 000000018006a3c0 f i SwCollision.obj
 0001:00069b90       ?collideTriangles@?$SwCollision@T__m128@@@cloth@nv@@AEAAXPEBUTriangleData@23@PEAT__m128@@AEAUImpulseAccumulator@123@@Z 000000018006ab90 f i SwCollision.obj
 0001:0006af60       ?collideVirtualParticles@?$SwCollision@T__m128@@@cloth@nv@@AEAAXXZ 000000018006bf60 f i SwCollision.obj
 0001:0006f8e0       ?computeBounds@?$SwCollision@T__m128@@@cloth@nv@@AEAAXXZ 00000001800708e0 f i SwCollision.obj
 0001:0006fcd0       ?cross3@cloth@nv@@YA?AT__m128@@AEBT3@0@Z 0000000180070cd0 f i SwCollision.obj
 0001:0006fe50       ?deallocate@?$StackAllocator@$0BA@@cloth@nv@@QEAAXPEAX@Z 0000000180070e50 f i SwCollision.obj
 0001:0006ff20       ?deallocate@?$SwCollision@T__m128@@@cloth@nv@@AEAAXAEBUCollisionData@123@@Z 0000000180070f20 f i SwCollision.obj
 0001:0006ff80       ?estimatePersistentMemory@?$SwCollision@T__m128@@@cloth@nv@@SA_KAEBVSwCloth@23@@Z 0000000180070f80 f i SwCollision.obj
 0001:00070010       ?estimateTemporaryMemory@?$SwCollision@T__m128@@@cloth@nv@@SA_KAEBVSwCloth@23@@Z 0000000180071010 f i SwCollision.obj
 0001:000700e0       ?findBitSet@cloth@nv@@YAII@Z 00000001800710e0 f i SwCollision.obj
 0001:00070140       ?getCurrentAlpha@?$IterationState@T__m128@@@cloth@nv@@QEBAMXZ 0000000180071140 f i SwCollision.obj
 0001:00070170       ?getHeader@?$StackAllocator@$0BA@@cloth@nv@@AEBAPEAUHeader@123@PEAX@Z 0000000180071170 f i SwCollision.obj
 0001:000702f0       ?getPreviousAlpha@?$IterationState@T__m128@@@cloth@nv@@QEBAMXZ 00000001800712f0 f i SwCollision.obj
 0001:00070340       ?getShapeMask@?$SwCollision@T__m128@@@cloth@nv@@AEBA?AUShapeMask@123@PEBT__m128@@0@Z 0000000180071340 f i SwCollision.obj
 0001:00070c50       ?getShapeMask@?$SwCollision@T__m128@@@cloth@nv@@AEBA?AUShapeMask@123@PEBT__m128@@@Z 0000000180071c50 f i SwCollision.obj
 0001:00070ff0       ?getShapeMask@?$SwCollision@T__m128@@@cloth@nv@@CA?AUShapeMask@123@AEBT__m128@@PEBT__m128i@@1@Z 0000000180071ff0 f i SwCollision.obj
 0001:00071120       ?horizontalOr@cloth@nv@@YA?AT__m128i@@AEBT3@@Z 0000000180072120 f i SwCollision.obj
 0001:00071210       ?intFloor@cloth@nv@@YA?AT__m128i@@AEBT__m128@@@Z 0000000180072210 f i SwCollision.obj
 0001:000712a0       ?loadAligned@cloth@nv@@YA?AUSimd4fAlignedLoadFactory@12@PEBM@Z 00000001800722a0 f i SwCollision.obj
 0001:000712e0       ?loadAligned@cloth@nv@@YA?AUSimd4fOffsetLoadFactory@12@PEBMI@Z 00000001800722e0 f i SwCollision.obj
 0001:00071320       ?loadAligned@cloth@nv@@YA?AUSimd4iOffsetLoadFactory@12@PEBHI@Z 0000000180072320 f i SwCollision.obj
 0001:00071360       ?mergeAcceleration@?$SwCollision@T__m128@@@cloth@nv@@CAXPEAI@Z 0000000180072360 f i SwCollision.obj
 0001:000713f0       ?select@cloth@nv@@YA?AT__m128i@@AEBT3@00@Z 00000001800723f0 f i SwCollision.obj
 0001:00071470       ?simd4f@cloth@nv@@YA?AT__m128@@AEBT__m128i@@@Z 0000000180072470 f i SwCollision.obj
 0001:000714a0       ?simd4i@cloth@nv@@YA?AT__m128i@@AEBT__m128@@@Z 00000001800724a0 f i SwCollision.obj
 0001:000714d0       ?sqrt@cloth@nv@@YA?AT__m128@@AEBT3@@Z 00000001800724d0 f i SwCollision.obj
 0001:00071500       ?store@cloth@nv@@YAXPEAMAEBT__m128@@@Z 0000000180072500 f i SwCollision.obj
 0001:00071530       ?storeAligned@cloth@nv@@YAXPEAMAEBT__m128@@@Z 0000000180072530 f i SwCollision.obj
 0001:00071560       ?storeAligned@cloth@nv@@YAXPEAMIAEBT__m128@@@Z 0000000180072560 f i SwCollision.obj
 0001:000715a0       ?subtract@ImpulseAccumulator@?$SwCollision@T__m128@@@cloth@nv@@QEAAXAEBT__m128@@0000@Z 00000001800725a0 f i SwCollision.obj
 0001:00071b70       ?transpose@cloth@nv@@YAXAEAT__m128@@000@Z 0000000180072b70 f i SwCollision.obj
 0001:00071d20       ??0SwTether@cloth@nv@@QEAA@GM@Z 0000000180072d20 f   SwFabric.obj
 0001:00071d60       ??0SwFabric@cloth@nv@@QEAA@AEAVSwFactory@12@IU?$Range@$$CBI@12@1U?$Range@$$CBM@12@21121I@Z 0000000180072d60 f   SwFabric.obj
 0001:000729d0       ??1SwFabric@cloth@nv@@UEAA@XZ 00000001800739d0 f   SwFabric.obj
 0001:00072b20       ?getFactory@SwFabric@cloth@nv@@UEBAAEAVFactory@23@XZ 0000000180073b20 f   SwFabric.obj
 0001:00072b40       ?getNumPhases@SwFabric@cloth@nv@@UEBAIXZ 0000000180073b40 f   SwFabric.obj
 0001:00072b70       ?getNumRestvalues@SwFabric@cloth@nv@@UEBAIXZ 0000000180073b70 f   SwFabric.obj
 0001:00072b90       ?getNumStiffnessValues@SwFabric@cloth@nv@@UEBAIXZ 0000000180073b90 f   SwFabric.obj
 0001:00072be0       ?getNumSets@SwFabric@cloth@nv@@UEBAIXZ 0000000180073be0 f   SwFabric.obj
 0001:00072c20       ?getNumIndices@SwFabric@cloth@nv@@UEBAIXZ 0000000180073c20 f   SwFabric.obj
 0001:00072c40       ?getNumParticles@SwFabric@cloth@nv@@UEBAIXZ 0000000180073c40 f   SwFabric.obj
 0001:00072c60       ?getNumTethers@SwFabric@cloth@nv@@UEBAIXZ 0000000180073c60 f   SwFabric.obj
 0001:00072c90       ?getNumTriangles@SwFabric@cloth@nv@@UEBAIXZ 0000000180073c90 f   SwFabric.obj
 0001:00072cd0       ?scaleRestvalues@SwFabric@cloth@nv@@UEAAXM@Z 0000000180073cd0 f   SwFabric.obj
 0001:00072d50       ?scaleTetherLengths@SwFabric@cloth@nv@@UEAAXM@Z 0000000180073d50 f   SwFabric.obj
 0001:000731a0       ??$swap@PEAG@ps@cloth@nv@@YAXAEAPEAG0@Z 00000001800741a0 f i SwFabric.obj
 0001:000731f0       ??$swap@PEAM@ps@cloth@nv@@YAXAEAPEAM0@Z 00000001800741f0 f i SwFabric.obj
 0001:00073240       ??0?$AlignedAllocator@$0CA@VNonTrackingAllocator@ps@cloth@nv@@@ps@cloth@nv@@QEAA@AEBVNonTrackingAllocator@123@@Z 0000000180074240 f i SwFabric.obj
 0001:00073260       ??0?$Array@GVNonTrackingAllocator@ps@cloth@nv@@@ps@cloth@nv@@QEAA@PEBG0AEBVNonTrackingAllocator@123@@Z 0000000180074260 f i SwFabric.obj
 0001:00073340       ??0?$Array@MV?$AlignedAllocator@$0CA@VNonTrackingAllocator@ps@cloth@nv@@@ps@cloth@nv@@@ps@cloth@nv@@QEAA@AEBV?$AlignedAllocator@$0CA@VNonTrackingAllocator@ps@cloth@nv@@@123@@Z 0000000180074340 f i SwFabric.obj
 0001:00073390       ??0?$Array@MV?$AlignedAllocator@$0CA@VNonTrackingAllocator@ps@cloth@nv@@@ps@cloth@nv@@@ps@cloth@nv@@QEAA@PEBM0AEBV?$AlignedAllocator@$0CA@VNonTrackingAllocator@ps@cloth@nv@@@123@@Z 0000000180074390 f i SwFabric.obj
 0001:00073470       ??0?$Array@USwTether@cloth@nv@@VNonTrackingAllocator@ps@23@@ps@cloth@nv@@QEAA@AEBVNonTrackingAllocator@123@@Z 0000000180074470 f i SwFabric.obj
 0001:000734c0       ??1?$Array@MV?$AlignedAllocator@$0CA@VNonTrackingAllocator@ps@cloth@nv@@@ps@cloth@nv@@@ps@cloth@nv@@QEAA@XZ 00000001800744c0 f i SwFabric.obj
 0001:00073540       ??1?$Array@USwTether@cloth@nv@@VNonTrackingAllocator@ps@23@@ps@cloth@nv@@QEAA@XZ 0000000180074540 f i SwFabric.obj
 0001:000735c0       ??_ESwFabric@cloth@nv@@UEAAPEAXI@Z 00000001800745c0 f i SwFabric.obj
 0001:000735c0       ??_GSwFabric@cloth@nv@@UEAAPEAXI@Z 00000001800745c0 f i SwFabric.obj
 0001:00073630       ?allocate@?$AlignedAllocator@$0CA@VNonTrackingAllocator@ps@cloth@nv@@@ps@cloth@nv@@QEAAPEAX_KPEBDH@Z 0000000180074630 f i SwFabric.obj
 0001:00073700       ?allocate@?$Array@MV?$AlignedAllocator@$0CA@VNonTrackingAllocator@ps@cloth@nv@@@ps@cloth@nv@@@ps@cloth@nv@@IEAAPEAMI@Z 0000000180074700 f i SwFabric.obj
 0001:000737b0       ?allocate@?$Array@PEAVSwFabric@cloth@nv@@VNonTrackingAllocator@ps@23@@ps@cloth@nv@@IEAAPEAPEAVSwFabric@34@I@Z 00000001800747b0 f i SwFabric.obj
 0001:00073860       ?allocate@?$Array@USwTether@cloth@nv@@VNonTrackingAllocator@ps@23@@ps@cloth@nv@@IEAAPEAUSwTether@34@I@Z 0000000180074860 f i SwFabric.obj
 0001:00073910       ?begin@?$Array@MV?$AlignedAllocator@$0CA@VNonTrackingAllocator@ps@cloth@nv@@@ps@cloth@nv@@@ps@cloth@nv@@QEAAPEAMXZ 0000000180074910 f i SwFabric.obj
 0001:00073930       ?capacity@?$Array@MV?$AlignedAllocator@$0CA@VNonTrackingAllocator@ps@cloth@nv@@@ps@cloth@nv@@@ps@cloth@nv@@QEBAIXZ 0000000180074930 f i SwFabric.obj
 0001:00073950       ?capacity@?$Array@PEAVSwFabric@cloth@nv@@VNonTrackingAllocator@ps@23@@ps@cloth@nv@@QEBAIXZ 0000000180074950 f i SwFabric.obj
 0001:00073970       ?capacity@?$Array@USwTether@cloth@nv@@VNonTrackingAllocator@ps@23@@ps@cloth@nv@@QEBAIXZ 0000000180074970 f i SwFabric.obj
 0001:00073990       ?capacityIncrement@?$Array@GVNonTrackingAllocator@ps@cloth@nv@@@ps@cloth@nv@@IEBAIXZ 0000000180074990 f i SwFabric.obj
 0001:000739e0       ?capacityIncrement@?$Array@MV?$AlignedAllocator@$0CA@VNonTrackingAllocator@ps@cloth@nv@@@ps@cloth@nv@@@ps@cloth@nv@@IEBAIXZ 00000001800749e0 f i SwFabric.obj
 0001:00073a30       ?capacityIncrement@?$Array@PEAVSwFabric@cloth@nv@@VNonTrackingAllocator@ps@23@@ps@cloth@nv@@IEBAIXZ 0000000180074a30 f i SwFabric.obj
 0001:00073a80       ?capacityIncrement@?$Array@USwTether@cloth@nv@@VNonTrackingAllocator@ps@23@@ps@cloth@nv@@IEBAIXZ 0000000180074a80 f i SwFabric.obj
 0001:00073ad0       ?copy@?$Array@MV?$AlignedAllocator@$0CA@VNonTrackingAllocator@ps@cloth@nv@@@ps@cloth@nv@@@ps@cloth@nv@@KAXPEAM0PEBM@Z 0000000180074ad0 f i SwFabric.obj
 0001:00073b70       ?copy@?$Array@PEAVSwFabric@cloth@nv@@VNonTrackingAllocator@ps@23@@ps@cloth@nv@@KAXPEAPEAVSwFabric@34@0PEBQEAV534@@Z 0000000180074b70 f i SwFabric.obj
 0001:00073c10       ?copy@?$Array@USwTether@cloth@nv@@VNonTrackingAllocator@ps@23@@ps@cloth@nv@@KAXPEAUSwTether@34@0PEBU534@@Z 0000000180074c10 f i SwFabric.obj
 0001:00073cb0       ?deallocate@?$AlignedAllocator@$0CA@VNonTrackingAllocator@ps@cloth@nv@@@ps@cloth@nv@@QEAAXPEAX@Z 0000000180074cb0 f i SwFabric.obj
 0001:00073d20       ?deallocate@?$Array@MV?$AlignedAllocator@$0CA@VNonTrackingAllocator@ps@cloth@nv@@@ps@cloth@nv@@@ps@cloth@nv@@IEAAXPEAX@Z 0000000180074d20 f i SwFabric.obj
 0001:00073d50       ?deallocate@?$Array@PEAVSwFabric@cloth@nv@@VNonTrackingAllocator@ps@23@@ps@cloth@nv@@IEAAXPEAX@Z 0000000180074d50 f i SwFabric.obj
 0001:00073d80       ?deallocate@?$Array@USwTether@cloth@nv@@VNonTrackingAllocator@ps@23@@ps@cloth@nv@@IEAAXPEAX@Z 0000000180074d80 f i SwFabric.obj
 0001:00073db0       ?destroy@?$Array@MV?$AlignedAllocator@$0CA@VNonTrackingAllocator@ps@cloth@nv@@@ps@cloth@nv@@@ps@cloth@nv@@KAXPEAM0@Z 0000000180074db0 f i SwFabric.obj
 0001:00073df0       ?destroy@?$Array@PEAVSwFabric@cloth@nv@@VNonTrackingAllocator@ps@23@@ps@cloth@nv@@KAXPEAPEAVSwFabric@34@0@Z 0000000180074df0 f i SwFabric.obj
 0001:00073e30       ?destroy@?$Array@USwTether@cloth@nv@@VNonTrackingAllocator@ps@23@@ps@cloth@nv@@KAXPEAUSwTether@34@0@Z 0000000180074e30 f i SwFabric.obj
 0001:00073e70       ?end@?$Array@MV?$AlignedAllocator@$0CA@VNonTrackingAllocator@ps@cloth@nv@@@ps@cloth@nv@@@ps@cloth@nv@@QEAAPEAMXZ 0000000180074e70 f i SwFabric.obj
 0001:00073ea0       ?find@?$Array@PEAVSwFabric@cloth@nv@@VNonTrackingAllocator@ps@23@@ps@cloth@nv@@QEAAPEAPEAVSwFabric@34@AEBQEAV534@@Z 0000000180074ea0 f i SwFabric.obj
 0001:00073f20       ?grow@?$Array@USwTether@cloth@nv@@VNonTrackingAllocator@ps@23@@ps@cloth@nv@@IEAAXI@Z 0000000180074f20 f i SwFabric.obj
 0001:00073fc0       ?growAndPushBack@?$Array@GVNonTrackingAllocator@ps@cloth@nv@@@ps@cloth@nv@@IEAAAEAGAEBG@Z 0000000180074fc0 f i SwFabric.obj
 0001:000741b0       ?growAndPushBack@?$Array@MV?$AlignedAllocator@$0CA@VNonTrackingAllocator@ps@cloth@nv@@@ps@cloth@nv@@@ps@cloth@nv@@IEAAAEAMAEBM@Z 00000001800751b0 f i SwFabric.obj
 0001:000743a0       ?growAndPushBack@?$Array@PEAVSwFabric@cloth@nv@@VNonTrackingAllocator@ps@23@@ps@cloth@nv@@IEAAAEAPEAVSwFabric@34@AEBQEAV534@@Z 00000001800753a0 f i SwFabric.obj
 0001:00074590       ?growAndPushBack@?$Array@USwTether@cloth@nv@@VNonTrackingAllocator@ps@23@@ps@cloth@nv@@IEAAAEAUSwTether@34@AEBU534@@Z 0000000180075590 f i SwFabric.obj
 0001:00074780       ?isInUserMemory@?$Array@MV?$AlignedAllocator@$0CA@VNonTrackingAllocator@ps@cloth@nv@@@ps@cloth@nv@@@ps@cloth@nv@@QEBAIXZ 0000000180075780 f i SwFabric.obj
 0001:000747a0       ?isInUserMemory@?$Array@PEAVSwFabric@cloth@nv@@VNonTrackingAllocator@ps@23@@ps@cloth@nv@@QEBAIXZ 00000001800757a0 f i SwFabric.obj
 0001:000747c0       ?isInUserMemory@?$Array@USwTether@cloth@nv@@VNonTrackingAllocator@ps@23@@ps@cloth@nv@@QEBAIXZ 00000001800757c0 f i SwFabric.obj
 0001:000747e0       ?pushBack@?$Array@GVNonTrackingAllocator@ps@cloth@nv@@@ps@cloth@nv@@QEAAAEAGAEBG@Z 00000001800757e0 f i SwFabric.obj
 0001:000748b0       ?pushBack@?$Array@MV?$AlignedAllocator@$0CA@VNonTrackingAllocator@ps@cloth@nv@@@ps@cloth@nv@@@ps@cloth@nv@@QEAAAEAMAEBM@Z 00000001800758b0 f i SwFabric.obj
 0001:00074980       ?pushBack@?$Array@PEAVSwFabric@cloth@nv@@VNonTrackingAllocator@ps@23@@ps@cloth@nv@@QEAAAEAPEAVSwFabric@34@AEBQEAV534@@Z 0000000180075980 f i SwFabric.obj
 0001:00074a50       ?pushBack@?$Array@USwTether@cloth@nv@@VNonTrackingAllocator@ps@23@@ps@cloth@nv@@QEAAAEAUSwTether@34@AEBU534@@Z 0000000180075a50 f i SwFabric.obj
 0001:00074b20       ?recreate@?$Array@USwTether@cloth@nv@@VNonTrackingAllocator@ps@23@@ps@cloth@nv@@IEAAXI@Z 0000000180075b20 f i SwFabric.obj
 0001:00074c80       ?replaceWithLast@?$Array@PEAVSwFabric@cloth@nv@@VNonTrackingAllocator@ps@23@@ps@cloth@nv@@QEAAXI@Z 0000000180075c80 f i SwFabric.obj
 0001:00074d50       ?replaceWithLast@?$Array@PEAVSwFabric@cloth@nv@@VNonTrackingAllocator@ps@23@@ps@cloth@nv@@QEAAXPEAPEAVSwFabric@34@@Z 0000000180075d50 f i SwFabric.obj
 0001:00074da0       ?reserve@?$Array@USwTether@cloth@nv@@VNonTrackingAllocator@ps@23@@ps@cloth@nv@@QEAAXI@Z 0000000180075da0 f i SwFabric.obj
 0001:00074de0       ?swap@?$Array@GVNonTrackingAllocator@ps@cloth@nv@@@ps@cloth@nv@@QEAAXAEAV1234@@Z 0000000180075de0 f i SwFabric.obj
 0001:00074e60       ?swap@?$Array@MV?$AlignedAllocator@$0CA@VNonTrackingAllocator@ps@cloth@nv@@@ps@cloth@nv@@@ps@cloth@nv@@QEAAXAEAV1234@@Z 0000000180075e60 f i SwFabric.obj
 0001:00074ee0       ??0SwFactory@cloth@nv@@QEAA@XZ 0000000180075ee0 f   SwFactory.obj
 0001:00074f40       ??1SwFactory@cloth@nv@@UEAA@XZ 0000000180075f40 f   SwFactory.obj
 0001:00074fe0       ?createFabric@SwFactory@cloth@nv@@UEAAPEAVFabric@23@IU?$Range@$$CBI@23@0U?$Range@$$CBM@23@10010@Z 0000000180075fe0 f   SwFactory.obj
 0001:000751b0       ?createCloth@SwFactory@cloth@nv@@UEAAPEAVCloth@23@U?$Range@$$CBVPxVec4@physx@@@23@AEAVFabric@23@@Z 00000001800761b0 f   SwFactory.obj
 0001:00075250       ?createSolver@SwFactory@cloth@nv@@UEAAPEAVSolver@23@XZ 0000000180076250 f   SwFactory.obj
 0001:000752b0       ?clone@SwFactory@cloth@nv@@UEAAPEAVCloth@23@AEBV423@@Z 00000001800762b0 f   SwFactory.obj
 0001:00075360       ?extractFabricData@SwFactory@cloth@nv@@UEBAXAEBVFabric@23@U?$Range@I@23@1U?$Range@M@23@21121@Z 0000000180076360 f   SwFactory.obj
 0001:00075d00       ?extractCollisionData@SwFactory@cloth@nv@@UEBAXAEBVCloth@23@U?$Range@VPxVec4@physx@@@23@U?$Range@I@23@12U?$Range@VPxVec3@physx@@@23@@Z 0000000180076d00 f   SwFactory.obj
 0001:00076320       ?extractMotionConstraints@SwFactory@cloth@nv@@UEBAXAEBVCloth@23@U?$Range@VPxVec4@physx@@@23@@Z 0000000180077320 f   SwFactory.obj
 0001:000764e0       ?extractSeparationConstraints@SwFactory@cloth@nv@@UEBAXAEBVCloth@23@U?$Range@VPxVec4@physx@@@23@@Z 00000001800774e0 f   SwFactory.obj
 0001:000766a0       ?extractParticleAccelerations@SwFactory@cloth@nv@@UEBAXAEBVCloth@23@U?$Range@VPxVec4@physx@@@23@@Z 00000001800776a0 f   SwFactory.obj
 0001:00076820       ?extractVirtualParticles@SwFactory@cloth@nv@@UEBAXAEBVCloth@23@U?$Range@$$BY03I@23@U?$Range@VPxVec3@physx@@@23@@Z 0000000180077820 f   SwFactory.obj
 0001:00076c60       ?extractSelfCollisionIndices@SwFactory@cloth@nv@@UEBAXAEBVCloth@23@U?$Range@I@23@@Z 0000000180077c60 f   SwFactory.obj
 0001:00076d50       ?extractRestPositions@SwFactory@cloth@nv@@UEBAXAEBVCloth@23@U?$Range@VPxVec4@physx@@@23@@Z 0000000180077d50 f   SwFactory.obj
 0001:00077610       ??$max@G@std@@YAAEBGAEBG0@Z 0000000180078610 f i SwFactory.obj
 0001:00077670       ??0?$Array@PEAVSwFabric@cloth@nv@@VNonTrackingAllocator@ps@23@@ps@cloth@nv@@QEAA@AEBVNonTrackingAllocator@123@@Z 0000000180078670 f i SwFactory.obj
 0001:000776c0       ??1?$Array@PEAVSwFabric@cloth@nv@@VNonTrackingAllocator@ps@23@@ps@cloth@nv@@QEAA@XZ 00000001800786c0 f i SwFactory.obj
 0001:00077740       ??A?$Array@GVNonTrackingAllocator@ps@cloth@nv@@@ps@cloth@nv@@QEBAAEBGI@Z 0000000180078740 f i SwFactory.obj
 0001:000777e0       ??A?$Array@IVNonTrackingAllocator@ps@cloth@nv@@@ps@cloth@nv@@QEBAAEBII@Z 00000001800787e0 f i SwFactory.obj
 0001:00077880       ??A?$Array@USwTether@cloth@nv@@VNonTrackingAllocator@ps@23@@ps@cloth@nv@@QEBAAEBUSwTether@23@I@Z 0000000180078880 f i SwFactory.obj
 0001:00077920       ??_ESwFactory@cloth@nv@@UEAAPEAXI@Z 0000000180078920 f i SwFactory.obj
 0001:00077920       ??_GSwFactory@cloth@nv@@UEAAPEAXI@Z 0000000180078920 f i SwFactory.obj
 0001:00077990       ?begin@?$Array@MV?$AlignedAllocator@$0CA@VNonTrackingAllocator@ps@cloth@nv@@@ps@cloth@nv@@@ps@cloth@nv@@QEBAPEBMXZ 0000000180078990 f i SwFactory.obj
 0001:000779b0       ?empty@?$Range@$$BY03I@cloth@nv@@QEBA_NXZ 00000001800789b0 f i SwFactory.obj
 0001:00077a00       ?end@?$Array@IVNonTrackingAllocator@ps@cloth@nv@@@ps@cloth@nv@@QEBAPEBIXZ 0000000180078a00 f i SwFactory.obj
 0001:00077a30       ?end@?$Array@U?$Vec4T@G@cloth@nv@@VNonTrackingAllocator@ps@23@@ps@cloth@nv@@QEBAPEBU?$Vec4T@G@34@XZ 0000000180078a30 f i SwFactory.obj
 0001:00077a60       ?front@?$Array@UIndexPair@cloth@nv@@VNonTrackingAllocator@ps@23@@ps@cloth@nv@@QEBAAEBUIndexPair@34@XZ 0000000180078a60 f i SwFactory.obj
 0001:00077af0       ?front@?$Array@VPxVec3@physx@@VNonTrackingAllocator@ps@cloth@nv@@@ps@cloth@nv@@QEBAAEBVPxVec3@physx@@XZ 0000000180078af0 f i SwFactory.obj
 0001:00077b80       ?getPlatform@SwFactory@cloth@nv@@UEBA?AW4Platform@23@XZ 0000000180078b80 f i SwFactory.obj
 0001:00077b90       ?size@?$Array@PEAVSwFabric@cloth@nv@@VNonTrackingAllocator@ps@23@@ps@cloth@nv@@QEBAIXZ 0000000180078b90 f i SwFactory.obj
 0001:00079c70       ??$expandBounds@T__m128@@@cloth@nv@@YA?AU?$BoundingBox@T__m128@@@01@AEBU201@PEBT__m128@@1@Z 000000018007ac70 f i SwInterCollision.obj
 0001:00079db0       ??$isEmptyBounds@T__m128@@@cloth@nv@@YA_NAEBU?$BoundingBox@T__m128@@@01@@Z 000000018007adb0 f i SwInterCollision.obj
 0001:00079f10       ??$max@PEAI@std@@YAAEBQEAIAEBQEAI0@Z 000000018007af10 f i SwInterCollision.obj
 0001:0007a580       ??$rsqrt@$00@cloth@nv@@YA?AT__m128@@AEBT2@@Z 000000018007b580 f i SwInterCollision.obj
 0001:0007afd0       ??0?$Stack@VNonTrackingAllocator@ps@cloth@nv@@@internal@ps@cloth@nv@@QEAA@PEAHIAEBVNonTrackingAllocator@234@@Z 000000018007bfd0 f i SwInterCollision.obj
 0001:0007b030       ??0?$SwInterCollision@T__m128@@@cloth@nv@@QEAA@PEBUSwInterCollisionData@12@IMMIP6A_NPEAX1@ZAEAV?$StackAllocator@$0BA@@12@@Z 000000018007c030 f i SwInterCollision.obj
 0001:0007b300       ??0PxBounds3@physx@@QEAA@AEBVPxVec3@1@0@Z 000000018007c300 f i SwInterCollision.obj
 0001:0007b360       ??0PxMat33@physx@@QEAA@AEBVPxQuat@1@@Z 000000018007c360 f i SwInterCollision.obj
 0001:0007b6c0       ??0PxMat44@physx@@QEAA@AEBVPxMat33@1@AEBVPxVec3@1@@Z 000000018007c6c0 f i SwInterCollision.obj
 0001:0007b770       ??0PxMat44@physx@@QEAA@AEBVPxTransform@1@@Z 000000018007c770 f i SwInterCollision.obj
 0001:0007b870       ??0PxTransform@physx@@QEAA@AEBVPxVec3@1@AEBVPxQuat@1@@Z 000000018007c870 f i SwInterCollision.obj
 0001:0007b910       ??1?$ScopedPointer@HX@ps@cloth@nv@@QEAA@XZ 000000018007c910 f i SwInterCollision.obj
 0001:0007b960       ??1?$Stack@VNonTrackingAllocator@ps@cloth@nv@@@internal@ps@cloth@nv@@QEAA@XZ 000000018007c960 f i SwInterCollision.obj
 0001:0007b9b0       ??1?$SwInterCollision@T__m128@@@cloth@nv@@QEAA@XZ 000000018007c9b0 f i SwInterCollision.obj
 0001:0007b9c0       ??4PxMat44@physx@@QEAAAEAV01@AEBV01@@Z 000000018007c9c0 f i SwInterCollision.obj
 0001:0007ba60       ??B?$ScopedPointer@HX@ps@cloth@nv@@QEBAPEAHXZ 000000018007ca60 f i SwInterCollision.obj
 0001:0007ba80       ??DPxTransform@physx@@QEBA?AV01@AEBV01@@Z 000000018007ca80 f i SwInterCollision.obj
 0001:0007bb00       ??GPxVec3@physx@@QEBA?AV01@XZ 000000018007cb00 f i SwInterCollision.obj
 0001:0007bb90       ??HPxVec3@physx@@QEBA?AV01@AEBV01@@Z 000000018007cb90 f i SwInterCollision.obj
 0001:0007bc30       ??R?$SwInterCollision@T__m128@@@cloth@nv@@QEAAXXZ 000000018007cc30 f i SwInterCollision.obj
 0001:0007cc70       ?PxAbs@physx@@YAMM@Z       000000018007dc70 f i SwInterCollision.obj
 0001:0007cca0       ?PxIsFinite@physx@@YA_NM@Z 000000018007dca0 f i SwInterCollision.obj
 0001:0007ccd0       ?abs@intrinsics@physx@@YAMM@Z 000000018007dcd0 f i SwInterCollision.obj
 0001:0007cd00       ?allGreater@cloth@nv@@YAHAEBT__m128@@0@Z 000000018007dd00 f i SwInterCollision.obj
 0001:0007cd40       ?anyGreater@cloth@nv@@YAHAEBT__m128@@0@Z 000000018007dd40 f i SwInterCollision.obj
 0001:0007cd80       ?array@cloth@nv@@YAAEAY03$$CBHAEBT__m128i@@@Z 000000018007dd80 f i SwInterCollision.obj
 0001:0007cd90       ?basisExtent@PxBounds3@physx@@SA?AV12@AEBVPxVec3@2@AEBVPxMat33@2@0@Z 000000018007dd90 f i SwInterCollision.obj
 0001:0007d080       ?centerExtents@PxBounds3@physx@@SA?AV12@AEBVPxVec3@2@0@Z 000000018007e080 f i SwInterCollision.obj
 0001:0007d100       ?collideParticle@?$SwInterCollision@T__m128@@@cloth@nv@@AEAAXI@Z 000000018007e100 f i SwInterCollision.obj
 0001:0007d6c0       ?collideParticles@?$SwInterCollision@T__m128@@@cloth@nv@@AEAAXPEBII0II@Z 000000018007e6c0 f i SwInterCollision.obj
 0001:0007e0e0       ?empty@?$Stack@VNonTrackingAllocator@ps@cloth@nv@@@internal@ps@cloth@nv@@QEAA_NXZ 000000018007f0e0 f i SwInterCollision.obj
 0001:0007e120       ?estimateTemporaryMemory@?$SwInterCollision@T__m128@@@cloth@nv@@SA_KPEAUSwInterCollisionData@23@I@Z 000000018007f120 f i SwInterCollision.obj
 0001:0007e220       ?getBufferSize@?$SwInterCollision@T__m128@@@cloth@nv@@CA_KI@Z 000000018007f220 f i SwInterCollision.obj
 0001:0007e2e0       ?getCenter@PxBounds3@physx@@QEBA?AVPxVec3@2@XZ 000000018007f2e0 f i SwInterCollision.obj
 0001:0007e380       ?getDimensions@PxBounds3@physx@@QEBA?AVPxVec3@2@XZ 000000018007f380 f i SwInterCollision.obj
 0001:0007e400       ?getExtents@PxBounds3@physx@@QEBA?AVPxVec3@2@XZ 000000018007f400 f i SwInterCollision.obj
 0001:0007e490       ?getInverse@PxTransform@physx@@QEBA?AV12@XZ 000000018007f490 f i SwInterCollision.obj
 0001:0007e550       ?getParticle@?$SwInterCollision@T__m128@@@cloth@nv@@AEAAAEAT__m128@@I@Z 000000018007f550 f i SwInterCollision.obj
 0001:0007e6a0       ?grow@?$Stack@VNonTrackingAllocator@ps@cloth@nv@@@internal@ps@cloth@nv@@QEAAXXZ 000000018007f6a0 f i SwInterCollision.obj
 0001:0007e780       ?isEmpty@PxBounds3@physx@@QEBA_NXZ 000000018007f780 f i SwInterCollision.obj
 0001:0007e810       ?isFinite@PxBounds3@physx@@QEBA_NXZ 000000018007f810 f i SwInterCollision.obj
 0001:0007e880       ?isFinite@PxQuat@physx@@QEBA_NXZ 000000018007f880 f i SwInterCollision.obj
 0001:0007e920       ?isFinite@PxTransform@physx@@QEBA_NXZ 000000018007f920 f i SwInterCollision.obj
 0001:0007e990       ?isFinite@PxVec3@physx@@QEBA_NXZ 000000018007f990 f i SwInterCollision.obj
 0001:0007ea20       ?isFinite@intrinsics@physx@@YA_NM@Z 000000018007fa20 f i SwInterCollision.obj
 0001:0007ea70       ?isSane@PxQuat@physx@@QEBA_NXZ 000000018007fa70 f i SwInterCollision.obj
 0001:0007eaf0       ?isSane@PxTransform@physx@@QEBA_NXZ 000000018007faf0 f i SwInterCollision.obj
 0001:0007eb50       ?isValid@PxBounds3@physx@@QEBA_NXZ 000000018007fb50 f i SwInterCollision.obj
 0001:0007ec80       ?magnitude@PxQuat@physx@@QEBAMXZ 000000018007fc80 f i SwInterCollision.obj
 0001:0007ecb0       ?memCopy@intrinsics@physx@@YAPEAXPEAXPEBXI@Z 000000018007fcb0 f i SwInterCollision.obj
 0001:0007ecf0       ?pop@?$Stack@VNonTrackingAllocator@ps@cloth@nv@@@internal@ps@cloth@nv@@QEAAXAEAH0@Z 000000018007fcf0 f i SwInterCollision.obj
 0001:0007ee00       ?push@?$Stack@VNonTrackingAllocator@ps@cloth@nv@@@internal@ps@cloth@nv@@QEAAXHH@Z 000000018007fe00 f i SwInterCollision.obj
 0001:0007eeb0       ?rotate@PxQuat@physx@@QEBA?BVPxVec3@2@AEBV32@@Z 000000018007feb0 f i SwInterCollision.obj
 0001:0007f100       ?rotateInv@PxQuat@physx@@QEBA?BVPxVec3@2@AEBV32@@Z 0000000180080100 f i SwInterCollision.obj
 0001:0007f350       ?transform@PxTransform@physx@@QEBA?AV12@AEBV12@@Z 0000000180080350 f i SwInterCollision.obj
 0001:0007f490       ?transform@PxTransform@physx@@QEBA?AVPxVec3@2@AEBV32@@Z 0000000180080490 f i SwInterCollision.obj
 0001:0007f540       ?transformFast@PxBounds3@physx@@SA?AV12@AEBVPxTransform@2@AEBV12@@Z 0000000180080540 f i SwInterCollision.obj
 0001:00080340       ??$collideParticles@$00@?$SwSelfCollision@T__m128@@@cloth@nv@@AEAAXAEAT__m128@@0AEBT3@1@Z 0000000180081340 f i SwSelfCollision.obj
 0001:000807f0       ??$collideParticles@$00@?$SwSelfCollision@T__m128@@@cloth@nv@@AEAAXPEBIGPEBGI@Z 00000001800817f0 f i SwSelfCollision.obj
 0001:000811b0       ??$collideParticles@$0A@@?$SwSelfCollision@T__m128@@@cloth@nv@@AEAAXAEAT__m128@@0AEBT3@1@Z 00000001800821b0 f i SwSelfCollision.obj
 0001:00081660       ??$collideParticles@$0A@@?$SwSelfCollision@T__m128@@@cloth@nv@@AEAAXPEBIGPEBGI@Z 0000000180082660 f i SwSelfCollision.obj
 0001:00082120       ??0?$SwSelfCollision@T__m128@@@cloth@nv@@QEAA@AEAUSwClothData@12@AEAV?$StackAllocator@$0BA@@12@@Z 0000000180083120 f i SwSelfCollision.obj
 0001:00082280       ??1?$SwSelfCollision@T__m128@@@cloth@nv@@QEAA@XZ 0000000180083280 f i SwSelfCollision.obj
 0001:00082290       ??R?$SwSelfCollision@T__m128@@@cloth@nv@@QEAAXXZ 0000000180083290 f i SwSelfCollision.obj
 0001:00082c70       ?estimateTemporaryMemory@?$SwSelfCollision@T__m128@@@cloth@nv@@SA_KAEBVSwCloth@23@@Z 0000000180083c70 f i SwSelfCollision.obj
 0001:00082d30       ?getBufferSize@?$SwSelfCollision@T__m128@@@cloth@nv@@CA_KI@Z 0000000180083d30 f i SwSelfCollision.obj
 0001:00082e80       ??0SimulatedCloth@SwSolver@cloth@nv@@QEAA@AEAVSwCloth@23@PEAV123@@Z 0000000180083e80 f   SwSolver.obj
 0001:00082ee0       ?Destroy@SimulatedCloth@SwSolver@cloth@nv@@QEAAXXZ 0000000180083ee0 f   SwSolver.obj
 0001:00083060       ?Simulate@SimulatedCloth@SwSolver@cloth@nv@@QEAAXXZ 0000000180084060 f   SwSolver.obj
 0001:000832a0       ??0SwSolver@cloth@nv@@QEAA@XZ 00000001800842a0 f   SwSolver.obj
 0001:00083390       ??1SwSolver@cloth@nv@@UEAA@XZ 0000000180084390 f   SwSolver.obj
 0001:00083490       ?addCloth@SwSolver@cloth@nv@@UEAAXPEAVCloth@23@@Z 0000000180084490 f   SwSolver.obj
 0001:000834d0       ?addCloths@SwSolver@cloth@nv@@UEAAXU?$Range@PEAVCloth@cloth@nv@@@23@@Z 00000001800844d0 f   SwSolver.obj
 0001:00083540       ?removeCloth@SwSolver@cloth@nv@@UEAAXPEAVCloth@23@@Z 0000000180084540 f   SwSolver.obj
 0001:00083680       ?getNumCloths@SwSolver@cloth@nv@@UEBAHXZ 0000000180084680 f   SwSolver.obj
 0001:000836b0       ?getClothList@SwSolver@cloth@nv@@UEBAPEBQEAVCloth@23@XZ 00000001800846b0 f   SwSolver.obj
 0001:00083700       ?beginSimulation@SwSolver@cloth@nv@@UEAA_NM@Z 0000000180084700 f   SwSolver.obj
 0001:00083760       ?simulateChunk@SwSolver@cloth@nv@@UEAAXH@Z 0000000180084760 f   SwSolver.obj
 0001:00083820       ?endSimulation@SwSolver@cloth@nv@@UEAAXXZ 0000000180084820 f   SwSolver.obj
 0001:000838b0       ?getSimulationChunkCount@SwSolver@cloth@nv@@UEBAHXZ 00000001800848b0 f   SwSolver.obj
 0001:000838e0       ?addClothAppend@SwSolver@cloth@nv@@AEAAXPEAVCloth@23@@Z 00000001800848e0 f   SwSolver.obj
 0001:000839f0       ?beginFrame@SwSolver@cloth@nv@@AEBAXXZ 00000001800849f0 f   SwSolver.obj
 0001:00083a60       ?endFrame@SwSolver@cloth@nv@@AEBAXXZ 0000000180084a60 f   SwSolver.obj
 0001:00083ac0       ?interCollision@SwSolver@cloth@nv@@AEAAXXZ 0000000180084ac0 f   SwSolver.obj
 0001:000843d0       ??$?0VSwCloth@cloth@nv@@@IterationStateFactory@cloth@nv@@QEAA@AEAVSwCloth@12@M@Z 00000001800853d0 f i SwSolver.obj
 0001:00084920       ??$median3@USimulatedCloth@SwSolver@cloth@nv@@Q6A_NAEBU1234@0@Z@internal@ps@cloth@nv@@YAXPEAUSimulatedCloth@SwSolver@23@HHAEBQ6A_NAEBU4523@1@Z@Z 0000000180085920 f i SwSolver.obj
 0001:00084b30       ??$partition@USimulatedCloth@SwSolver@cloth@nv@@Q6A_NAEBU1234@0@Z@internal@ps@cloth@nv@@YAHPEAUSimulatedCloth@SwSolver@23@HHAEBQ6A_NAEBU4523@1@Z@Z 0000000180085b30 f i SwSolver.obj
 0001:00084dc0       ??$smallSort@USimulatedCloth@SwSolver@cloth@nv@@Q6A_NAEBU1234@0@Z@internal@ps@cloth@nv@@YAXPEAUSimulatedCloth@SwSolver@23@HHAEBQ6A_NAEBU4523@1@Z@Z 0000000180085dc0 f i SwSolver.obj
 0001:00084ef0       ??$sort@USimulatedCloth@SwSolver@cloth@nv@@P6A_NAEBU1234@0@ZVNonTrackingAllocator@ps@34@@ps@cloth@nv@@YAXPEAUSimulatedCloth@SwSolver@12@IAEBQ6A_NAEBU3412@1@ZAEBVNonTrackingAllocator@012@I@Z 0000000180085ef0 f i SwSolver.obj
 0001:00085470       ??$swap@USimulatedCloth@SwSolver@cloth@nv@@@ps@cloth@nv@@YAXAEAUSimulatedCloth@SwSolver@12@0@Z 0000000180086470 f i SwSolver.obj
 0001:00085520       ??$swap@VPxVec3@physx@@VNonTrackingAllocator@ps@cloth@nv@@@ps@cloth@nv@@YAXAEAV?$Array@VPxVec3@physx@@VNonTrackingAllocator@ps@cloth@nv@@@012@0@Z 0000000180086520 f i SwSolver.obj
 0001:00085550       ??0?$Array@PEAVSwCloth@cloth@nv@@VNonTrackingAllocator@ps@23@@ps@cloth@nv@@QEAA@AEBVNonTrackingAllocator@123@@Z 0000000180086550 f i SwSolver.obj
 0001:000855a0       ??0?$Array@USimulatedCloth@SwSolver@cloth@nv@@VNonTrackingAllocator@ps@34@@ps@cloth@nv@@QEAA@AEBVNonTrackingAllocator@123@@Z 00000001800865a0 f i SwSolver.obj
 0001:000855f0       ??0SIMDGuard@ps@cloth@nv@@QEAA@XZ 00000001800865f0 f i SwSolver.obj
 0001:00085630       ??1?$Array@PEAVSwCloth@cloth@nv@@VNonTrackingAllocator@ps@23@@ps@cloth@nv@@QEAA@XZ 0000000180086630 f i SwSolver.obj
 0001:000856b0       ??1?$Array@USimulatedCloth@SwSolver@cloth@nv@@VNonTrackingAllocator@ps@34@@ps@cloth@nv@@QEAA@XZ 00000001800866b0 f i SwSolver.obj
 0001:00085730       ??1?$SwSolverKernel@T__m128@@@cloth@nv@@QEAA@XZ 0000000180086730 f i SwSolver.obj
 0001:00085780       ??1SIMDGuard@ps@cloth@nv@@QEAA@XZ 0000000180086780 f i SwSolver.obj
 0001:000857b0       ??4FPUGuard@ps@cloth@nv@@QEAAAEAV0123@AEBV0123@@Z 00000001800867b0 f i SwSolver.obj
 0001:000857e0       ??A?$Array@PEAVSwCloth@cloth@nv@@VNonTrackingAllocator@ps@23@@ps@cloth@nv@@QEBAAEBQEAVSwCloth@23@I@Z 00000001800867e0 f i SwSolver.obj
 0001:00085880       ??A?$Array@USimulatedCloth@SwSolver@cloth@nv@@VNonTrackingAllocator@ps@34@@ps@cloth@nv@@QEAAAEAUSimulatedCloth@SwSolver@23@I@Z 0000000180086880 f i SwSolver.obj
 0001:00085920       ??_ESwSolver@cloth@nv@@UEAAPEAXI@Z 0000000180086920 f i SwSolver.obj
 0001:00085920       ??_GSwSolver@cloth@nv@@UEAAPEAXI@Z 0000000180086920 f i SwSolver.obj
 0001:00085990       ?allocate@?$Array@PEAVSwCloth@cloth@nv@@VNonTrackingAllocator@ps@23@@ps@cloth@nv@@IEAAPEAPEAVSwCloth@34@I@Z 0000000180086990 f i SwSolver.obj
 0001:00085a40       ?allocate@?$Array@USimulatedCloth@SwSolver@cloth@nv@@VNonTrackingAllocator@ps@34@@ps@cloth@nv@@IEAAPEAUSimulatedCloth@SwSolver@34@I@Z 0000000180086a40 f i SwSolver.obj
 0001:00085af0       ?begin@?$Array@USimulatedCloth@SwSolver@cloth@nv@@VNonTrackingAllocator@ps@34@@ps@cloth@nv@@QEAAPEAUSimulatedCloth@SwSolver@34@XZ 0000000180086af0 f i SwSolver.obj
 0001:00085b10       ?capacity@?$Array@PEAVSwCloth@cloth@nv@@VNonTrackingAllocator@ps@23@@ps@cloth@nv@@QEBAIXZ 0000000180086b10 f i SwSolver.obj
 0001:00085b30       ?capacity@?$Array@USimulatedCloth@SwSolver@cloth@nv@@VNonTrackingAllocator@ps@34@@ps@cloth@nv@@QEBAIXZ 0000000180086b30 f i SwSolver.obj
 0001:00085b50       ?capacityIncrement@?$Array@PEAVSwCloth@cloth@nv@@VNonTrackingAllocator@ps@23@@ps@cloth@nv@@IEBAIXZ 0000000180086b50 f i SwSolver.obj
 0001:00085ba0       ?capacityIncrement@?$Array@USimulatedCloth@SwSolver@cloth@nv@@VNonTrackingAllocator@ps@34@@ps@cloth@nv@@IEBAIXZ 0000000180086ba0 f i SwSolver.obj
 0001:00085bf0       ?copy@?$Array@PEAVSwCloth@cloth@nv@@VNonTrackingAllocator@ps@23@@ps@cloth@nv@@KAXPEAPEAVSwCloth@34@0PEBQEAV534@@Z 0000000180086bf0 f i SwSolver.obj
 0001:00085c90       ?copy@?$Array@USimulatedCloth@SwSolver@cloth@nv@@VNonTrackingAllocator@ps@34@@ps@cloth@nv@@KAXPEAUSimulatedCloth@SwSolver@34@0PEBU5634@@Z 0000000180086c90 f i SwSolver.obj
 0001:00085d30       ?deallocate@?$Array@PEAVSwCloth@cloth@nv@@VNonTrackingAllocator@ps@23@@ps@cloth@nv@@IEAAXPEAX@Z 0000000180086d30 f i SwSolver.obj
 0001:00085d60       ?deallocate@?$Array@USimulatedCloth@SwSolver@cloth@nv@@VNonTrackingAllocator@ps@34@@ps@cloth@nv@@IEAAXPEAX@Z 0000000180086d60 f i SwSolver.obj
 0001:00085d90       ?destroy@?$Array@PEAVSwCloth@cloth@nv@@VNonTrackingAllocator@ps@23@@ps@cloth@nv@@KAXPEAPEAVSwCloth@34@0@Z 0000000180086d90 f i SwSolver.obj
 0001:00085dd0       ?destroy@?$Array@USimulatedCloth@SwSolver@cloth@nv@@VNonTrackingAllocator@ps@34@@ps@cloth@nv@@KAXPEAUSimulatedCloth@SwSolver@34@0@Z 0000000180086dd0 f i SwSolver.obj
 0001:00085e10       ?empty@?$Array@USimulatedCloth@SwSolver@cloth@nv@@VNonTrackingAllocator@ps@34@@ps@cloth@nv@@QEBA_NXZ 0000000180086e10 f i SwSolver.obj
 0001:00085e50       ?end@?$Array@PEAVSwCloth@cloth@nv@@VNonTrackingAllocator@ps@23@@ps@cloth@nv@@QEAAPEAPEAVSwCloth@34@XZ 0000000180086e50 f i SwSolver.obj
 0001:00085e80       ?end@?$Array@USimulatedCloth@SwSolver@cloth@nv@@VNonTrackingAllocator@ps@34@@ps@cloth@nv@@QEAAPEAUSimulatedCloth@SwSolver@34@XZ 0000000180086e80 f i SwSolver.obj
 0001:00085eb0       ?find@?$Array@PEAVSwCloth@cloth@nv@@VNonTrackingAllocator@ps@23@@ps@cloth@nv@@QEAAPEAPEAVSwCloth@34@AEBQEAV534@@Z 0000000180086eb0 f i SwSolver.obj
 0001:00085f30       ?getInterCollisionDistance@SwSolver@cloth@nv@@UEBAMXZ 0000000180086f30 f i SwSolver.obj
 0001:00085f50       ?getInterCollisionNbIterations@SwSolver@cloth@nv@@UEBAIXZ 0000000180086f50 f i SwSolver.obj
 0001:00085f70       ?getInterCollisionStiffness@SwSolver@cloth@nv@@UEBAMXZ 0000000180086f70 f i SwSolver.obj
 0001:00085f90       ?growAndPushBack@?$Array@PEAVSwCloth@cloth@nv@@VNonTrackingAllocator@ps@23@@ps@cloth@nv@@IEAAAEAPEAVSwCloth@34@AEBQEAV534@@Z 0000000180086f90 f i SwSolver.obj
 0001:00086180       ?growAndPushBack@?$Array@USimulatedCloth@SwSolver@cloth@nv@@VNonTrackingAllocator@ps@34@@ps@cloth@nv@@IEAAAEAUSimulatedCloth@SwSolver@34@AEBU5634@@Z 0000000180087180 f i SwSolver.obj
 0001:000863c0       ?hasError@SwSolver@cloth@nv@@UEBA_NXZ 00000001800873c0 f i SwSolver.obj
 0001:000863d0       ?isInUserMemory@?$Array@PEAVSwCloth@cloth@nv@@VNonTrackingAllocator@ps@23@@ps@cloth@nv@@QEBAIXZ 00000001800873d0 f i SwSolver.obj
 0001:000863f0       ?isInUserMemory@?$Array@USimulatedCloth@SwSolver@cloth@nv@@VNonTrackingAllocator@ps@34@@ps@cloth@nv@@QEBAIXZ 00000001800873f0 f i SwSolver.obj
 0001:00086410       ?pushBack@?$Array@PEAVSwCloth@cloth@nv@@VNonTrackingAllocator@ps@23@@ps@cloth@nv@@QEAAAEAPEAVSwCloth@34@AEBQEAV534@@Z 0000000180087410 f i SwSolver.obj
 0001:000864e0       ?pushBack@?$Array@USimulatedCloth@SwSolver@cloth@nv@@VNonTrackingAllocator@ps@34@@ps@cloth@nv@@QEAAAEAUSimulatedCloth@SwSolver@34@AEBU5634@@Z 00000001800874e0 f i SwSolver.obj
 0001:000865b0       ?replaceWithLast@?$Array@PEAVSwCloth@cloth@nv@@VNonTrackingAllocator@ps@23@@ps@cloth@nv@@QEAAXI@Z 00000001800875b0 f i SwSolver.obj
 0001:00086680       ?replaceWithLast@?$Array@PEAVSwCloth@cloth@nv@@VNonTrackingAllocator@ps@23@@ps@cloth@nv@@QEAAXPEAPEAVSwCloth@34@@Z 0000000180087680 f i SwSolver.obj
 0001:000866d0       ?replaceWithLast@?$Array@USimulatedCloth@SwSolver@cloth@nv@@VNonTrackingAllocator@ps@34@@ps@cloth@nv@@QEAAXI@Z 00000001800876d0 f i SwSolver.obj
 0001:000867c0       ?replaceWithLast@?$Array@USimulatedCloth@SwSolver@cloth@nv@@VNonTrackingAllocator@ps@34@@ps@cloth@nv@@QEAAXPEAUSimulatedCloth@SwSolver@34@@Z 00000001800877c0 f i SwSolver.obj
 0001:00086810       ?setInterCollisionDistance@SwSolver@cloth@nv@@UEAAXM@Z 0000000180087810 f i SwSolver.obj
 0001:00086840       ?setInterCollisionFilter@SwSolver@cloth@nv@@UEAAXP6A_NPEAX0@Z@Z 0000000180087840 f i SwSolver.obj
 0001:00086870       ?setInterCollisionNbIterations@SwSolver@cloth@nv@@UEAAXI@Z 0000000180087870 f i SwSolver.obj
 0001:00086890       ?setInterCollisionStiffness@SwSolver@cloth@nv@@UEAAXM@Z 0000000180087890 f i SwSolver.obj
 0001:000868c0       ?size@?$Array@PEAVSwCloth@cloth@nv@@VNonTrackingAllocator@ps@23@@ps@cloth@nv@@QEBAIXZ 00000001800878c0 f i SwSolver.obj
 0001:000868e0       ?size@?$Array@USimulatedCloth@SwSolver@cloth@nv@@VNonTrackingAllocator@ps@34@@ps@cloth@nv@@QEBAIXZ 00000001800878e0 f i SwSolver.obj
 0001:00086900       ?swap@?$Array@VPxVec3@physx@@VNonTrackingAllocator@ps@cloth@nv@@@ps@cloth@nv@@QEAAXAEAV1234@@Z 0000000180087900 f i SwSolver.obj
 0001:00086a80       ??$PX_UNUSED@PEIBM@@YAXAEBQEIBM@Z 0000000180087a80 f i SwSolverKernel.obj
 0001:00086a90       ??$PX_UNUSED@T__m128@@@@YAXAEBT__m128@@@Z 0000000180087a90 f i SwSolverKernel.obj
 0001:0008b150       ??$create@T__m128@@VSwCloth@cloth@nv@@@IterationStateFactory@cloth@nv@@QEBA?AU?$IterationState@T__m128@@@12@AEBVSwCloth@12@@Z 000000018008c150 f i SwSolverKernel.obj
 0001:0008d890       ??$integrateParticles@V?$ConstantIterator@T__m128@@@cloth@nv@@@?$SwSolverKernel@T__m128@@@cloth@nv@@AEAAXAEAV?$ConstantIterator@T__m128@@@12@AEBT__m128@@@Z 000000018008e890 f i SwSolverKernel.obj
 0001:0008d9d0       ??$integrateParticles@V?$ScaleBiasIterator@T__m128@@PEBT1@@cloth@nv@@@?$SwSolverKernel@T__m128@@@cloth@nv@@AEAAXAEAV?$ScaleBiasIterator@T__m128@@PEBT1@@12@AEBT__m128@@@Z 000000018008e9d0 f i SwSolverKernel.obj
 0001:0008ffe0       ??$transform@T__m128@@@cloth@nv@@YA?AT__m128@@AEAY02$$CBT2@AEBT2@1@Z 0000000180090fe0 f i SwSolverKernel.obj
 0001:00090160       ??0?$ConstantIterator@T__m128@@@cloth@nv@@QEAA@AEBT__m128@@@Z 0000000180091160 f i SwSolverKernel.obj
 0001:00090190       ??0?$ScaleBiasIterator@T__m128@@PEBT1@@cloth@nv@@QEAA@PEBT__m128@@AEBT3@1@Z 0000000180091190 f i SwSolverKernel.obj
 0001:000901f0       ??0?$SwSolverKernel@T__m128@@@cloth@nv@@QEAA@AEBVSwCloth@12@AEAUSwClothData@12@AEAV?$StackAllocator@$0BA@@12@AEAUIterationStateFactory@12@@Z 00000001800911f0 f i SwSolverKernel.obj
 0001:000902d0       ??D?$ConstantIterator@T__m128@@@cloth@nv@@QEBA?AT__m128@@XZ 00000001800912d0 f i SwSolverKernel.obj
 0001:00090300       ??D?$ScaleBiasIterator@T__m128@@PEBT1@@cloth@nv@@QEBA?AT__m128@@XZ 0000000180091300 f i SwSolverKernel.obj
 0001:00090380       ??E?$ConstantIterator@T__m128@@@cloth@nv@@QEAAAEAV012@XZ 0000000180091380 f i SwSolverKernel.obj
 0001:00090390       ??E?$ScaleBiasIterator@T__m128@@PEBT1@@cloth@nv@@QEAAAEAV012@XZ 0000000180091390 f i SwSolverKernel.obj
 0001:000903c0       ??Kcloth@nv@@YA?AT__m128@@AEBT2@0@Z 00000001800913c0 f i SwSolverKernel.obj
 0001:00090400       ??R?$SwSolverKernel@T__m128@@@cloth@nv@@QEAAXXZ 0000000180091400 f i SwSolverKernel.obj
 0001:00090430       ?anyGreaterEqual@cloth@nv@@YAHAEBT__m128@@0@Z 0000000180091430 f i SwSolverKernel.obj
 0001:00090470       ?applyWind@?$SwSolverKernel@T__m128@@@cloth@nv@@AEAAXXZ 0000000180091470 f i SwSolverKernel.obj
 0001:000907f0       ?collideParticles@?$SwSolverKernel@T__m128@@@cloth@nv@@AEAAXXZ 00000001800917f0 f i SwSolverKernel.obj
 0001:000908c0       ?constrainMotion@?$SwSolverKernel@T__m128@@@cloth@nv@@AEAAXXZ 00000001800918c0 f i SwSolverKernel.obj
 0001:00090c00       ?constrainSeparation@?$SwSolverKernel@T__m128@@@cloth@nv@@AEAAXXZ 0000000180091c00 f i SwSolverKernel.obj
 0001:00090e50       ?constrainTether@?$SwSolverKernel@T__m128@@@cloth@nv@@AEAAXXZ 0000000180091e50 f i SwSolverKernel.obj
 0001:00091600       ?estimateTemporaryMemory@?$SwSolverKernel@T__m128@@@cloth@nv@@SA_KAEBVSwCloth@23@@Z 0000000180092600 f i SwSolverKernel.obj
 0001:00091700       ?integrateParticles@?$SwSolverKernel@T__m128@@@cloth@nv@@AEAAXXZ 0000000180092700 f i SwSolverKernel.obj
 0001:00091930       ?iterateCloth@?$SwSolverKernel@T__m128@@@cloth@nv@@AEAAXXZ 0000000180092930 f i SwSolverKernel.obj
 0001:000919c0       ?selfCollideParticles@?$SwSolverKernel@T__m128@@@cloth@nv@@AEAAXXZ 00000001800929c0 f i SwSolverKernel.obj
 0001:00091a80       ?simulateCloth@?$SwSolverKernel@T__m128@@@cloth@nv@@AEAAXXZ 0000000180092a80 f i SwSolverKernel.obj
 0001:00091ad0       ?solveFabric@?$SwSolverKernel@T__m128@@@cloth@nv@@AEAAXXZ 0000000180092ad0 f i SwSolverKernel.obj
 0001:00092300       ?updateSleepState@?$SwSolverKernel@T__m128@@@cloth@nv@@AEAAXXZ 0000000180093300 f i SwSolverKernel.obj
 0001:00092630       ??0TripletScheduler@cloth@nv@@QEAA@U?$Range@$$BY03$$CBI@12@@Z 0000000180093630 f   TripletScheduler.obj
 0001:000926e0       ?simd@TripletScheduler@cloth@nv@@QEAAXII@Z 00000001800936e0 f   TripletScheduler.obj
 0001:00092b80       ?warp@TripletScheduler@cloth@nv@@QEAAXII@Z 0000000180093b80 f   TripletScheduler.obj
 0001:00093490       ??0TripletSchedulerTestInterface@cloth@nv@@QEAA@U?$Range@$$BY03$$CBI@12@@Z 0000000180094490 f   TripletScheduler.obj
 0001:00093510       ??1TripletSchedulerTestInterface@cloth@nv@@QEAA@XZ 0000000180094510 f   TripletScheduler.obj
 0001:00093560       ?simd@TripletSchedulerTestInterface@cloth@nv@@QEAAXII@Z 0000000180094560 f   TripletScheduler.obj
 0001:000935a0       ?warp@TripletSchedulerTestInterface@cloth@nv@@QEAAXII@Z 00000001800945a0 f   TripletScheduler.obj
 0001:000935e0       ?GetTriplets@TripletSchedulerTestInterface@cloth@nv@@QEAA?AU?$Range@$$CBI@23@XZ 00000001800945e0 f   TripletScheduler.obj
 0001:00093660       ?GetSetSizes@TripletSchedulerTestInterface@cloth@nv@@QEAA?AU?$Range@$$CBI@23@XZ 0000000180094660 f   TripletScheduler.obj
 0001:000936e0       NvClothCreateTripletScheduler 00000001800946e0 f   TripletScheduler.obj
 0001:00093750       NvClothDestroyTripletScheduler 0000000180094750 f   TripletScheduler.obj
 0001:00094a50       ??$?AH@?$Vec4T@I@cloth@nv@@QEAAAEAIH@Z 0000000180095a50 f i TripletScheduler.obj
 0001:00094a70       ??$?AH@?$Vec4T@I@cloth@nv@@QEBAAEBIH@Z 0000000180095a70 f i TripletScheduler.obj
 0001:00094a90       ??$?AI@?$Vec4T@I@cloth@nv@@QEAAAEAII@Z 0000000180095a90 f i TripletScheduler.obj
 0001:00094ab0       ??$PX_UNUSED@I@@YAXAEBI@Z  0000000180095ab0 f i TripletScheduler.obj
 0001:00094ac0       ??$iter_swap@PEAU?$Vec4T@I@cloth@nv@@PEAU123@@std@@YAXPEAU?$Vec4T@I@cloth@nv@@0@Z 0000000180095ac0 f i TripletScheduler.obj
 0001:00094af0       ??$max@E@std@@YAAEBEAEBE0@Z 0000000180095af0 f i TripletScheduler.obj
 0001:00094b50       ??$move@AEAU?$Vec4T@I@cloth@nv@@@std@@YA$$QEAU?$Vec4T@I@cloth@nv@@AEAU123@@Z 0000000180095b50 f i TripletScheduler.obj
 0001:00094c20       ??$swap@PEAU?$Vec4T@I@cloth@nv@@@ps@cloth@nv@@YAXAEAPEAU?$Vec4T@I@12@0@Z 0000000180095c20 f i TripletScheduler.obj
 0001:00094c70       ??$swap@U?$Vec4T@I@cloth@nv@@$0A@@std@@YAXAEAU?$Vec4T@I@cloth@nv@@0@Z 0000000180095c70 f i TripletScheduler.obj
 0001:00094d20       ??0?$Array@U?$Vec4T@I@cloth@nv@@VNonTrackingAllocator@ps@23@@ps@cloth@nv@@QEAA@PEBU?$Vec4T@I@23@0AEBVNonTrackingAllocator@123@@Z 0000000180095d20 f i TripletScheduler.obj
 0001:00094e00       ??0?$Vec4T@G@cloth@nv@@QEAA@GGGG@Z 0000000180095e00 f i TripletScheduler.obj
 0001:00094e70       ??A?$Array@U?$Vec4T@I@cloth@nv@@VNonTrackingAllocator@ps@23@@ps@cloth@nv@@QEAAAEAU?$Vec4T@I@23@I@Z 0000000180095e70 f i TripletScheduler.obj
 0001:00094f10       ??_GTripletScheduler@cloth@nv@@QEAAPEAXI@Z 0000000180095f10 f i TripletScheduler.obj
 0001:00094f60       ??_GTripletSchedulerTestInterface@cloth@nv@@QEAAPEAXI@Z 0000000180095f60 f i TripletScheduler.obj
 0001:00094fb0       ?back@?$Array@IVNonTrackingAllocator@ps@cloth@nv@@@ps@cloth@nv@@QEAAAEAIXZ 0000000180095fb0 f i TripletScheduler.obj
 0001:00095050       ?begin@?$Array@U?$Vec4T@I@cloth@nv@@VNonTrackingAllocator@ps@23@@ps@cloth@nv@@QEBAPEBU?$Vec4T@I@34@XZ 0000000180096050 f i TripletScheduler.obj
 0001:00095070       ?begin@?$Range@$$BY03$$CBI@cloth@nv@@QEBAPEAY03$$CBIXZ 0000000180096070 f i TripletScheduler.obj
 0001:00095090       ?end@?$Array@U?$Vec4T@I@cloth@nv@@VNonTrackingAllocator@ps@23@@ps@cloth@nv@@QEBAPEBU?$Vec4T@I@34@XZ 0000000180096090 f i TripletScheduler.obj
 0001:000950c0       ?end@?$Range@$$BY03$$CBI@cloth@nv@@QEBAPEAY03$$CBIXZ 00000001800960c0 f i TripletScheduler.obj
 0001:00095540       ?swap@?$Array@U?$Vec4T@I@cloth@nv@@VNonTrackingAllocator@ps@23@@ps@cloth@nv@@QEAAXAEAV1234@@Z 0000000180096540 f i TripletScheduler.obj
 0001:000955c0       NvClothCreateFabricCooker  00000001800965c0 f   ClothFabricCooker.obj
 0001:00095620       NvClothCookFabricFromMesh  0000000180096620 f   ClothFabricCooker.obj
 0001:00095940       ?cook@FabricCookerImpl@cloth@nv@@UEAA_NAEBVClothMeshDesc@23@VPxVec3@physx@@_N@Z 0000000180096940 f   ClothFabricCooker.obj
 0001:00097990       ?getDescriptor@FabricCookerImpl@cloth@nv@@UEBA?AVClothFabricDesc@23@XZ 0000000180098990 f   ClothFabricCooker.obj
 0001:00097c70       ?getCookedData@FabricCookerImpl@cloth@nv@@UEBA?AUCookedData@23@XZ 0000000180098c70 f   ClothFabricCooker.obj
 0001:00097ed0       ?save@FabricCookerImpl@cloth@nv@@UEBAXAEAVPxOutputStream@physx@@_N@Z 0000000180098ed0 f   ClothFabricCooker.obj
 0001:0009af10       ??$?4VNonTrackingAllocator@ps@cloth@nv@@@?$Array@IVNonTrackingAllocator@ps@cloth@nv@@@ps@cloth@nv@@QEAAAEAV0123@AEBV0123@@Z 000000018009bf10 f i ClothFabricCooker.obj
 0001:0009afc0       ??$?4VNonTrackingAllocator@ps@cloth@nv@@@?$Array@MVNonTrackingAllocator@ps@cloth@nv@@@ps@cloth@nv@@QEAAAEAV0123@AEBV0123@@Z 000000018009bfc0 f i ClothFabricCooker.obj
 0001:0009b1c0       ??$PxMakeIterator@G@physx@@YA?AV?$PxStrideIterator@$$CBG@0@PEBGI@Z 000000018009c1c0 f i ClothFabricCooker.obj
 0001:0009b200       ??$PxMakeIterator@I@physx@@YA?AV?$PxStrideIterator@$$CBI@0@PEBII@Z 000000018009c200 f i ClothFabricCooker.obj
 0001:0009b240       ??$PxMax@I@physx@@YAIII@Z  000000018009c240 f i ClothFabricCooker.obj
 0001:0009b280       ??$PxMin@I@physx@@YAIII@Z  000000018009c280 f i ClothFabricCooker.obj
 0001:0009ca20       ??$hash@II@ps@cloth@nv@@YAIAEBV?$Pair@II@012@@Z 000000018009da20 f i ClothFabricCooker.obj
 0001:0009d8a0       ??0?$Array@MVNonTrackingAllocator@ps@cloth@nv@@@ps@cloth@nv@@QEAA@AEBVNonTrackingAllocator@123@@Z 000000018009e8a0 f i ClothFabricCooker.obj
 0001:0009d8f0       ??0?$Array@UClothFabricPhase@cloth@nv@@VNonTrackingAllocator@ps@23@@ps@cloth@nv@@QEAA@AEBVNonTrackingAllocator@123@@Z 000000018009e8f0 f i ClothFabricCooker.obj
 0001:0009d940       ??0?$Array@V?$Pair@V?$Pair@II@ps@cloth@nv@@W4Enum@ClothFabricPhaseType@34@@ps@cloth@nv@@VNonTrackingAllocator@234@@ps@cloth@nv@@QEAA@AEBVNonTrackingAllocator@123@@Z 000000018009e940 f i ClothFabricCooker.obj
 0001:0009d990       ??0?$Array@W4Enum@ClothFabricPhaseType@cloth@nv@@VNonTrackingAllocator@ps@34@@ps@cloth@nv@@QEAA@AEBVNonTrackingAllocator@123@@Z 000000018009e990 f i ClothFabricCooker.obj
 0001:0009d9e0       ??0?$Pair@II@ps@cloth@nv@@QEAA@AEBI0@Z 000000018009e9e0 f i ClothFabricCooker.obj
 0001:0009da30       ??0?$Pair@II@ps@cloth@nv@@QEAA@AEBV0123@@Z 000000018009ea30 f i ClothFabricCooker.obj
 0001:0009da70       ??0?$Pair@V?$Pair@II@ps@cloth@nv@@W4Enum@ClothFabricPhaseType@34@@ps@cloth@nv@@QEAA@AEBV0123@@Z 000000018009ea70 f i ClothFabricCooker.obj
 0001:0009dac0       ??0?$Pair@V?$Pair@II@ps@cloth@nv@@W4Enum@ClothFabricPhaseType@34@@ps@cloth@nv@@QEAA@AEBV?$Pair@II@123@AEBW4Enum@ClothFabricPhaseType@23@@Z 000000018009eac0 f i ClothFabricCooker.obj
 0001:0009db10       ??0?$PxStrideIterator@$$CBG@physx@@QEAA@PEBGI@Z 000000018009eb10 f i ClothFabricCooker.obj
 0001:0009dba0       ??0?$PxStrideIterator@$$CBI@physx@@QEAA@PEBII@Z 000000018009eba0 f i ClothFabricCooker.obj
 0001:0009dc30       ??0?$PxStrideIterator@$$CBM@physx@@QEAA@PEBMI@Z 000000018009ec30 f i ClothFabricCooker.obj
 0001:0009dcc0       ??0?$PxStrideIterator@$$CBVPxVec3@physx@@@physx@@QEAA@PEBVPxVec3@1@I@Z 000000018009ecc0 f i ClothFabricCooker.obj
 0001:0009dd50       ??0?$Range@$$CBH@cloth@nv@@QEAA@PEBH0@Z 000000018009ed50 f i ClothFabricCooker.obj
 0001:0009dd90       ??0?$Range@$$CBH@cloth@nv@@QEAA@XZ 000000018009ed90 f i ClothFabricCooker.obj
 0001:0009ddc0       ??0?$Range@$$CBI@cloth@nv@@QEAA@XZ 000000018009edc0 f i ClothFabricCooker.obj
 0001:0009ddf0       ??0?$Range@$$CBM@cloth@nv@@QEAA@PEBM0@Z 000000018009edf0 f i ClothFabricCooker.obj
 0001:0009de30       ??0?$Range@$$CBM@cloth@nv@@QEAA@XZ 000000018009ee30 f i ClothFabricCooker.obj
 0001:0009de60       ??0ClothFabricCooker@cloth@nv@@QEAA@AEBV012@@Z 000000018009ee60 f i ClothFabricCooker.obj
 0001:0009de90       ??0ClothFabricCooker@cloth@nv@@QEAA@XZ 000000018009ee90 f i ClothFabricCooker.obj
 0001:0009dec0       ??0ClothFabricDesc@cloth@nv@@QEAA@XZ 000000018009eec0 f i ClothFabricCooker.obj
 0001:0009def0       ??0ClothFabricPhase@cloth@nv@@QEAA@W4Enum@ClothFabricPhaseType@12@I@Z 000000018009eef0 f i ClothFabricCooker.obj
 0001:0009df30       ??0CookedData@cloth@nv@@QEAA@XZ 000000018009ef30 f i ClothFabricCooker.obj
 0001:0009e010       ??0FabricCookerImpl@cloth@nv@@QEAA@XZ 000000018009f010 f i ClothFabricCooker.obj
 0001:0009e1d0       ??1?$Array@UClothFabricPhase@cloth@nv@@VNonTrackingAllocator@ps@23@@ps@cloth@nv@@QEAA@XZ 000000018009f1d0 f i ClothFabricCooker.obj
 0001:0009e250       ??1?$Array@V?$Pair@V?$Pair@II@ps@cloth@nv@@W4Enum@ClothFabricPhaseType@34@@ps@cloth@nv@@VNonTrackingAllocator@234@@ps@cloth@nv@@QEAA@XZ 000000018009f250 f i ClothFabricCooker.obj
 0001:0009e2d0       ??1?$Array@W4Enum@ClothFabricPhaseType@cloth@nv@@VNonTrackingAllocator@ps@34@@ps@cloth@nv@@QEAA@XZ 000000018009f2d0 f i ClothFabricCooker.obj
 0001:0009e350       ??1ClothFabricCooker@cloth@nv@@UEAA@XZ 000000018009f350 f i ClothFabricCooker.obj
 0001:0009e370       ??1FabricCookerImpl@cloth@nv@@UEAA@XZ 000000018009f370 f i ClothFabricCooker.obj
 0001:0009e470       ??4?$Array@IVNonTrackingAllocator@ps@cloth@nv@@@ps@cloth@nv@@QEAAAEAV0123@AEBV0123@@Z 000000018009f470 f i ClothFabricCooker.obj
 0001:0009e4a0       ??4?$Array@MVNonTrackingAllocator@ps@cloth@nv@@@ps@cloth@nv@@QEAAAEAV0123@AEBV0123@@Z 000000018009f4a0 f i ClothFabricCooker.obj
 0001:0009e4d0       ??4ClothFabricCooker@cloth@nv@@QEAAAEAV012@AEBV012@@Z 000000018009f4d0 f i ClothFabricCooker.obj
 0001:0009e4f0       ??8?$Pair@II@ps@cloth@nv@@QEBA_NAEBV0123@@Z 000000018009f4f0 f i ClothFabricCooker.obj
 0001:0009e550       ??A?$Array@HVNonTrackingAllocator@ps@cloth@nv@@@ps@cloth@nv@@QEAAAEAHI@Z 000000018009f550 f i ClothFabricCooker.obj
 0001:0009e5f0       ??A?$Array@MVNonTrackingAllocator@ps@cloth@nv@@@ps@cloth@nv@@QEAAAEAMI@Z 000000018009f5f0 f i ClothFabricCooker.obj
 0001:0009e690       ??A?$Array@UClothFabricPhase@cloth@nv@@VNonTrackingAllocator@ps@23@@ps@cloth@nv@@QEAAAEAUClothFabricPhase@23@I@Z 000000018009f690 f i ClothFabricCooker.obj
 0001:0009e730       ??A?$Array@V?$Pair@V?$Pair@II@ps@cloth@nv@@W4Enum@ClothFabricPhaseType@34@@ps@cloth@nv@@VNonTrackingAllocator@234@@ps@cloth@nv@@QEAAAEAV?$Pair@V?$Pair@II@ps@cloth@nv@@W4Enum@ClothFabricPhaseType@34@@123@I@Z 000000018009f730 f i ClothFabricCooker.obj
 0001:0009e7d0       ??A?$Array@W4Enum@ClothFabricPhaseType@cloth@nv@@VNonTrackingAllocator@ps@34@@ps@cloth@nv@@QEAAAEAW4Enum@ClothFabricPhaseType@23@I@Z 000000018009f7d0 f i ClothFabricCooker.obj
 0001:0009e870       ??A?$Array@W4Enum@ClothFabricPhaseType@cloth@nv@@VNonTrackingAllocator@ps@34@@ps@cloth@nv@@QEBAAEBW4Enum@ClothFabricPhaseType@23@I@Z 000000018009f870 f i ClothFabricCooker.obj
 0001:0009e910       ??A?$PxStrideIterator@$$CBM@physx@@QEBAAEBMI@Z 000000018009f910 f i ClothFabricCooker.obj
 0001:0009e960       ??A?$Range@$$CBH@cloth@nv@@QEBAAEBHI@Z 000000018009f960 f i ClothFabricCooker.obj
 0001:0009ea10       ??D?$PxStrideIterator@$$CBM@physx@@QEBAAEBMXZ 000000018009fa10 f i ClothFabricCooker.obj
 0001:0009ea30       ??D?$PxStrideIterator@$$CBVPxVec3@physx@@@physx@@QEBAAEBVPxVec3@1@XZ 000000018009fa30 f i ClothFabricCooker.obj
 0001:0009ea50       ??E?$PxStrideIterator@$$CBG@physx@@QEAAAEAV01@XZ 000000018009fa50 f i ClothFabricCooker.obj
 0001:0009eaa0       ??E?$PxStrideIterator@$$CBI@physx@@QEAAAEAV01@XZ 000000018009faa0 f i ClothFabricCooker.obj
 0001:0009eaf0       ??E?$PxStrideIterator@$$CBM@physx@@QEAA?AV01@H@Z 000000018009faf0 f i ClothFabricCooker.obj
 0001:0009ebb0       ??E?$PxStrideIterator@$$CBVPxVec3@physx@@@physx@@QEAA?AV01@H@Z 000000018009fbb0 f i ClothFabricCooker.obj
 0001:0009ec70       ??R?$Hash@V?$Pair@II@ps@cloth@nv@@@ps@cloth@nv@@QEBAIAEBV?$Pair@II@123@@Z 000000018009fc70 f i ClothFabricCooker.obj
 0001:0009eca0       ??_EClothFabricCooker@cloth@nv@@UEAAPEAXI@Z 000000018009fca0 f i ClothFabricCooker.obj
 0001:0009edc0       ??_GClothFabricCooker@cloth@nv@@UEAAPEAXI@Z 000000018009fdc0 f i ClothFabricCooker.obj
 0001:0009ee30       ??_EFabricCookerImpl@cloth@nv@@UEAAPEAXI@Z 000000018009fe30 f i ClothFabricCooker.obj
 0001:0009ee30       ??_GFabricCookerImpl@cloth@nv@@UEAAPEAXI@Z 000000018009fe30 f i ClothFabricCooker.obj
 0001:0009eea0       ??_I@YAXPEAX_K1P6AX0@Z@Z   000000018009fea0 f i ClothFabricCooker.obj
 0001:0009ef60       ??_VUserAllocated@cloth@nv@@SAXPEAX@Z 000000018009ff60 f i ClothFabricCooker.obj
 0001:0009efa0       ?PxRecipSqrt@physx@@YAMM@Z 000000018009ffa0 f i ClothFabricCooker.obj
 0001:0009efd0       ?__global_array_delete@@YAXPEAX@Z 000000018009ffd0 f i ClothFabricCooker.obj
 0001:0009f000       ?__global_array_delete@@YAXPEAX_K@Z 00000001800a0000 f i ClothFabricCooker.obj
 0001:0009f030       ?__global_delete@@YAXPEAX@Z 00000001800a0030 f i ClothFabricCooker.obj
 0001:0009f060       ?__global_delete@@YAXPEAX_K@Z 00000001800a0060 f i ClothFabricCooker.obj
 0001:0009f090       ?allocate@?$Array@HVNonTrackingAllocator@ps@cloth@nv@@@ps@cloth@nv@@IEAAPEAHI@Z 00000001800a0090 f i ClothFabricCooker.obj
 0001:0009f140       ?allocate@?$Array@UClothFabricPhase@cloth@nv@@VNonTrackingAllocator@ps@23@@ps@cloth@nv@@IEAAPEAUClothFabricPhase@34@I@Z 00000001800a0140 f i ClothFabricCooker.obj
 0001:0009f1f0       ?allocate@?$Array@V?$Pair@V?$Pair@II@ps@cloth@nv@@W4Enum@ClothFabricPhaseType@34@@ps@cloth@nv@@VNonTrackingAllocator@234@@ps@cloth@nv@@IEAAPEAV?$Pair@V?$Pair@II@ps@cloth@nv@@W4Enum@ClothFabricPhaseType@34@@234@I@Z 00000001800a01f0 f i ClothFabricCooker.obj
 0001:0009f2a0       ?allocate@?$Array@W4Enum@ClothFabricPhaseType@cloth@nv@@VNonTrackingAllocator@ps@34@@ps@cloth@nv@@IEAAPEAW4Enum@ClothFabricPhaseType@34@I@Z 00000001800a02a0 f i ClothFabricCooker.obj
 0001:0009f350       ?begin@?$Array@MVNonTrackingAllocator@ps@cloth@nv@@@ps@cloth@nv@@QEBAPEBMXZ 00000001800a0350 f i ClothFabricCooker.obj
 0001:0009f370       ?begin@?$Array@UClothFabricPhase@cloth@nv@@VNonTrackingAllocator@ps@23@@ps@cloth@nv@@QEAAPEAUClothFabricPhase@34@XZ 00000001800a0370 f i ClothFabricCooker.obj
 0001:0009f390       ?begin@?$Array@W4Enum@ClothFabricPhaseType@cloth@nv@@VNonTrackingAllocator@ps@34@@ps@cloth@nv@@QEBAPEBW4Enum@ClothFabricPhaseType@34@XZ 00000001800a0390 f i ClothFabricCooker.obj
 0001:0009f3b0       ?byteAdd@?$PxStrideIterator@$$CBG@physx@@CAPEBGPEBGI@Z 00000001800a03b0 f i ClothFabricCooker.obj
 0001:0009f3e0       ?byteAdd@?$PxStrideIterator@$$CBI@physx@@CAPEBIPEBII@Z 00000001800a03e0 f i ClothFabricCooker.obj
 0001:0009f410       ?byteAdd@?$PxStrideIterator@$$CBM@physx@@CAPEBMPEBMI@Z 00000001800a0410 f i ClothFabricCooker.obj
 0001:0009f440       ?byteAdd@?$PxStrideIterator@$$CBVPxVec3@physx@@@physx@@CAPEBVPxVec3@2@PEBV32@I@Z 00000001800a0440 f i ClothFabricCooker.obj
 0001:0009f470       ?capacity@?$Array@HVNonTrackingAllocator@ps@cloth@nv@@@ps@cloth@nv@@QEBAIXZ 00000001800a0470 f i ClothFabricCooker.obj
 0001:0009f490       ?capacity@?$Array@UClothFabricPhase@cloth@nv@@VNonTrackingAllocator@ps@23@@ps@cloth@nv@@QEBAIXZ 00000001800a0490 f i ClothFabricCooker.obj
 0001:0009f4b0       ?capacity@?$Array@V?$Pair@V?$Pair@II@ps@cloth@nv@@W4Enum@ClothFabricPhaseType@34@@ps@cloth@nv@@VNonTrackingAllocator@234@@ps@cloth@nv@@QEBAIXZ 00000001800a04b0 f i ClothFabricCooker.obj
 0001:0009f4d0       ?capacity@?$Array@W4Enum@ClothFabricPhaseType@cloth@nv@@VNonTrackingAllocator@ps@34@@ps@cloth@nv@@QEBAIXZ 00000001800a04d0 f i ClothFabricCooker.obj
 0001:0009f4f0       ?capacityIncrement@?$Array@V?$Pair@V?$Pair@II@ps@cloth@nv@@W4Enum@ClothFabricPhaseType@34@@ps@cloth@nv@@VNonTrackingAllocator@234@@ps@cloth@nv@@IEBAIXZ 00000001800a04f0 f i ClothFabricCooker.obj
 0001:0009f540       ?capacityIncrement@?$Array@W4Enum@ClothFabricPhaseType@cloth@nv@@VNonTrackingAllocator@ps@34@@ps@cloth@nv@@IEBAIXZ 00000001800a0540 f i ClothFabricCooker.obj
 0001:0009f590       ?clear@?$Array@IVNonTrackingAllocator@ps@cloth@nv@@@ps@cloth@nv@@QEAAXXZ 00000001800a0590 f i ClothFabricCooker.obj
 0001:0009f5e0       ?clear@?$Array@MVNonTrackingAllocator@ps@cloth@nv@@@ps@cloth@nv@@QEAAXXZ 00000001800a05e0 f i ClothFabricCooker.obj
 0001:0009f630       ?copy@?$Array@HVNonTrackingAllocator@ps@cloth@nv@@@ps@cloth@nv@@KAXPEAH0PEBH@Z 00000001800a0630 f i ClothFabricCooker.obj
 0001:0009f6d0       ?copy@?$Array@UClothFabricPhase@cloth@nv@@VNonTrackingAllocator@ps@23@@ps@cloth@nv@@KAXPEAUClothFabricPhase@34@0PEBU534@@Z 00000001800a06d0 f i ClothFabricCooker.obj
 0001:0009f770       ?copy@?$Array@V?$Pair@V?$Pair@II@ps@cloth@nv@@W4Enum@ClothFabricPhaseType@34@@ps@cloth@nv@@VNonTrackingAllocator@234@@ps@cloth@nv@@KAXPEAV?$Pair@V?$Pair@II@ps@cloth@nv@@W4Enum@ClothFabricPhaseType@34@@234@0PEBV5234@@Z 00000001800a0770 f i ClothFabricCooker.obj
 0001:0009f810       ?copy@?$Array@W4Enum@ClothFabricPhaseType@cloth@nv@@VNonTrackingAllocator@ps@34@@ps@cloth@nv@@KAXPEAW4Enum@ClothFabricPhaseType@34@0PEBW45634@@Z 00000001800a0810 f i ClothFabricCooker.obj
 0001:0009f8b0       ?create@?$Array@HVNonTrackingAllocator@ps@cloth@nv@@@ps@cloth@nv@@KAXPEAH0AEBH@Z 00000001800a08b0 f i ClothFabricCooker.obj
 0001:0009f920       ?create@?$Array@UClothFabricPhase@cloth@nv@@VNonTrackingAllocator@ps@23@@ps@cloth@nv@@KAXPEAUClothFabricPhase@34@0AEBU534@@Z 00000001800a0920 f i ClothFabricCooker.obj
 0001:0009f9a0       ?cross@PxVec3@physx@@QEBA?AV12@AEBV12@@Z 00000001800a09a0 f i ClothFabricCooker.obj
 0001:0009fa90       ?deallocate@?$Array@HVNonTrackingAllocator@ps@cloth@nv@@@ps@cloth@nv@@IEAAXPEAX@Z 00000001800a0a90 f i ClothFabricCooker.obj
 0001:0009fac0       ?deallocate@?$Array@UClothFabricPhase@cloth@nv@@VNonTrackingAllocator@ps@23@@ps@cloth@nv@@IEAAXPEAX@Z 00000001800a0ac0 f i ClothFabricCooker.obj
 0001:0009faf0       ?deallocate@?$Array@V?$Pair@V?$Pair@II@ps@cloth@nv@@W4Enum@ClothFabricPhaseType@34@@ps@cloth@nv@@VNonTrackingAllocator@234@@ps@cloth@nv@@IEAAXPEAX@Z 00000001800a0af0 f i ClothFabricCooker.obj
 0001:0009fb20       ?deallocate@?$Array@W4Enum@ClothFabricPhaseType@cloth@nv@@VNonTrackingAllocator@ps@34@@ps@cloth@nv@@IEAAXPEAX@Z 00000001800a0b20 f i ClothFabricCooker.obj
 0001:0009fb50       ?destroy@?$Array@HVNonTrackingAllocator@ps@cloth@nv@@@ps@cloth@nv@@KAXPEAH0@Z 00000001800a0b50 f i ClothFabricCooker.obj
 0001:0009fb90       ?destroy@?$Array@UClothFabricPhase@cloth@nv@@VNonTrackingAllocator@ps@23@@ps@cloth@nv@@KAXPEAUClothFabricPhase@34@0@Z 00000001800a0b90 f i ClothFabricCooker.obj
 0001:0009fbd0       ?destroy@?$Array@V?$Pair@V?$Pair@II@ps@cloth@nv@@W4Enum@ClothFabricPhaseType@34@@ps@cloth@nv@@VNonTrackingAllocator@234@@ps@cloth@nv@@KAXPEAV?$Pair@V?$Pair@II@ps@cloth@nv@@W4Enum@ClothFabricPhaseType@34@@234@0@Z 00000001800a0bd0 f i ClothFabricCooker.obj
 0001:0009fc10       ?destroy@?$Array@W4Enum@ClothFabricPhaseType@cloth@nv@@VNonTrackingAllocator@ps@34@@ps@cloth@nv@@KAXPEAW4Enum@ClothFabricPhaseType@34@0@Z 00000001800a0c10 f i ClothFabricCooker.obj
 0001:0009fc50       ?dot@PxVec3@physx@@QEBAMAEBV12@@Z 00000001800a0c50 f i ClothFabricCooker.obj
 0001:0009fcc0       ?end@?$Array@MVNonTrackingAllocator@ps@cloth@nv@@@ps@cloth@nv@@QEBAPEBMXZ 00000001800a0cc0 f i ClothFabricCooker.obj
 0001:0009fcf0       ?end@?$Array@W4Enum@ClothFabricPhaseType@cloth@nv@@VNonTrackingAllocator@ps@34@@ps@cloth@nv@@QEBAPEBW4Enum@ClothFabricPhaseType@34@XZ 00000001800a0cf0 f i ClothFabricCooker.obj
 0001:0009fd20       ?equal@?$Hash@V?$Pair@II@ps@cloth@nv@@@ps@cloth@nv@@QEBA_NAEBV?$Pair@II@234@0@Z 00000001800a0d20 f i ClothFabricCooker.obj
 0001:0009fd60       ?getNormalized@PxVec3@physx@@QEBA?AV12@XZ 00000001800a0d60 f i ClothFabricCooker.obj
 0001:0009fe20       ?grow@?$Array@HVNonTrackingAllocator@ps@cloth@nv@@@ps@cloth@nv@@IEAAXI@Z 00000001800a0e20 f i ClothFabricCooker.obj
 0001:0009fec0       ?grow@?$Array@UClothFabricPhase@cloth@nv@@VNonTrackingAllocator@ps@23@@ps@cloth@nv@@IEAAXI@Z 00000001800a0ec0 f i ClothFabricCooker.obj
 0001:0009ff60       ?grow@?$Array@V?$Pair@V?$Pair@II@ps@cloth@nv@@W4Enum@ClothFabricPhaseType@34@@ps@cloth@nv@@VNonTrackingAllocator@234@@ps@cloth@nv@@IEAAXI@Z 00000001800a0f60 f i ClothFabricCooker.obj
 0001:000a01f0       ?growAndPushBack@?$Array@V?$Pair@V?$Pair@II@ps@cloth@nv@@W4Enum@ClothFabricPhaseType@34@@ps@cloth@nv@@VNonTrackingAllocator@234@@ps@cloth@nv@@IEAAAEAV?$Pair@V?$Pair@II@ps@cloth@nv@@W4Enum@ClothFabricPhaseType@34@@234@AEBV5234@@Z 00000001800a11f0 f i ClothFabricCooker.obj
 0001:000a03f0       ?growAndPushBack@?$Array@W4Enum@ClothFabricPhaseType@cloth@nv@@VNonTrackingAllocator@ps@34@@ps@cloth@nv@@IEAAAEAW4Enum@ClothFabricPhaseType@34@AEBW45634@@Z 00000001800a13f0 f i ClothFabricCooker.obj
 0001:000a05e0       ?hash@ps@cloth@nv@@YAII@Z  00000001800a15e0 f i ClothFabricCooker.obj
 0001:000a0680       ?isInUserMemory@?$Array@HVNonTrackingAllocator@ps@cloth@nv@@@ps@cloth@nv@@QEBAIXZ 00000001800a1680 f i ClothFabricCooker.obj
 0001:000a06a0       ?isInUserMemory@?$Array@UClothFabricPhase@cloth@nv@@VNonTrackingAllocator@ps@23@@ps@cloth@nv@@QEBAIXZ 00000001800a16a0 f i ClothFabricCooker.obj
 0001:000a06c0       ?isInUserMemory@?$Array@V?$Pair@V?$Pair@II@ps@cloth@nv@@W4Enum@ClothFabricPhaseType@34@@ps@cloth@nv@@VNonTrackingAllocator@234@@ps@cloth@nv@@QEBAIXZ 00000001800a16c0 f i ClothFabricCooker.obj
 0001:000a06e0       ?isInUserMemory@?$Array@W4Enum@ClothFabricPhaseType@cloth@nv@@VNonTrackingAllocator@ps@34@@ps@cloth@nv@@QEBAIXZ 00000001800a16e0 f i ClothFabricCooker.obj
 0001:000a0700       ?isPowerOfTwo@ps@cloth@nv@@YA_NI@Z 00000001800a1700 f i ClothFabricCooker.obj
 0001:000a0750       ?isValid@ClothMeshDesc@cloth@nv@@QEBA_NXZ 00000001800a1750 f i ClothFabricCooker.obj
 0001:000a0950       ?memSet@intrinsics@physx@@YAPEAXPEAXHI@Z 00000001800a1950 f i ClothFabricCooker.obj
 0001:000a0990       ?nextPowerOfTwo@ps@cloth@nv@@YAII@Z 00000001800a1990 f i ClothFabricCooker.obj
 0001:000a0a20       ?ptr@?$PxStrideIterator@$$CBG@physx@@QEBAPEBGXZ 00000001800a1a20 f i ClothFabricCooker.obj
 0001:000a0a40       ?ptr@?$PxStrideIterator@$$CBI@physx@@QEBAPEBIXZ 00000001800a1a40 f i ClothFabricCooker.obj
 0001:000a0a60       ?ptr@?$PxStrideIterator@$$CBM@physx@@QEBAPEBMXZ 00000001800a1a60 f i ClothFabricCooker.obj
 0001:000a0a80       ?pushBack@?$Array@V?$Pair@V?$Pair@II@ps@cloth@nv@@W4Enum@ClothFabricPhaseType@34@@ps@cloth@nv@@VNonTrackingAllocator@234@@ps@cloth@nv@@QEAAAEAV?$Pair@V?$Pair@II@ps@cloth@nv@@W4Enum@ClothFabricPhaseType@34@@234@AEBV5234@@Z 00000001800a1a80 f i ClothFabricCooker.obj
 0001:000a0b50       ?pushBack@?$Array@W4Enum@ClothFabricPhaseType@cloth@nv@@VNonTrackingAllocator@ps@34@@ps@cloth@nv@@QEAAAEAW4Enum@ClothFabricPhaseType@34@AEBW45634@@Z 00000001800a1b50 f i ClothFabricCooker.obj
 0001:000a0c20       ?recipSqrt@intrinsics@physx@@YAMM@Z 00000001800a1c20 f i ClothFabricCooker.obj
 0001:000a0c60       ?recreate@?$Array@HVNonTrackingAllocator@ps@cloth@nv@@@ps@cloth@nv@@IEAAXI@Z 00000001800a1c60 f i ClothFabricCooker.obj
 0001:000a0dc0       ?recreate@?$Array@UClothFabricPhase@cloth@nv@@VNonTrackingAllocator@ps@23@@ps@cloth@nv@@IEAAXI@Z 00000001800a1dc0 f i ClothFabricCooker.obj
 0001:000a1080       ?recreate@?$Array@V?$Pair@V?$Pair@II@ps@cloth@nv@@W4Enum@ClothFabricPhaseType@34@@ps@cloth@nv@@VNonTrackingAllocator@234@@ps@cloth@nv@@IEAAXI@Z 00000001800a2080 f i ClothFabricCooker.obj
 0001:000a11e0       ?reserve@?$Array@HVNonTrackingAllocator@ps@cloth@nv@@@ps@cloth@nv@@QEAAXI@Z 00000001800a21e0 f i ClothFabricCooker.obj
 0001:000a1220       ?reserve@?$Array@UClothFabricPhase@cloth@nv@@VNonTrackingAllocator@ps@23@@ps@cloth@nv@@QEAAXI@Z 00000001800a2220 f i ClothFabricCooker.obj
 0001:000a1260       ?reserve@?$Array@V?$Pair@V?$Pair@II@ps@cloth@nv@@W4Enum@ClothFabricPhaseType@34@@ps@cloth@nv@@VNonTrackingAllocator@234@@ps@cloth@nv@@QEAAXI@Z 00000001800a2260 f i ClothFabricCooker.obj
 0001:000a12a0       ?resize@?$Array@HVNonTrackingAllocator@ps@cloth@nv@@@ps@cloth@nv@@QEAAXIAEBH@Z 00000001800a22a0 f i ClothFabricCooker.obj
 0001:000a1360       ?resize@?$Array@UClothFabricPhase@cloth@nv@@VNonTrackingAllocator@ps@23@@ps@cloth@nv@@QEAAXIAEBUClothFabricPhase@34@@Z 00000001800a2360 f i ClothFabricCooker.obj
 0001:000a1420       ?setToDefault@ClothFabricDesc@cloth@nv@@QEAAXXZ 00000001800a2420 f i ClothFabricCooker.obj
 0001:000a1440       ?size@?$Array@V?$Pair@V?$Pair@II@ps@cloth@nv@@W4Enum@ClothFabricPhaseType@34@@ps@cloth@nv@@VNonTrackingAllocator@234@@ps@cloth@nv@@QEBAIXZ 00000001800a2440 f i ClothFabricCooker.obj
 0001:000a1460       ?size@?$Range@$$CBH@cloth@nv@@QEBAIXZ 00000001800a2460 f i ClothFabricCooker.obj
 0001:000a1490       ?stride@?$PxStrideIterator@$$CBG@physx@@QEBAIXZ 00000001800a2490 f i ClothFabricCooker.obj
 0001:000a14b0       ?stride@?$PxStrideIterator@$$CBI@physx@@QEBAIXZ 00000001800a24b0 f i ClothFabricCooker.obj
 0001:000a14d0       ?stride@?$PxStrideIterator@$$CBM@physx@@QEBAIXZ 00000001800a24d0 f i ClothFabricCooker.obj
 0001:000a14f0       ?stride@?$PxStrideIterator@$$CBVPxVec3@physx@@@physx@@QEBAIXZ 00000001800a24f0 f i ClothFabricCooker.obj
 0001:000a1590       NvClothCreateGeodesicTetherCooker 00000001800a2590 f   ClothGeodesicTetherCooker.obj
 0001:000a1cb0       ?cook@ClothGeodesicTetherCooker@cloth@nv@@UEAA_NAEBVClothMeshDesc@23@@Z 00000001800a2cb0 f   ClothGeodesicTetherCooker.obj
 0001:000a1d20       ?getCookerStatus@ClothGeodesicTetherCooker@cloth@nv@@UEBAIXZ 00000001800a2d20 f   ClothGeodesicTetherCooker.obj
 0001:000a1d40       ?getNbTethersPerParticle@ClothGeodesicTetherCooker@cloth@nv@@UEBAIXZ 00000001800a2d40 f   ClothGeodesicTetherCooker.obj
 0001:000a1d80       ?getTetherData@ClothGeodesicTetherCooker@cloth@nv@@UEBAXPEAIPEAM@Z 00000001800a2d80 f   ClothGeodesicTetherCooker.obj
 0001:000a1e30       ?createTetherData@ClothGeodesicTetherCooker@cloth@nv@@IEAAXAEBVClothMeshDesc@23@@Z 00000001800a2e30 f   ClothGeodesicTetherCooker.obj
 0001:000a4700       ?computeGeodesicDistance@ClothGeodesicTetherCooker@cloth@nv@@IEAAMIIAEAH@Z 00000001800a5700 f   ClothGeodesicTetherCooker.obj
 0001:000a48a0       ?findTriNeighbors@ClothGeodesicTetherCooker@cloth@nv@@IEAAIXZ 00000001800a58a0 f   ClothGeodesicTetherCooker.obj
 0001:000a4cc0       ?findVertTriNeighbors@ClothGeodesicTetherCooker@cloth@nv@@IEAAXXZ 00000001800a5cc0 f   ClothGeodesicTetherCooker.obj
 0001:000aa230       ??$swap@H@ps@cloth@nv@@YAXAEAH0@Z 00000001800ab230 f i ClothGeodesicTetherCooker.obj
 0001:000aa440       ??0?$Array@EVNonTrackingAllocator@ps@cloth@nv@@@ps@cloth@nv@@QEAA@AEBVNonTrackingAllocator@123@@Z 00000001800ab440 f i ClothGeodesicTetherCooker.obj
 0001:000aa490       ??0ClothGeodesicTetherCooker@cloth@nv@@QEAA@XZ 00000001800ab490 f i ClothGeodesicTetherCooker.obj
 0001:000aa600       ??0ClothTetherCooker@cloth@nv@@QEAA@XZ 00000001800ab600 f i ClothGeodesicTetherCooker.obj
 0001:000aa630       ??1?$Array@EVNonTrackingAllocator@ps@cloth@nv@@@ps@cloth@nv@@QEAA@XZ 00000001800ab630 f i ClothGeodesicTetherCooker.obj
 0001:000aa6b0       ??1ClothGeodesicTetherCooker@cloth@nv@@UEAA@XZ 00000001800ab6b0 f i ClothGeodesicTetherCooker.obj
 0001:000aa780       ??1ClothTetherCooker@cloth@nv@@UEAA@XZ 00000001800ab780 f i ClothGeodesicTetherCooker.obj
 0001:000aa7a0       ??A?$Array@EVNonTrackingAllocator@ps@cloth@nv@@@ps@cloth@nv@@QEAAAEAEI@Z 00000001800ab7a0 f i ClothGeodesicTetherCooker.obj
 0001:000aa840       ??_EClothGeodesicTetherCooker@cloth@nv@@UEAAPEAXI@Z 00000001800ab840 f i ClothGeodesicTetherCooker.obj
 0001:000aa840       ??_GClothGeodesicTetherCooker@cloth@nv@@UEAAPEAXI@Z 00000001800ab840 f i ClothGeodesicTetherCooker.obj
 0001:000aa8b0       ??_EClothTetherCooker@cloth@nv@@UEAAPEAXI@Z 00000001800ab8b0 f i ClothGeodesicTetherCooker.obj
 0001:000aa8b0       ??_GClothTetherCooker@cloth@nv@@UEAAPEAXI@Z 00000001800ab8b0 f i ClothGeodesicTetherCooker.obj
 0001:000aa920       ?PxMemCopy@physx@@YAPEAXPEAXPEBXI@Z 00000001800ab920 f i ClothGeodesicTetherCooker.obj
 0001:000aa960       ?allocate@?$Array@EVNonTrackingAllocator@ps@cloth@nv@@@ps@cloth@nv@@IEAAPEAEI@Z 00000001800ab960 f i ClothGeodesicTetherCooker.obj
 0001:000aaa00       ?capacity@?$Array@EVNonTrackingAllocator@ps@cloth@nv@@@ps@cloth@nv@@QEBAIXZ 00000001800aba00 f i ClothGeodesicTetherCooker.obj
 0001:000aaa20       ?copy@?$Array@EVNonTrackingAllocator@ps@cloth@nv@@@ps@cloth@nv@@KAXPEAE0PEBE@Z 00000001800aba20 f i ClothGeodesicTetherCooker.obj
 0001:000aaac0       ?create@?$Array@EVNonTrackingAllocator@ps@cloth@nv@@@ps@cloth@nv@@KAXPEAE0AEBE@Z 00000001800abac0 f i ClothGeodesicTetherCooker.obj
 0001:000aab30       ?deallocate@?$Array@EVNonTrackingAllocator@ps@cloth@nv@@@ps@cloth@nv@@IEAAXPEAX@Z 00000001800abb30 f i ClothGeodesicTetherCooker.obj
 0001:000aab60       ?destroy@?$Array@EVNonTrackingAllocator@ps@cloth@nv@@@ps@cloth@nv@@KAXPEAE0@Z 00000001800abb60 f i ClothGeodesicTetherCooker.obj
 0001:000aaba0       ?grow@?$Array@EVNonTrackingAllocator@ps@cloth@nv@@@ps@cloth@nv@@IEAAXI@Z 00000001800abba0 f i ClothGeodesicTetherCooker.obj
 0001:000ab2b0       ?isInUserMemory@?$Array@EVNonTrackingAllocator@ps@cloth@nv@@@ps@cloth@nv@@QEBAIXZ 00000001800ac2b0 f i ClothGeodesicTetherCooker.obj
 0001:000ab2d0       ?recreate@?$Array@EVNonTrackingAllocator@ps@cloth@nv@@@ps@cloth@nv@@IEAAXI@Z 00000001800ac2d0 f i ClothGeodesicTetherCooker.obj
 0001:000ab590       ?reserve@?$Array@EVNonTrackingAllocator@ps@cloth@nv@@@ps@cloth@nv@@QEAAXI@Z 00000001800ac590 f i ClothGeodesicTetherCooker.obj
 0001:000ab5d0       ?resize@?$Array@EVNonTrackingAllocator@ps@cloth@nv@@@ps@cloth@nv@@QEAAXIAEBE@Z 00000001800ac5d0 f i ClothGeodesicTetherCooker.obj
 0001:000ab670       NvClothCreateMeshQuadifier 00000001800ac670 f   ClothMeshQuadifier.obj
 0001:000ab6d0       ?quadify@ClothMeshQuadifierImpl@cloth@nv@@UEAA_NAEBVClothMeshDesc@23@@Z 00000001800ac6d0 f   ClothMeshQuadifier.obj
 0001:000ab960       ?getDescriptor@ClothMeshQuadifierImpl@cloth@nv@@UEBA?AVClothMeshDesc@23@XZ 00000001800ac960 f   ClothMeshQuadifier.obj
 0001:000afdc0       ??0BoundedData@cloth@nv@@QEAA@XZ 00000001800b0dc0 f i ClothMeshQuadifier.obj
 0001:000afe00       ??0ClothMeshDesc@cloth@nv@@QEAA@XZ 00000001800b0e00 f i ClothMeshQuadifier.obj
 0001:000afe90       ??0ClothMeshQuadifier@cloth@nv@@QEAA@XZ 00000001800b0e90 f i ClothMeshQuadifier.obj
 0001:000afec0       ??0ClothMeshQuadifierImpl@cloth@nv@@QEAA@XZ 00000001800b0ec0 f i ClothMeshQuadifier.obj
 0001:000aff70       ??0StridedData@cloth@nv@@QEAA@XZ 00000001800b0f70 f i ClothMeshQuadifier.obj
 0001:000affa0       ??1ClothMeshQuadifier@cloth@nv@@UEAA@XZ 00000001800b0fa0 f i ClothMeshQuadifier.obj
 0001:000affc0       ??1ClothMeshQuadifierImpl@cloth@nv@@UEAA@XZ 00000001800b0fc0 f i ClothMeshQuadifier.obj
 0001:000b0020       ??_EClothMeshQuadifier@cloth@nv@@UEAAPEAXI@Z 00000001800b1020 f i ClothMeshQuadifier.obj
 0001:000b0020       ??_GClothMeshQuadifier@cloth@nv@@UEAAPEAXI@Z 00000001800b1020 f i ClothMeshQuadifier.obj
 0001:000b0090       ??_EClothMeshQuadifierImpl@cloth@nv@@UEAAPEAXI@Z 00000001800b1090 f i ClothMeshQuadifier.obj
 0001:000b0090       ??_GClothMeshQuadifierImpl@cloth@nv@@UEAAPEAXI@Z 00000001800b1090 f i ClothMeshQuadifier.obj
 0001:000b0100       ??_H@YAXPEAX_K1P6APEAX0@Z@Z 00000001800b1100 f i ClothMeshQuadifier.obj
 0001:000b01a0       ?degToRad@ps@cloth@nv@@YAMM@Z 00000001800b11a0 f i ClothMeshQuadifier.obj
 0001:000b0630       NvClothCreateSimpleTetherCooker 00000001800b1630 f   ClothSimpleTetherCooker.obj
 0001:000b0690       ?cook@ClothSimpleTetherCooker@cloth@nv@@UEAA_NAEBVClothMeshDesc@23@@Z 00000001800b1690 f   ClothSimpleTetherCooker.obj
 0001:000b0700       ?getCookerStatus@ClothSimpleTetherCooker@cloth@nv@@UEBAIXZ 00000001800b1700 f   ClothSimpleTetherCooker.obj
 0001:000b0720       ?getTetherData@ClothSimpleTetherCooker@cloth@nv@@UEBAXPEAIPEAM@Z 00000001800b1720 f   ClothSimpleTetherCooker.obj
 0001:000b07c0       ?createTetherData@ClothSimpleTetherCooker@cloth@nv@@IEAAXAEBVClothMeshDesc@23@@Z 00000001800b17c0 f   ClothSimpleTetherCooker.obj
 0001:000b0e60       ??0ClothSimpleTetherCooker@cloth@nv@@QEAA@XZ 00000001800b1e60 f i ClothSimpleTetherCooker.obj
 0001:000b0ef0       ??1ClothSimpleTetherCooker@cloth@nv@@UEAA@XZ 00000001800b1ef0 f i ClothSimpleTetherCooker.obj
 0001:000b0f40       ??_EClothSimpleTetherCooker@cloth@nv@@UEAAPEAXI@Z 00000001800b1f40 f i ClothSimpleTetherCooker.obj
 0001:000b0f40       ??_GClothSimpleTetherCooker@cloth@nv@@UEAAPEAXI@Z 00000001800b1f40 f i ClothSimpleTetherCooker.obj
 0001:000b0fb0       ?capacityIncrement@?$Array@MVNonTrackingAllocator@ps@cloth@nv@@@ps@cloth@nv@@IEBAIXZ 00000001800b1fb0 f i ClothSimpleTetherCooker.obj
 0001:000b1000       ?getNbTethersPerParticle@ClothSimpleTetherCooker@cloth@nv@@UEBAIXZ 00000001800b2000 f i ClothSimpleTetherCooker.obj
 0001:000b1010       ?growAndPushBack@?$Array@MVNonTrackingAllocator@ps@cloth@nv@@@ps@cloth@nv@@IEAAAEAMAEBM@Z 00000001800b2010 f i ClothSimpleTetherCooker.obj
 0001:000b1200       ?pushBack@?$Array@MVNonTrackingAllocator@ps@cloth@nv@@@ps@cloth@nv@@QEAAAEAMAEBM@Z 00000001800b2200 f i ClothSimpleTetherCooker.obj
 0001:000b12d0       cuArray3DCreate            00000001800b22d0 f   cuda:cuda_driverloader_generated_cuda_driverloader_cuda.obj
 0001:000b1340       cuArray3DCreate_v2         00000001800b2340 f   cuda:cuda_driverloader_generated_cuda_driverloader_cuda.obj
 0001:000b13b0       cuArray3DGetDescriptor     00000001800b23b0 f   cuda:cuda_driverloader_generated_cuda_driverloader_cuda.obj
 0001:000b1420       cuArray3DGetDescriptor_v2  00000001800b2420 f   cuda:cuda_driverloader_generated_cuda_driverloader_cuda.obj
 0001:000b1490       cuArrayCreate              00000001800b2490 f   cuda:cuda_driverloader_generated_cuda_driverloader_cuda.obj
 0001:000b1500       cuArrayCreate_v2           00000001800b2500 f   cuda:cuda_driverloader_generated_cuda_driverloader_cuda.obj
 0001:000b1570       cuArrayDestroy             00000001800b2570 f   cuda:cuda_driverloader_generated_cuda_driverloader_cuda.obj
 0001:000b15c0       cuArrayGetDescriptor       00000001800b25c0 f   cuda:cuda_driverloader_generated_cuda_driverloader_cuda.obj
 0001:000b1630       cuArrayGetDescriptor_v2    00000001800b2630 f   cuda:cuda_driverloader_generated_cuda_driverloader_cuda.obj
 0001:000b16a0       cuArrayGetMemoryRequirements 00000001800b26a0 f   cuda:cuda_driverloader_generated_cuda_driverloader_cuda.obj
 0001:000b1730       cuArrayGetPlane            00000001800b2730 f   cuda:cuda_driverloader_generated_cuda_driverloader_cuda.obj
 0001:000b17c0       cuArrayGetSparseProperties 00000001800b27c0 f   cuda:cuda_driverloader_generated_cuda_driverloader_cuda.obj
 0001:000b1830       cuCheckpointProcessCheckpoint 00000001800b2830 f   cuda:cuda_driverloader_generated_cuda_driverloader_cuda.obj
 0001:000b18a0       cuCheckpointProcessGetRestoreThreadId 00000001800b28a0 f   cuda:cuda_driverloader_generated_cuda_driverloader_cuda.obj
 0001:000b1910       cuCheckpointProcessGetState 00000001800b2910 f   cuda:cuda_driverloader_generated_cuda_driverloader_cuda.obj
 0001:000b1980       cuCheckpointProcessLock    00000001800b2980 f   cuda:cuda_driverloader_generated_cuda_driverloader_cuda.obj
 0001:000b19f0       cuCheckpointProcessRestore 00000001800b29f0 f   cuda:cuda_driverloader_generated_cuda_driverloader_cuda.obj
 0001:000b1a60       cuCheckpointProcessUnlock  00000001800b2a60 f   cuda:cuda_driverloader_generated_cuda_driverloader_cuda.obj
 0001:000b1ad0       cuCoredumpGetAttribute     00000001800b2ad0 f   cuda:cuda_driverloader_generated_cuda_driverloader_cuda.obj
 0001:000b1b50       cuCoredumpGetAttributeGlobal 00000001800b2b50 f   cuda:cuda_driverloader_generated_cuda_driverloader_cuda.obj
 0001:000b1bd0       cuCoredumpSetAttribute     00000001800b2bd0 f   cuda:cuda_driverloader_generated_cuda_driverloader_cuda.obj
 0001:000b1c50       cuCoredumpSetAttributeGlobal 00000001800b2c50 f   cuda:cuda_driverloader_generated_cuda_driverloader_cuda.obj
 0001:000b1cd0       cuCtxAttach                00000001800b2cd0 f   cuda:cuda_driverloader_generated_cuda_driverloader_cuda.obj
 0001:000b1d40       cuCtxCreate                00000001800b2d40 f   cuda:cuda_driverloader_generated_cuda_driverloader_cuda.obj
 0001:000b1dc0       cuCtxCreate_v2             00000001800b2dc0 f   cuda:cuda_driverloader_generated_cuda_driverloader_cuda.obj
 0001:000b1e40       cuCtxCreate_v3             00000001800b2e40 f   cuda:cuda_driverloader_generated_cuda_driverloader_cuda.obj
 0001:000b1ee0       cuCtxCreate_v4             00000001800b2ee0 f   cuda:cuda_driverloader_generated_cuda_driverloader_cuda.obj
 0001:000b1f70       cuCtxDestroy               00000001800b2f70 f   cuda:cuda_driverloader_generated_cuda_driverloader_cuda.obj
 0001:000b1fc0       cuCtxDestroy_v2            00000001800b2fc0 f   cuda:cuda_driverloader_generated_cuda_driverloader_cuda.obj
 0001:000b2010       cuCtxDetach                00000001800b3010 f   cuda:cuda_driverloader_generated_cuda_driverloader_cuda.obj
 0001:000b2060       cuCtxDisablePeerAccess     00000001800b3060 f   cuda:cuda_driverloader_generated_cuda_driverloader_cuda.obj
 0001:000b20b0       cuCtxEnablePeerAccess      00000001800b30b0 f   cuda:cuda_driverloader_generated_cuda_driverloader_cuda.obj
 0001:000b2120       cuCtxFromGreenCtx          00000001800b3120 f   cuda:cuda_driverloader_generated_cuda_driverloader_cuda.obj
 0001:000b2190       cuCtxGetApiVersion         00000001800b3190 f   cuda:cuda_driverloader_generated_cuda_driverloader_cuda.obj
 0001:000b2200       cuCtxGetCacheConfig        00000001800b3200 f   cuda:cuda_driverloader_generated_cuda_driverloader_cuda.obj
 0001:000b2250       cuCtxGetCurrent            00000001800b3250 f   cuda:cuda_driverloader_generated_cuda_driverloader_cuda.obj
 0001:000b22a0       cuCtxGetDevResource        00000001800b32a0 f   cuda:cuda_driverloader_generated_cuda_driverloader_cuda.obj
 0001:000b2330       cuCtxGetDevice             00000001800b3330 f   cuda:cuda_driverloader_generated_cuda_driverloader_cuda.obj
 0001:000b2380       cuCtxGetDevice_v2          00000001800b3380 f   cuda:cuda_driverloader_generated_cuda_driverloader_cuda.obj
 0001:000b23f0       cuCtxGetExecAffinity       00000001800b33f0 f   cuda:cuda_driverloader_generated_cuda_driverloader_cuda.obj
 0001:000b2460       cuCtxGetFlags              00000001800b3460 f   cuda:cuda_driverloader_generated_cuda_driverloader_cuda.obj
 0001:000b24b0       cuCtxGetId                 00000001800b34b0 f   cuda:cuda_driverloader_generated_cuda_driverloader_cuda.obj
 0001:000b2520       cuCtxGetLimit              00000001800b3520 f   cuda:cuda_driverloader_generated_cuda_driverloader_cuda.obj
 0001:000b2590       cuCtxGetSharedMemConfig    00000001800b3590 f   cuda:cuda_driverloader_generated_cuda_driverloader_cuda.obj
 0001:000b25e0       cuCtxGetStreamPriorityRange 00000001800b35e0 f   cuda:cuda_driverloader_generated_cuda_driverloader_cuda.obj
 0001:000b2650       cuCtxPopCurrent            00000001800b3650 f   cuda:cuda_driverloader_generated_cuda_driverloader_cuda.obj
 0001:000b26a0       cuCtxPopCurrent_v2         00000001800b36a0 f   cuda:cuda_driverloader_generated_cuda_driverloader_cuda.obj
 0001:000b26f0       cuCtxPushCurrent           00000001800b36f0 f   cuda:cuda_driverloader_generated_cuda_driverloader_cuda.obj
 0001:000b2740       cuCtxPushCurrent_v2        00000001800b3740 f   cuda:cuda_driverloader_generated_cuda_driverloader_cuda.obj
 0001:000b2790       cuCtxRecordEvent           00000001800b3790 f   cuda:cuda_driverloader_generated_cuda_driverloader_cuda.obj
 0001:000b2800       cuCtxResetPersistingL2Cache 00000001800b3800 f   cuda:cuda_driverloader_generated_cuda_driverloader_cuda.obj
 0001:000b2850       cuCtxSetCacheConfig        00000001800b3850 f   cuda:cuda_driverloader_generated_cuda_driverloader_cuda.obj
 0001:000b28a0       cuCtxSetCurrent            00000001800b38a0 f   cuda:cuda_driverloader_generated_cuda_driverloader_cuda.obj
 0001:000b28f0       cuCtxSetFlags              00000001800b38f0 f   cuda:cuda_driverloader_generated_cuda_driverloader_cuda.obj
 0001:000b2940       cuCtxSetLimit              00000001800b3940 f   cuda:cuda_driverloader_generated_cuda_driverloader_cuda.obj
 0001:000b29b0       cuCtxSetSharedMemConfig    00000001800b39b0 f   cuda:cuda_driverloader_generated_cuda_driverloader_cuda.obj
 0001:000b2a00       cuCtxSynchronize           00000001800b3a00 f   cuda:cuda_driverloader_generated_cuda_driverloader_cuda.obj
 0001:000b2a50       cuCtxSynchronize_v2        00000001800b3a50 f   cuda:cuda_driverloader_generated_cuda_driverloader_cuda.obj
 0001:000b2aa0       cuCtxWaitEvent             00000001800b3aa0 f   cuda:cuda_driverloader_generated_cuda_driverloader_cuda.obj
 0001:000b2b10       cuDestroyExternalMemory    00000001800b3b10 f   cuda:cuda_driverloader_generated_cuda_driverloader_cuda.obj
 0001:000b2b60       cuDestroyExternalSemaphore 00000001800b3b60 f   cuda:cuda_driverloader_generated_cuda_driverloader_cuda.obj
 0001:000b2bb0       cuDevResourceGenerateDesc  00000001800b3bb0 f   cuda:cuda_driverloader_generated_cuda_driverloader_cuda.obj
 0001:000b2c40       cuDevSmResourceSplitByCount 00000001800b3c40 f   cuda:cuda_driverloader_generated_cuda_driverloader_cuda.obj
 0001:000b2ce0       cuDeviceCanAccessPeer      00000001800b3ce0 f   cuda:cuda_driverloader_generated_cuda_driverloader_cuda.obj
 0001:000b2d60       cuDeviceComputeCapability  00000001800b3d60 f   cuda:cuda_driverloader_generated_cuda_driverloader_cuda.obj
 0001:000b2df0       cuDeviceGet                00000001800b3df0 f   cuda:cuda_driverloader_generated_cuda_driverloader_cuda.obj
 0001:000b2e60       cuDeviceGetAttribute       00000001800b3e60 f   cuda:cuda_driverloader_generated_cuda_driverloader_cuda.obj
 0001:000b2ee0       cuDeviceGetByPCIBusId      00000001800b3ee0 f   cuda:cuda_driverloader_generated_cuda_driverloader_cuda.obj
 0001:000b2f50       cuDeviceGetCount           00000001800b3f50 f   cuda:cuda_driverloader_generated_cuda_driverloader_cuda.obj
 0001:000b2fa0       cuDeviceGetDefaultMemPool  00000001800b3fa0 f   cuda:cuda_driverloader_generated_cuda_driverloader_cuda.obj
 0001:000b3010       cuDeviceGetDevResource     00000001800b4010 f   cuda:cuda_driverloader_generated_cuda_driverloader_cuda.obj
 0001:000b3090       cuDeviceGetExecAffinitySupport 00000001800b4090 f   cuda:cuda_driverloader_generated_cuda_driverloader_cuda.obj
 0001:000b3110       cuDeviceGetGraphMemAttribute 00000001800b4110 f   cuda:cuda_driverloader_generated_cuda_driverloader_cuda.obj
 0001:000b3190       cuDeviceGetHostAtomicCapabilities 00000001800b4190 f   cuda:cuda_driverloader_generated_cuda_driverloader_cuda.obj
 0001:000b3220       cuDeviceGetLuid            00000001800b4220 f   cuda:cuda_driverloader_generated_cuda_driverloader_cuda.obj
 0001:000b32b0       cuDeviceGetMemPool         00000001800b42b0 f   cuda:cuda_driverloader_generated_cuda_driverloader_cuda.obj
 0001:000b3320       cuDeviceGetName            00000001800b4320 f   cuda:cuda_driverloader_generated_cuda_driverloader_cuda.obj
 0001:000b33a0       cuDeviceGetNvSciSyncAttributes 00000001800b43a0 f   cuda:cuda_driverloader_generated_cuda_driverloader_cuda.obj
 0001:000b3420       cuDeviceGetP2PAtomicCapabilities 00000001800b4420 f   cuda:cuda_driverloader_generated_cuda_driverloader_cuda.obj
 0001:000b34c0       cuDeviceGetP2PAttribute    00000001800b44c0 f   cuda:cuda_driverloader_generated_cuda_driverloader_cuda.obj
 0001:000b3550       cuDeviceGetPCIBusId        00000001800b4550 f   cuda:cuda_driverloader_generated_cuda_driverloader_cuda.obj
 0001:000b35d0       cuDeviceGetProperties      00000001800b45d0 f   cuda:cuda_driverloader_generated_cuda_driverloader_cuda.obj
 0001:000b3640       cuDeviceGetTexture1DLinearMaxWidth 00000001800b4640 f   cuda:cuda_driverloader_generated_cuda_driverloader_cuda.obj
 0001:000b36d0       cuDeviceGetUuid            00000001800b46d0 f   cuda:cuda_driverloader_generated_cuda_driverloader_cuda.obj
 0001:000b3740       cuDeviceGetUuid_v2         00000001800b4740 f   cuda:cuda_driverloader_generated_cuda_driverloader_cuda.obj
 0001:000b37b0       cuDeviceGraphMemTrim       00000001800b47b0 f   cuda:cuda_driverloader_generated_cuda_driverloader_cuda.obj
 0001:000b3800       cuDevicePrimaryCtxGetState 00000001800b4800 f   cuda:cuda_driverloader_generated_cuda_driverloader_cuda.obj
 0001:000b3880       cuDevicePrimaryCtxRelease  00000001800b4880 f   cuda:cuda_driverloader_generated_cuda_driverloader_cuda.obj
 0001:000b38d0       cuDevicePrimaryCtxRelease_v2 00000001800b48d0 f   cuda:cuda_driverloader_generated_cuda_driverloader_cuda.obj
 0001:000b3920       cuDevicePrimaryCtxReset    00000001800b4920 f   cuda:cuda_driverloader_generated_cuda_driverloader_cuda.obj
 0001:000b3970       cuDevicePrimaryCtxReset_v2 00000001800b4970 f   cuda:cuda_driverloader_generated_cuda_driverloader_cuda.obj
 0001:000b39c0       cuDevicePrimaryCtxRetain   00000001800b49c0 f   cuda:cuda_driverloader_generated_cuda_driverloader_cuda.obj
 0001:000b3a30       cuDevicePrimaryCtxSetFlags 00000001800b4a30 f   cuda:cuda_driverloader_generated_cuda_driverloader_cuda.obj
 0001:000b3aa0       cuDevicePrimaryCtxSetFlags_v2 00000001800b4aa0 f   cuda:cuda_driverloader_generated_cuda_driverloader_cuda.obj
 0001:000b3b10       cuDeviceRegisterAsyncNotification 00000001800b4b10 f   cuda:cuda_driverloader_generated_cuda_driverloader_cuda.obj
 0001:000b3ba0       cuDeviceSetGraphMemAttribute 00000001800b4ba0 f   cuda:cuda_driverloader_generated_cuda_driverloader_cuda.obj
 0001:000b3c20       cuDeviceSetMemPool         00000001800b4c20 f   cuda:cuda_driverloader_generated_cuda_driverloader_cuda.obj
 0001:000b3c90       cuDeviceTotalMem           00000001800b4c90 f   cuda:cuda_driverloader_generated_cuda_driverloader_cuda.obj
 0001:000b3d00       cuDeviceTotalMem_v2        00000001800b4d00 f   cuda:cuda_driverloader_generated_cuda_driverloader_cuda.obj
 0001:000b3d70       cuDeviceUnregisterAsyncNotification 00000001800b4d70 f   cuda:cuda_driverloader_generated_cuda_driverloader_cuda.obj
 0001:000b3de0       cuDriverGetVersion         00000001800b4de0 f   cuda:cuda_driverloader_generated_cuda_driverloader_cuda.obj
 0001:000b3e30       cuEventCreate              00000001800b4e30 f   cuda:cuda_driverloader_generated_cuda_driverloader_cuda.obj
 0001:000b3ea0       cuEventDestroy             00000001800b4ea0 f   cuda:cuda_driverloader_generated_cuda_driverloader_cuda.obj
 0001:000b3ef0       cuEventDestroy_v2          00000001800b4ef0 f   cuda:cuda_driverloader_generated_cuda_driverloader_cuda.obj
 0001:000b3f40       cuEventElapsedTime         00000001800b4f40 f   cuda:cuda_driverloader_generated_cuda_driverloader_cuda.obj
 0001:000b3fd0       cuEventElapsedTime_v2      00000001800b4fd0 f   cuda:cuda_driverloader_generated_cuda_driverloader_cuda.obj
 0001:000b4060       cuEventQuery               00000001800b5060 f   cuda:cuda_driverloader_generated_cuda_driverloader_cuda.obj
 0001:000b40b0       cuEventRecord              00000001800b50b0 f   cuda:cuda_driverloader_generated_cuda_driverloader_cuda.obj
 0001:000b4120       cuEventRecordWithFlags     00000001800b5120 f   cuda:cuda_driverloader_generated_cuda_driverloader_cuda.obj
 0001:000b41b0       cuEventRecordWithFlags_ptsz 00000001800b51b0 f   cuda:cuda_driverloader_generated_cuda_driverloader_cuda.obj
 0001:000b4240       cuEventRecord_ptsz         00000001800b5240 f   cuda:cuda_driverloader_generated_cuda_driverloader_cuda.obj
 0001:000b42b0       cuEventSynchronize         00000001800b52b0 f   cuda:cuda_driverloader_generated_cuda_driverloader_cuda.obj
 0001:000b4300       cuExternalMemoryGetMappedBuffer 00000001800b5300 f   cuda:cuda_driverloader_generated_cuda_driverloader_cuda.obj
 0001:000b4390       cuExternalMemoryGetMappedMipmappedArray 00000001800b5390 f   cuda:cuda_driverloader_generated_cuda_driverloader_cuda.obj
 0001:000b4420       cuFlushGPUDirectRDMAWrites 00000001800b5420 f   cuda:cuda_driverloader_generated_cuda_driverloader_cuda.obj
 0001:000b4490       cuFuncGetAttribute         00000001800b5490 f   cuda:cuda_driverloader_generated_cuda_driverloader_cuda.obj
 0001:000b4510       cuFuncGetModule            00000001800b5510 f   cuda:cuda_driverloader_generated_cuda_driverloader_cuda.obj
 0001:000b4580       cuFuncGetName              00000001800b5580 f   cuda:cuda_driverloader_generated_cuda_driverloader_cuda.obj
 0001:000b45f0       cuFuncGetParamInfo         00000001800b55f0 f   cuda:cuda_driverloader_generated_cuda_driverloader_cuda.obj
 0001:000b4680       cuFuncIsLoaded             00000001800b5680 f   cuda:cuda_driverloader_generated_cuda_driverloader_cuda.obj
 0001:000b46f0       cuFuncLoad                 00000001800b56f0 f   cuda:cuda_driverloader_generated_cuda_driverloader_cuda.obj
 0001:000b4740       cuFuncSetAttribute         00000001800b5740 f   cuda:cuda_driverloader_generated_cuda_driverloader_cuda.obj
 0001:000b47c0       cuFuncSetBlockShape        00000001800b57c0 f   cuda:cuda_driverloader_generated_cuda_driverloader_cuda.obj
 0001:000b4850       cuFuncSetCacheConfig       00000001800b5850 f   cuda:cuda_driverloader_generated_cuda_driverloader_cuda.obj
 0001:000b48c0       cuFuncSetSharedMemConfig   00000001800b58c0 f   cuda:cuda_driverloader_generated_cuda_driverloader_cuda.obj
 0001:000b4930       cuFuncSetSharedSize        00000001800b5930 f   cuda:cuda_driverloader_generated_cuda_driverloader_cuda.obj
 0001:000b49a0       cuGetErrorName             00000001800b59a0 f   cuda:cuda_driverloader_generated_cuda_driverloader_cuda.obj
 0001:000b4a10       cuGetErrorString           00000001800b5a10 f   cuda:cuda_driverloader_generated_cuda_driverloader_cuda.obj
 0001:000b4a80       cuGetExportTable           00000001800b5a80 f   cuda:cuda_driverloader_generated_cuda_driverloader_cuda.obj
 0001:000b4af0       cuGetProcAddress           00000001800b5af0 f   cuda:cuda_driverloader_generated_cuda_driverloader_cuda.obj
 0001:000b4b80       cuGetProcAddress_v2        00000001800b5b80 f   cuda:cuda_driverloader_generated_cuda_driverloader_cuda.obj
 0001:000b4c20       cuGraphAddBatchMemOpNode   00000001800b5c20 f   cuda:cuda_driverloader_generated_cuda_driverloader_cuda.obj
 0001:000b4cc0       cuGraphAddChildGraphNode   00000001800b5cc0 f   cuda:cuda_driverloader_generated_cuda_driverloader_cuda.obj
 0001:000b4d60       cuGraphAddDependencies     00000001800b5d60 f   cuda:cuda_driverloader_generated_cuda_driverloader_cuda.obj
 0001:000b4df0       cuGraphAddDependencies_v2  00000001800b5df0 f   cuda:cuda_driverloader_generated_cuda_driverloader_cuda.obj
 0001:000b4e90       cuGraphAddEmptyNode        00000001800b5e90 f   cuda:cuda_driverloader_generated_cuda_driverloader_cuda.obj
 0001:000b4f20       cuGraphAddEventRecordNode  00000001800b5f20 f   cuda:cuda_driverloader_generated_cuda_driverloader_cuda.obj
 0001:000b4fc0       cuGraphAddEventWaitNode    00000001800b5fc0 f   cuda:cuda_driverloader_generated_cuda_driverloader_cuda.obj
 0001:000b5060       cuGraphAddExternalSemaphoresSignalNode 00000001800b6060 f   cuda:cuda_driverloader_generated_cuda_driverloader_cuda.obj
 0001:000b5100       cuGraphAddExternalSemaphoresWaitNode 00000001800b6100 f   cuda:cuda_driverloader_generated_cuda_driverloader_cuda.obj
 0001:000b51a0       cuGraphAddHostNode         00000001800b61a0 f   cuda:cuda_driverloader_generated_cuda_driverloader_cuda.obj
 0001:000b5240       cuGraphAddKernelNode       00000001800b6240 f   cuda:cuda_driverloader_generated_cuda_driverloader_cuda.obj
 0001:000b52e0       cuGraphAddKernelNode_v2    00000001800b62e0 f   cuda:cuda_driverloader_generated_cuda_driverloader_cuda.obj
 0001:000b5380       cuGraphAddMemAllocNode     00000001800b6380 f   cuda:cuda_driverloader_generated_cuda_driverloader_cuda.obj
 0001:000b5420       cuGraphAddMemFreeNode      00000001800b6420 f   cuda:cuda_driverloader_generated_cuda_driverloader_cuda.obj
 0001:000b54c0       cuGraphAddMemcpyNode       00000001800b64c0 f   cuda:cuda_driverloader_generated_cuda_driverloader_cuda.obj
 0001:000b5560       cuGraphAddMemsetNode       00000001800b6560 f   cuda:cuda_driverloader_generated_cuda_driverloader_cuda.obj
 0001:000b5600       cuGraphAddNode             00000001800b6600 f   cuda:cuda_driverloader_generated_cuda_driverloader_cuda.obj
 0001:000b56a0       cuGraphAddNode_v2          00000001800b66a0 f   cuda:cuda_driverloader_generated_cuda_driverloader_cuda.obj
 0001:000b5740       cuGraphBatchMemOpNodeGetParams 00000001800b6740 f   cuda:cuda_driverloader_generated_cuda_driverloader_cuda.obj
 0001:000b57b0       cuGraphBatchMemOpNodeSetParams 00000001800b67b0 f   cuda:cuda_driverloader_generated_cuda_driverloader_cuda.obj
 0001:000b5820       cuGraphChildGraphNodeGetGraph 00000001800b6820 f   cuda:cuda_driverloader_generated_cuda_driverloader_cuda.obj
 0001:000b5890       cuGraphClone               00000001800b6890 f   cuda:cuda_driverloader_generated_cuda_driverloader_cuda.obj
 0001:000b5900       cuGraphConditionalHandleCreate 00000001800b6900 f   cuda:cuda_driverloader_generated_cuda_driverloader_cuda.obj
 0001:000b59a0       cuGraphCreate              00000001800b69a0 f   cuda:cuda_driverloader_generated_cuda_driverloader_cuda.obj
 0001:000b5a10       cuGraphDebugDotPrint       00000001800b6a10 f   cuda:cuda_driverloader_generated_cuda_driverloader_cuda.obj
 0001:000b5aa0       cuGraphDestroy             00000001800b6aa0 f   cuda:cuda_driverloader_generated_cuda_driverloader_cuda.obj
 0001:000b5af0       cuGraphDestroyNode         00000001800b6af0 f   cuda:cuda_driverloader_generated_cuda_driverloader_cuda.obj
 0001:000b5b40       cuGraphEventRecordNodeGetEvent 00000001800b6b40 f   cuda:cuda_driverloader_generated_cuda_driverloader_cuda.obj
 0001:000b5bb0       cuGraphEventRecordNodeSetEvent 00000001800b6bb0 f   cuda:cuda_driverloader_generated_cuda_driverloader_cuda.obj
 0001:000b5c20       cuGraphEventWaitNodeGetEvent 00000001800b6c20 f   cuda:cuda_driverloader_generated_cuda_driverloader_cuda.obj
 0001:000b5c90       cuGraphEventWaitNodeSetEvent 00000001800b6c90 f   cuda:cuda_driverloader_generated_cuda_driverloader_cuda.obj
 0001:000b5d00       cuGraphExecBatchMemOpNodeSetParams 00000001800b6d00 f   cuda:cuda_driverloader_generated_cuda_driverloader_cuda.obj
 0001:000b5d90       cuGraphExecChildGraphNodeSetParams 00000001800b6d90 f   cuda:cuda_driverloader_generated_cuda_driverloader_cuda.obj
 0001:000b5e20       cuGraphExecDestroy         00000001800b6e20 f   cuda:cuda_driverloader_generated_cuda_driverloader_cuda.obj
 0001:000b5e70       cuGraphExecEventRecordNodeSetEvent 00000001800b6e70 f   cuda:cuda_driverloader_generated_cuda_driverloader_cuda.obj
 0001:000b5f00       cuGraphExecEventWaitNodeSetEvent 00000001800b6f00 f   cuda:cuda_driverloader_generated_cuda_driverloader_cuda.obj
 0001:000b5f90       cuGraphExecExternalSemaphoresSignalNodeSetParams 00000001800b6f90 f   cuda:cuda_driverloader_generated_cuda_driverloader_cuda.obj
 0001:000b6020       cuGraphExecExternalSemaphoresWaitNodeSetParams 00000001800b7020 f   cuda:cuda_driverloader_generated_cuda_driverloader_cuda.obj
 0001:000b60b0       cuGraphExecGetFlags        00000001800b70b0 f   cuda:cuda_driverloader_generated_cuda_driverloader_cuda.obj
 0001:000b6120       cuGraphExecHostNodeSetParams 00000001800b7120 f   cuda:cuda_driverloader_generated_cuda_driverloader_cuda.obj
 0001:000b61b0       cuGraphExecKernelNodeSetParams 00000001800b71b0 f   cuda:cuda_driverloader_generated_cuda_driverloader_cuda.obj
 0001:000b6240       cuGraphExecKernelNodeSetParams_v2 00000001800b7240 f   cuda:cuda_driverloader_generated_cuda_driverloader_cuda.obj
 0001:000b62d0       cuGraphExecMemcpyNodeSetParams 00000001800b72d0 f   cuda:cuda_driverloader_generated_cuda_driverloader_cuda.obj
 0001:000b6360       cuGraphExecMemsetNodeSetParams 00000001800b7360 f   cuda:cuda_driverloader_generated_cuda_driverloader_cuda.obj
 0001:000b63f0       cuGraphExecNodeSetParams   00000001800b73f0 f   cuda:cuda_driverloader_generated_cuda_driverloader_cuda.obj
 0001:000b6480       cuGraphExecUpdate          00000001800b7480 f   cuda:cuda_driverloader_generated_cuda_driverloader_cuda.obj
 0001:000b6510       cuGraphExecUpdate_v2       00000001800b7510 f   cuda:cuda_driverloader_generated_cuda_driverloader_cuda.obj
 0001:000b65a0       cuGraphExternalSemaphoresSignalNodeGetParams 00000001800b75a0 f   cuda:cuda_driverloader_generated_cuda_driverloader_cuda.obj
 0001:000b6610       cuGraphExternalSemaphoresSignalNodeSetParams 00000001800b7610 f   cuda:cuda_driverloader_generated_cuda_driverloader_cuda.obj
 0001:000b6680       cuGraphExternalSemaphoresWaitNodeGetParams 00000001800b7680 f   cuda:cuda_driverloader_generated_cuda_driverloader_cuda.obj
 0001:000b66f0       cuGraphExternalSemaphoresWaitNodeSetParams 00000001800b76f0 f   cuda:cuda_driverloader_generated_cuda_driverloader_cuda.obj
 0001:000b6760       cuGraphGetEdges            00000001800b7760 f   cuda:cuda_driverloader_generated_cuda_driverloader_cuda.obj
 0001:000b67f0       cuGraphGetEdges_v2         00000001800b77f0 f   cuda:cuda_driverloader_generated_cuda_driverloader_cuda.obj
 0001:000b6890       cuGraphGetNodes            00000001800b7890 f   cuda:cuda_driverloader_generated_cuda_driverloader_cuda.obj
 0001:000b6920       cuGraphGetRootNodes        00000001800b7920 f   cuda:cuda_driverloader_generated_cuda_driverloader_cuda.obj
 0001:000b69b0       cuGraphHostNodeGetParams   00000001800b79b0 f   cuda:cuda_driverloader_generated_cuda_driverloader_cuda.obj
 0001:000b6a20       cuGraphHostNodeSetParams   00000001800b7a20 f   cuda:cuda_driverloader_generated_cuda_driverloader_cuda.obj
 0001:000b6a90       cuGraphInstantiate         00000001800b7a90 f   cuda:cuda_driverloader_generated_cuda_driverloader_cuda.obj
 0001:000b6b30       cuGraphInstantiateWithFlags 00000001800b7b30 f   cuda:cuda_driverloader_generated_cuda_driverloader_cuda.obj
 0001:000b6bc0       cuGraphInstantiateWithParams 00000001800b7bc0 f   cuda:cuda_driverloader_generated_cuda_driverloader_cuda.obj
 0001:000b6c50       cuGraphInstantiateWithParams_ptsz 00000001800b7c50 f   cuda:cuda_driverloader_generated_cuda_driverloader_cuda.obj
 0001:000b6ce0       cuGraphInstantiate_v2      00000001800b7ce0 f   cuda:cuda_driverloader_generated_cuda_driverloader_cuda.obj
 0001:000b6d80       cuGraphKernelNodeCopyAttributes 00000001800b7d80 f   cuda:cuda_driverloader_generated_cuda_driverloader_cuda.obj
 0001:000b6df0       cuGraphKernelNodeGetAttribute 00000001800b7df0 f   cuda:cuda_driverloader_generated_cuda_driverloader_cuda.obj
 0001:000b6e70       cuGraphKernelNodeGetParams 00000001800b7e70 f   cuda:cuda_driverloader_generated_cuda_driverloader_cuda.obj
 0001:000b6ee0       cuGraphKernelNodeGetParams_v2 00000001800b7ee0 f   cuda:cuda_driverloader_generated_cuda_driverloader_cuda.obj
 0001:000b6f50       cuGraphKernelNodeSetAttribute 00000001800b7f50 f   cuda:cuda_driverloader_generated_cuda_driverloader_cuda.obj
 0001:000b6fd0       cuGraphKernelNodeSetParams 00000001800b7fd0 f   cuda:cuda_driverloader_generated_cuda_driverloader_cuda.obj
 0001:000b7040       cuGraphKernelNodeSetParams_v2 00000001800b8040 f   cuda:cuda_driverloader_generated_cuda_driverloader_cuda.obj
 0001:000b70b0       cuGraphLaunch              00000001800b80b0 f   cuda:cuda_driverloader_generated_cuda_driverloader_cuda.obj
 0001:000b7120       cuGraphLaunch_ptsz         00000001800b8120 f   cuda:cuda_driverloader_generated_cuda_driverloader_cuda.obj
 0001:000b7190       cuGraphMemAllocNodeGetParams 00000001800b8190 f   cuda:cuda_driverloader_generated_cuda_driverloader_cuda.obj
 0001:000b7200       cuGraphMemFreeNodeGetParams 00000001800b8200 f   cuda:cuda_driverloader_generated_cuda_driverloader_cuda.obj
 0001:000b7270       cuGraphMemcpyNodeGetParams 00000001800b8270 f   cuda:cuda_driverloader_generated_cuda_driverloader_cuda.obj
 0001:000b72e0       cuGraphMemcpyNodeSetParams 00000001800b82e0 f   cuda:cuda_driverloader_generated_cuda_driverloader_cuda.obj
 0001:000b7350       cuGraphMemsetNodeGetParams 00000001800b8350 f   cuda:cuda_driverloader_generated_cuda_driverloader_cuda.obj
 0001:000b73c0       cuGraphMemsetNodeSetParams 00000001800b83c0 f   cuda:cuda_driverloader_generated_cuda_driverloader_cuda.obj
 0001:000b7430       cuGraphNodeFindInClone     00000001800b8430 f   cuda:cuda_driverloader_generated_cuda_driverloader_cuda.obj
 0001:000b74c0       cuGraphNodeGetDependencies 00000001800b84c0 f   cuda:cuda_driverloader_generated_cuda_driverloader_cuda.obj
 0001:000b7550       cuGraphNodeGetDependencies_v2 00000001800b8550 f   cuda:cuda_driverloader_generated_cuda_driverloader_cuda.obj
 0001:000b75e0       cuGraphNodeGetDependentNodes 00000001800b85e0 f   cuda:cuda_driverloader_generated_cuda_driverloader_cuda.obj
 0001:000b7670       cuGraphNodeGetDependentNodes_v2 00000001800b8670 f   cuda:cuda_driverloader_generated_cuda_driverloader_cuda.obj
 0001:000b7700       cuGraphNodeGetEnabled      00000001800b8700 f   cuda:cuda_driverloader_generated_cuda_driverloader_cuda.obj
 0001:000b7790       cuGraphNodeGetType         00000001800b8790 f   cuda:cuda_driverloader_generated_cuda_driverloader_cuda.obj
 0001:000b7800       cuGraphNodeSetEnabled      00000001800b8800 f   cuda:cuda_driverloader_generated_cuda_driverloader_cuda.obj
 0001:000b7890       cuGraphNodeSetParams       00000001800b8890 f   cuda:cuda_driverloader_generated_cuda_driverloader_cuda.obj
 0001:000b7900       cuGraphReleaseUserObject   00000001800b8900 f   cuda:cuda_driverloader_generated_cuda_driverloader_cuda.obj
 0001:000b7990       cuGraphRemoveDependencies  00000001800b8990 f   cuda:cuda_driverloader_generated_cuda_driverloader_cuda.obj
 0001:000b7a20       cuGraphRemoveDependencies_v2 00000001800b8a20 f   cuda:cuda_driverloader_generated_cuda_driverloader_cuda.obj
 0001:000b7ac0       cuGraphRetainUserObject    00000001800b8ac0 f   cuda:cuda_driverloader_generated_cuda_driverloader_cuda.obj
 0001:000b7b50       cuGraphUpload              00000001800b8b50 f   cuda:cuda_driverloader_generated_cuda_driverloader_cuda.obj
 0001:000b7bc0       cuGraphUpload_ptsz         00000001800b8bc0 f   cuda:cuda_driverloader_generated_cuda_driverloader_cuda.obj
 0001:000b7c30       cuGraphicsMapResources     00000001800b8c30 f   cuda:cuda_driverloader_generated_cuda_driverloader_cuda.obj
 0001:000b7cb0       cuGraphicsMapResources_ptsz 00000001800b8cb0 f   cuda:cuda_driverloader_generated_cuda_driverloader_cuda.obj
 0001:000b7d30       cuGraphicsResourceGetMappedMipmappedArray 00000001800b8d30 f   cuda:cuda_driverloader_generated_cuda_driverloader_cuda.obj
 0001:000b7da0       cuGraphicsResourceGetMappedPointer 00000001800b8da0 f   cuda:cuda_driverloader_generated_cuda_driverloader_cuda.obj
 0001:000b7e30       cuGraphicsResourceGetMappedPointer_v2 00000001800b8e30 f   cuda:cuda_driverloader_generated_cuda_driverloader_cuda.obj
 0001:000b7ec0       cuGraphicsResourceSetMapFlags 00000001800b8ec0 f   cuda:cuda_driverloader_generated_cuda_driverloader_cuda.obj
 0001:000b7f30       cuGraphicsResourceSetMapFlags_v2 00000001800b8f30 f   cuda:cuda_driverloader_generated_cuda_driverloader_cuda.obj
 0001:000b7fa0       cuGraphicsSubResourceGetMappedArray 00000001800b8fa0 f   cuda:cuda_driverloader_generated_cuda_driverloader_cuda.obj
 0001:000b8030       cuGraphicsUnmapResources   00000001800b9030 f   cuda:cuda_driverloader_generated_cuda_driverloader_cuda.obj
 0001:000b80b0       cuGraphicsUnmapResources_ptsz 00000001800b90b0 f   cuda:cuda_driverloader_generated_cuda_driverloader_cuda.obj
 0001:000b8130       cuGraphicsUnregisterResource 00000001800b9130 f   cuda:cuda_driverloader_generated_cuda_driverloader_cuda.obj
 0001:000b8180       cuGreenCtxCreate           00000001800b9180 f   cuda:cuda_driverloader_generated_cuda_driverloader_cuda.obj
 0001:000b8210       cuGreenCtxDestroy          00000001800b9210 f   cuda:cuda_driverloader_generated_cuda_driverloader_cuda.obj
 0001:000b8260       cuGreenCtxGetDevResource   00000001800b9260 f   cuda:cuda_driverloader_generated_cuda_driverloader_cuda.obj
 0001:000b82f0       cuGreenCtxGetId            00000001800b92f0 f   cuda:cuda_driverloader_generated_cuda_driverloader_cuda.obj
 0001:000b8360       cuGreenCtxRecordEvent      00000001800b9360 f   cuda:cuda_driverloader_generated_cuda_driverloader_cuda.obj
 0001:000b83d0       cuGreenCtxStreamCreate     00000001800b93d0 f   cuda:cuda_driverloader_generated_cuda_driverloader_cuda.obj
 0001:000b8460       cuGreenCtxWaitEvent        00000001800b9460 f   cuda:cuda_driverloader_generated_cuda_driverloader_cuda.obj
 0001:000b84d0       cuImportExternalMemory     00000001800b94d0 f   cuda:cuda_driverloader_generated_cuda_driverloader_cuda.obj
 0001:000b8540       cuImportExternalSemaphore  00000001800b9540 f   cuda:cuda_driverloader_generated_cuda_driverloader_cuda.obj
 0001:000b85b0       cuInit                     00000001800b95b0 f   cuda:cuda_driverloader_generated_cuda_driverloader_cuda.obj
 0001:000b8600       cuIpcCloseMemHandle        00000001800b9600 f   cuda:cuda_driverloader_generated_cuda_driverloader_cuda.obj
 0001:000b8650       cuIpcGetEventHandle        00000001800b9650 f   cuda:cuda_driverloader_generated_cuda_driverloader_cuda.obj
 0001:000b86c0       cuIpcGetMemHandle          00000001800b96c0 f   cuda:cuda_driverloader_generated_cuda_driverloader_cuda.obj
 0001:000b8730       cuIpcOpenEventHandle       00000001800b9730 f   cuda:cuda_driverloader_generated_cuda_driverloader_cuda.obj
 0001:000b87d0       cuIpcOpenMemHandle         00000001800b97d0 f   cuda:cuda_driverloader_generated_cuda_driverloader_cuda.obj
 0001:000b8890       cuIpcOpenMemHandle_v2      00000001800b9890 f   cuda:cuda_driverloader_generated_cuda_driverloader_cuda.obj
 0001:000b8950       cuKernelGetAttribute       00000001800b9950 f   cuda:cuda_driverloader_generated_cuda_driverloader_cuda.obj
 0001:000b89e0       cuKernelGetFunction        00000001800b99e0 f   cuda:cuda_driverloader_generated_cuda_driverloader_cuda.obj
 0001:000b8a50       cuKernelGetLibrary         00000001800b9a50 f   cuda:cuda_driverloader_generated_cuda_driverloader_cuda.obj
 0001:000b8ac0       cuKernelGetName            00000001800b9ac0 f   cuda:cuda_driverloader_generated_cuda_driverloader_cuda.obj
 0001:000b8b30       cuKernelGetParamInfo       00000001800b9b30 f   cuda:cuda_driverloader_generated_cuda_driverloader_cuda.obj
 0001:000b8bc0       cuKernelSetAttribute       00000001800b9bc0 f   cuda:cuda_driverloader_generated_cuda_driverloader_cuda.obj
 0001:000b8c40       cuKernelSetCacheConfig     00000001800b9c40 f   cuda:cuda_driverloader_generated_cuda_driverloader_cuda.obj
 0001:000b8cc0       cuLaunch                   00000001800b9cc0 f   cuda:cuda_driverloader_generated_cuda_driverloader_cuda.obj
 0001:000b8d10       cuLaunchCooperativeKernel  00000001800b9d10 f   cuda:cuda_driverloader_generated_cuda_driverloader_cuda.obj
 0001:000b8df0       cuLaunchCooperativeKernelMultiDevice 00000001800b9df0 f   cuda:cuda_driverloader_generated_cuda_driverloader_cuda.obj
 0001:000b8e70       cuLaunchCooperativeKernel_ptsz 00000001800b9e70 f   cuda:cuda_driverloader_generated_cuda_driverloader_cuda.obj
 0001:000b8f50       cuLaunchGrid               00000001800b9f50 f   cuda:cuda_driverloader_generated_cuda_driverloader_cuda.obj
 0001:000b8fd0       cuLaunchGridAsync          00000001800b9fd0 f   cuda:cuda_driverloader_generated_cuda_driverloader_cuda.obj
 0001:000b9060       cuLaunchHostFunc           00000001800ba060 f   cuda:cuda_driverloader_generated_cuda_driverloader_cuda.obj
 0001:000b90f0       cuLaunchHostFunc_ptsz      00000001800ba0f0 f   cuda:cuda_driverloader_generated_cuda_driverloader_cuda.obj
 0001:000b9180       cuLaunchKernel             00000001800ba180 f   cuda:cuda_driverloader_generated_cuda_driverloader_cuda.obj
 0001:000b9270       cuLaunchKernelEx           00000001800ba270 f   cuda:cuda_driverloader_generated_cuda_driverloader_cuda.obj
 0001:000b9300       cuLaunchKernelEx_ptsz      00000001800ba300 f   cuda:cuda_driverloader_generated_cuda_driverloader_cuda.obj
 0001:000b9390       cuLaunchKernel_ptsz        00000001800ba390 f   cuda:cuda_driverloader_generated_cuda_driverloader_cuda.obj
 0001:000b9480       cuLibraryEnumerateKernels  00000001800ba480 f   cuda:cuda_driverloader_generated_cuda_driverloader_cuda.obj
 0001:000b9500       cuLibraryGetGlobal         00000001800ba500 f   cuda:cuda_driverloader_generated_cuda_driverloader_cuda.obj
 0001:000b9590       cuLibraryGetKernel         00000001800ba590 f   cuda:cuda_driverloader_generated_cuda_driverloader_cuda.obj
 0001:000b9620       cuLibraryGetKernelCount    00000001800ba620 f   cuda:cuda_driverloader_generated_cuda_driverloader_cuda.obj
 0001:000b9690       cuLibraryGetManaged        00000001800ba690 f   cuda:cuda_driverloader_generated_cuda_driverloader_cuda.obj
 0001:000b9720       cuLibraryGetModule         00000001800ba720 f   cuda:cuda_driverloader_generated_cuda_driverloader_cuda.obj
 0001:000b9790       cuLibraryGetUnifiedFunction 00000001800ba790 f   cuda:cuda_driverloader_generated_cuda_driverloader_cuda.obj
 0001:000b9820       cuLibraryLoadData          00000001800ba820 f   cuda:cuda_driverloader_generated_cuda_driverloader_cuda.obj
 0001:000b98e0       cuLibraryLoadFromFile      00000001800ba8e0 f   cuda:cuda_driverloader_generated_cuda_driverloader_cuda.obj
 0001:000b99a0       cuLibraryUnload            00000001800ba9a0 f   cuda:cuda_driverloader_generated_cuda_driverloader_cuda.obj
 0001:000b99f0       cuLinkAddData              00000001800ba9f0 f   cuda:cuda_driverloader_generated_cuda_driverloader_cuda.obj
 0001:000b9ab0       cuLinkAddData_v2           00000001800baab0 f   cuda:cuda_driverloader_generated_cuda_driverloader_cuda.obj
 0001:000b9b70       cuLinkAddFile              00000001800bab70 f   cuda:cuda_driverloader_generated_cuda_driverloader_cuda.obj
 0001:000b9c10       cuLinkAddFile_v2           00000001800bac10 f   cuda:cuda_driverloader_generated_cuda_driverloader_cuda.obj
 0001:000b9cb0       cuLinkComplete             00000001800bacb0 f   cuda:cuda_driverloader_generated_cuda_driverloader_cuda.obj
 0001:000b9d40       cuLinkCreate               00000001800bad40 f   cuda:cuda_driverloader_generated_cuda_driverloader_cuda.obj
 0001:000b9dd0       cuLinkCreate_v2            00000001800badd0 f   cuda:cuda_driverloader_generated_cuda_driverloader_cuda.obj
 0001:000b9e60       cuLinkDestroy              00000001800bae60 f   cuda:cuda_driverloader_generated_cuda_driverloader_cuda.obj
 0001:000b9eb0       cuLogsCurrent              00000001800baeb0 f   cuda:cuda_driverloader_generated_cuda_driverloader_cuda.obj
 0001:000b9f20       cuLogsDumpToFile           00000001800baf20 f   cuda:cuda_driverloader_generated_cuda_driverloader_cuda.obj
 0001:000b9fb0       cuLogsDumpToMemory         00000001800bafb0 f   cuda:cuda_driverloader_generated_cuda_driverloader_cuda.obj
 0001:000ba040       cuLogsRegisterCallback     00000001800bb040 f   cuda:cuda_driverloader_generated_cuda_driverloader_cuda.obj
 0001:000ba0d0       cuLogsUnregisterCallback   00000001800bb0d0 f   cuda:cuda_driverloader_generated_cuda_driverloader_cuda.obj
 0001:000ba120       cuMemAddressFree           00000001800bb120 f   cuda:cuda_driverloader_generated_cuda_driverloader_cuda.obj
 0001:000ba190       cuMemAddressReserve        00000001800bb190 f   cuda:cuda_driverloader_generated_cuda_driverloader_cuda.obj
 0001:000ba230       cuMemAdvise                00000001800bb230 f   cuda:cuda_driverloader_generated_cuda_driverloader_cuda.obj
 0001:000ba2c0       cuMemAdvise_v2             00000001800bb2c0 f   cuda:cuda_driverloader_generated_cuda_driverloader_cuda.obj
 0001:000ba350       cuMemAlloc                 00000001800bb350 f   cuda:cuda_driverloader_generated_cuda_driverloader_cuda.obj
 0001:000ba3c0       cuMemAllocAsync            00000001800bb3c0 f   cuda:cuda_driverloader_generated_cuda_driverloader_cuda.obj
 0001:000ba450       cuMemAllocAsync_ptsz       00000001800bb450 f   cuda:cuda_driverloader_generated_cuda_driverloader_cuda.obj
 0001:000ba4e0       cuMemAllocFromPoolAsync    00000001800bb4e0 f   cuda:cuda_driverloader_generated_cuda_driverloader_cuda.obj
 0001:000ba570       cuMemAllocFromPoolAsync_ptsz 00000001800bb570 f   cuda:cuda_driverloader_generated_cuda_driverloader_cuda.obj
 0001:000ba600       cuMemAllocHost             00000001800bb600 f   cuda:cuda_driverloader_generated_cuda_driverloader_cuda.obj
 0001:000ba670       cuMemAllocHost_v2          00000001800bb670 f   cuda:cuda_driverloader_generated_cuda_driverloader_cuda.obj
 0001:000ba6e0       cuMemAllocManaged          00000001800bb6e0 f   cuda:cuda_driverloader_generated_cuda_driverloader_cuda.obj
 0001:000ba770       cuMemAllocPitch            00000001800bb770 f   cuda:cuda_driverloader_generated_cuda_driverloader_cuda.obj
 0001:000ba810       cuMemAllocPitch_v2         00000001800bb810 f   cuda:cuda_driverloader_generated_cuda_driverloader_cuda.obj
 0001:000ba8b0       cuMemAlloc_v2              00000001800bb8b0 f   cuda:cuda_driverloader_generated_cuda_driverloader_cuda.obj
 0001:000ba920       cuMemBatchDecompressAsync  00000001800bb920 f   cuda:cuda_driverloader_generated_cuda_driverloader_cuda.obj
 0001:000ba9c0       cuMemBatchDecompressAsync_ptsz 00000001800bb9c0 f   cuda:cuda_driverloader_generated_cuda_driverloader_cuda.obj
 0001:000baa60       cuMemCreate                00000001800bba60 f   cuda:cuda_driverloader_generated_cuda_driverloader_cuda.obj
 0001:000baaf0       cuMemDiscardAndPrefetchBatchAsync 00000001800bbaf0 f   cuda:cuda_driverloader_generated_cuda_driverloader_cuda.obj
 0001:000babb0       cuMemDiscardAndPrefetchBatchAsync_ptsz 00000001800bbbb0 f   cuda:cuda_driverloader_generated_cuda_driverloader_cuda.obj
 0001:000bac70       cuMemDiscardBatchAsync     00000001800bbc70 f   cuda:cuda_driverloader_generated_cuda_driverloader_cuda.obj
 0001:000bad10       cuMemDiscardBatchAsync_ptsz 00000001800bbd10 f   cuda:cuda_driverloader_generated_cuda_driverloader_cuda.obj
 0001:000badb0       cuMemExportToShareableHandle 00000001800bbdb0 f   cuda:cuda_driverloader_generated_cuda_driverloader_cuda.obj
 0001:000bae40       cuMemFree                  00000001800bbe40 f   cuda:cuda_driverloader_generated_cuda_driverloader_cuda.obj
 0001:000bae90       cuMemFreeAsync             00000001800bbe90 f   cuda:cuda_driverloader_generated_cuda_driverloader_cuda.obj
 0001:000baf00       cuMemFreeAsync_ptsz        00000001800bbf00 f   cuda:cuda_driverloader_generated_cuda_driverloader_cuda.obj
 0001:000baf70       cuMemFreeHost              00000001800bbf70 f   cuda:cuda_driverloader_generated_cuda_driverloader_cuda.obj
 0001:000bafc0       cuMemFree_v2               00000001800bbfc0 f   cuda:cuda_driverloader_generated_cuda_driverloader_cuda.obj
 0001:000bb010       cuMemGetAccess             00000001800bc010 f   cuda:cuda_driverloader_generated_cuda_driverloader_cuda.obj
 0001:000bb0a0       cuMemGetAddressRange       00000001800bc0a0 f   cuda:cuda_driverloader_generated_cuda_driverloader_cuda.obj
 0001:000bb130       cuMemGetAddressRange_v2    00000001800bc130 f   cuda:cuda_driverloader_generated_cuda_driverloader_cuda.obj
 0001:000bb1c0       cuMemGetAllocationGranularity 00000001800bc1c0 f   cuda:cuda_driverloader_generated_cuda_driverloader_cuda.obj
 0001:000bb250       cuMemGetAllocationPropertiesFromHandle 00000001800bc250 f   cuda:cuda_driverloader_generated_cuda_driverloader_cuda.obj
 0001:000bb2c0       cuMemGetDefaultMemPool     00000001800bc2c0 f   cuda:cuda_driverloader_generated_cuda_driverloader_cuda.obj
 0001:000bb350       cuMemGetHandleForAddressRange 00000001800bc350 f   cuda:cuda_driverloader_generated_cuda_driverloader_cuda.obj
 0001:000bb3f0       cuMemGetInfo               00000001800bc3f0 f   cuda:cuda_driverloader_generated_cuda_driverloader_cuda.obj
 0001:000bb460       cuMemGetInfo_v2            00000001800bc460 f   cuda:cuda_driverloader_generated_cuda_driverloader_cuda.obj
 0001:000bb4d0       cuMemGetMemPool            00000001800bc4d0 f   cuda:cuda_driverloader_generated_cuda_driverloader_cuda.obj
 0001:000bb560       cuMemHostAlloc             00000001800bc560 f   cuda:cuda_driverloader_generated_cuda_driverloader_cuda.obj
 0001:000bb5f0       cuMemHostGetDevicePointer  00000001800bc5f0 f   cuda:cuda_driverloader_generated_cuda_driverloader_cuda.obj
 0001:000bb680       cuMemHostGetDevicePointer_v2 00000001800bc680 f   cuda:cuda_driverloader_generated_cuda_driverloader_cuda.obj
 0001:000bb710       cuMemHostGetFlags          00000001800bc710 f   cuda:cuda_driverloader_generated_cuda_driverloader_cuda.obj
 0001:000bb780       cuMemHostRegister          00000001800bc780 f   cuda:cuda_driverloader_generated_cuda_driverloader_cuda.obj
 0001:000bb810       cuMemHostRegister_v2       00000001800bc810 f   cuda:cuda_driverloader_generated_cuda_driverloader_cuda.obj
 0001:000bb8a0       cuMemHostUnregister        00000001800bc8a0 f   cuda:cuda_driverloader_generated_cuda_driverloader_cuda.obj
 0001:000bb8f0       cuMemImportFromShareableHandle 00000001800bc8f0 f   cuda:cuda_driverloader_generated_cuda_driverloader_cuda.obj
 0001:000bb980       cuMemMap                   00000001800bc980 f   cuda:cuda_driverloader_generated_cuda_driverloader_cuda.obj
 0001:000bba20       cuMemMapArrayAsync         00000001800bca20 f   cuda:cuda_driverloader_generated_cuda_driverloader_cuda.obj
 0001:000bbaa0       cuMemMapArrayAsync_ptsz    00000001800bcaa0 f   cuda:cuda_driverloader_generated_cuda_driverloader_cuda.obj
 0001:000bbb20       cuMemPoolCreate            00000001800bcb20 f   cuda:cuda_driverloader_generated_cuda_driverloader_cuda.obj
 0001:000bbb90       cuMemPoolDestroy           00000001800bcb90 f   cuda:cuda_driverloader_generated_cuda_driverloader_cuda.obj
 0001:000bbbe0       cuMemPoolExportPointer     00000001800bcbe0 f   cuda:cuda_driverloader_generated_cuda_driverloader_cuda.obj
 0001:000bbc50       cuMemPoolExportToShareableHandle 00000001800bcc50 f   cuda:cuda_driverloader_generated_cuda_driverloader_cuda.obj
 0001:000bbce0       cuMemPoolGetAccess         00000001800bcce0 f   cuda:cuda_driverloader_generated_cuda_driverloader_cuda.obj
 0001:000bbd70       cuMemPoolGetAttribute      00000001800bcd70 f   cuda:cuda_driverloader_generated_cuda_driverloader_cuda.obj
 0001:000bbdf0       cuMemPoolImportFromShareableHandle 00000001800bcdf0 f   cuda:cuda_driverloader_generated_cuda_driverloader_cuda.obj
 0001:000bbe80       cuMemPoolImportPointer     00000001800bce80 f   cuda:cuda_driverloader_generated_cuda_driverloader_cuda.obj
 0001:000bbf10       cuMemPoolSetAccess         00000001800bcf10 f   cuda:cuda_driverloader_generated_cuda_driverloader_cuda.obj
 0001:000bbfa0       cuMemPoolSetAttribute      00000001800bcfa0 f   cuda:cuda_driverloader_generated_cuda_driverloader_cuda.obj
 0001:000bc020       cuMemPoolTrimTo            00000001800bd020 f   cuda:cuda_driverloader_generated_cuda_driverloader_cuda.obj
 0001:000bc090       cuMemPrefetchAsync         00000001800bd090 f   cuda:cuda_driverloader_generated_cuda_driverloader_cuda.obj
 0001:000bc120       cuMemPrefetchAsync_ptsz    00000001800bd120 f   cuda:cuda_driverloader_generated_cuda_driverloader_cuda.obj
 0001:000bc1b0       cuMemPrefetchAsync_v2      00000001800bd1b0 f   cuda:cuda_driverloader_generated_cuda_driverloader_cuda.obj
 0001:000bc250       cuMemPrefetchAsync_v2_ptsz 00000001800bd250 f   cuda:cuda_driverloader_generated_cuda_driverloader_cuda.obj
 0001:000bc2f0       cuMemPrefetchBatchAsync    00000001800bd2f0 f   cuda:cuda_driverloader_generated_cuda_driverloader_cuda.obj
 0001:000bc3b0       cuMemPrefetchBatchAsync_ptsz 00000001800bd3b0 f   cuda:cuda_driverloader_generated_cuda_driverloader_cuda.obj
 0001:000bc470       cuMemRangeGetAttribute     00000001800bd470 f   cuda:cuda_driverloader_generated_cuda_driverloader_cuda.obj
 0001:000bc510       cuMemRangeGetAttributes    00000001800bd510 f   cuda:cuda_driverloader_generated_cuda_driverloader_cuda.obj
 0001:000bc5b0       cuMemRelease               00000001800bd5b0 f   cuda:cuda_driverloader_generated_cuda_driverloader_cuda.obj
 0001:000bc600       cuMemRetainAllocationHandle 00000001800bd600 f   cuda:cuda_driverloader_generated_cuda_driverloader_cuda.obj
 0001:000bc670       cuMemSetAccess             00000001800bd670 f   cuda:cuda_driverloader_generated_cuda_driverloader_cuda.obj
 0001:000bc700       cuMemSetMemPool            00000001800bd700 f   cuda:cuda_driverloader_generated_cuda_driverloader_cuda.obj
 0001:000bc780       cuMemUnmap                 00000001800bd780 f   cuda:cuda_driverloader_generated_cuda_driverloader_cuda.obj
 0001:000bc7f0       cuMemcpy                   00000001800bd7f0 f   cuda:cuda_driverloader_generated_cuda_driverloader_cuda.obj
 0001:000bc880       cuMemcpy2D                 00000001800bd880 f   cuda:cuda_driverloader_generated_cuda_driverloader_cuda.obj
 0001:000bc8d0       cuMemcpy2DAsync            00000001800bd8d0 f   cuda:cuda_driverloader_generated_cuda_driverloader_cuda.obj
 0001:000bc940       cuMemcpy2DAsync_v2         00000001800bd940 f   cuda:cuda_driverloader_generated_cuda_driverloader_cuda.obj
 0001:000bc9b0       cuMemcpy2DAsync_v2_ptsz    00000001800bd9b0 f   cuda:cuda_driverloader_generated_cuda_driverloader_cuda.obj
 0001:000bca20       cuMemcpy2DUnaligned        00000001800bda20 f   cuda:cuda_driverloader_generated_cuda_driverloader_cuda.obj
 0001:000bca70       cuMemcpy2DUnaligned_v2     00000001800bda70 f   cuda:cuda_driverloader_generated_cuda_driverloader_cuda.obj
 0001:000bcac0       cuMemcpy2DUnaligned_v2_ptds 00000001800bdac0 f   cuda:cuda_driverloader_generated_cuda_driverloader_cuda.obj
 0001:000bcb10       cuMemcpy2D_v2              00000001800bdb10 f   cuda:cuda_driverloader_generated_cuda_driverloader_cuda.obj
 0001:000bcb60       cuMemcpy2D_v2_ptds         00000001800bdb60 f   cuda:cuda_driverloader_generated_cuda_driverloader_cuda.obj
 0001:000bcbb0       cuMemcpy3D                 00000001800bdbb0 f   cuda:cuda_driverloader_generated_cuda_driverloader_cuda.obj
 0001:000bcc00       cuMemcpy3DAsync            00000001800bdc00 f   cuda:cuda_driverloader_generated_cuda_driverloader_cuda.obj
 0001:000bcc70       cuMemcpy3DAsync_v2         00000001800bdc70 f   cuda:cuda_driverloader_generated_cuda_driverloader_cuda.obj
 0001:000bcce0       cuMemcpy3DAsync_v2_ptsz    00000001800bdce0 f   cuda:cuda_driverloader_generated_cuda_driverloader_cuda.obj
 0001:000bcd50       cuMemcpy3DBatchAsync       00000001800bdd50 f   cuda:cuda_driverloader_generated_cuda_driverloader_cuda.obj
 0001:000bcdf0       cuMemcpy3DBatchAsync_ptsz  00000001800bddf0 f   cuda:cuda_driverloader_generated_cuda_driverloader_cuda.obj
 0001:000bce90       cuMemcpy3DBatchAsync_v2    00000001800bde90 f   cuda:cuda_driverloader_generated_cuda_driverloader_cuda.obj
 0001:000bcf20       cuMemcpy3DBatchAsync_v2_ptsz 00000001800bdf20 f   cuda:cuda_driverloader_generated_cuda_driverloader_cuda.obj
 0001:000bcfb0       cuMemcpy3DPeer             00000001800bdfb0 f   cuda:cuda_driverloader_generated_cuda_driverloader_cuda.obj
 0001:000bd000       cuMemcpy3DPeerAsync        00000001800be000 f   cuda:cuda_driverloader_generated_cuda_driverloader_cuda.obj
 0001:000bd070       cuMemcpy3DPeerAsync_ptsz   00000001800be070 f   cuda:cuda_driverloader_generated_cuda_driverloader_cuda.obj
 0001:000bd0e0       cuMemcpy3DPeer_ptds        00000001800be0e0 f   cuda:cuda_driverloader_generated_cuda_driverloader_cuda.obj
 0001:000bd130       cuMemcpy3D_v2              00000001800be130 f   cuda:cuda_driverloader_generated_cuda_driverloader_cuda.obj
 0001:000bd180       cuMemcpy3D_v2_ptds         00000001800be180 f   cuda:cuda_driverloader_generated_cuda_driverloader_cuda.obj
 0001:000bd1d0       cuMemcpyAsync              00000001800be1d0 f   cuda:cuda_driverloader_generated_cuda_driverloader_cuda.obj
 0001:000bd260       cuMemcpyAsync_ptsz         00000001800be260 f   cuda:cuda_driverloader_generated_cuda_driverloader_cuda.obj
 0001:000bd2f0       cuMemcpyAtoA               00000001800be2f0 f   cuda:cuda_driverloader_generated_cuda_driverloader_cuda.obj
 0001:000bd380       cuMemcpyAtoA_v2            00000001800be380 f   cuda:cuda_driverloader_generated_cuda_driverloader_cuda.obj
 0001:000bd420       cuMemcpyAtoA_v2_ptds       00000001800be420 f   cuda:cuda_driverloader_generated_cuda_driverloader_cuda.obj
 0001:000bd4c0       cuMemcpyAtoD               00000001800be4c0 f   cuda:cuda_driverloader_generated_cuda_driverloader_cuda.obj
 0001:000bd550       cuMemcpyAtoD_v2            00000001800be550 f   cuda:cuda_driverloader_generated_cuda_driverloader_cuda.obj
 0001:000bd5e0       cuMemcpyAtoD_v2_ptds       00000001800be5e0 f   cuda:cuda_driverloader_generated_cuda_driverloader_cuda.obj
 0001:000bd670       cuMemcpyAtoH               00000001800be670 f   cuda:cuda_driverloader_generated_cuda_driverloader_cuda.obj
 0001:000bd700       cuMemcpyAtoHAsync          00000001800be700 f   cuda:cuda_driverloader_generated_cuda_driverloader_cuda.obj
 0001:000bd7a0       cuMemcpyAtoHAsync_v2       00000001800be7a0 f   cuda:cuda_driverloader_generated_cuda_driverloader_cuda.obj
 0001:000bd840       cuMemcpyAtoHAsync_v2_ptsz  00000001800be840 f   cuda:cuda_driverloader_generated_cuda_driverloader_cuda.obj
 0001:000bd8e0       cuMemcpyAtoH_v2            00000001800be8e0 f   cuda:cuda_driverloader_generated_cuda_driverloader_cuda.obj
 0001:000bd970       cuMemcpyAtoH_v2_ptds       00000001800be970 f   cuda:cuda_driverloader_generated_cuda_driverloader_cuda.obj
 0001:000bda00       cuMemcpyBatchAsync         00000001800bea00 f   cuda:cuda_driverloader_generated_cuda_driverloader_cuda.obj
 0001:000bdae0       cuMemcpyBatchAsync_ptsz    00000001800beae0 f   cuda:cuda_driverloader_generated_cuda_driverloader_cuda.obj
 0001:000bdbc0       cuMemcpyBatchAsync_v2      00000001800bebc0 f   cuda:cuda_driverloader_generated_cuda_driverloader_cuda.obj
 0001:000bdc80       cuMemcpyBatchAsync_v2_ptsz 00000001800bec80 f   cuda:cuda_driverloader_generated_cuda_driverloader_cuda.obj
 0001:000bdd40       cuMemcpyDtoA               00000001800bed40 f   cuda:cuda_driverloader_generated_cuda_driverloader_cuda.obj
 0001:000bddd0       cuMemcpyDtoA_v2            00000001800bedd0 f   cuda:cuda_driverloader_generated_cuda_driverloader_cuda.obj
 0001:000bde60       cuMemcpyDtoA_v2_ptds       00000001800bee60 f   cuda:cuda_driverloader_generated_cuda_driverloader_cuda.obj
 0001:000bdef0       cuMemcpyDtoD               00000001800beef0 f   cuda:cuda_driverloader_generated_cuda_driverloader_cuda.obj
 0001:000bdf70       cuMemcpyDtoDAsync          00000001800bef70 f   cuda:cuda_driverloader_generated_cuda_driverloader_cuda.obj
 0001:000bdff0       cuMemcpyDtoDAsync_v2       00000001800beff0 f   cuda:cuda_driverloader_generated_cuda_driverloader_cuda.obj
 0001:000be080       cuMemcpyDtoDAsync_v2_ptsz  00000001800bf080 f   cuda:cuda_driverloader_generated_cuda_driverloader_cuda.obj
 0001:000be110       cuMemcpyDtoD_v2            00000001800bf110 f   cuda:cuda_driverloader_generated_cuda_driverloader_cuda.obj
 0001:000be1a0       cuMemcpyDtoD_v2_ptds       00000001800bf1a0 f   cuda:cuda_driverloader_generated_cuda_driverloader_cuda.obj
 0001:000be230       cuMemcpyDtoH               00000001800bf230 f   cuda:cuda_driverloader_generated_cuda_driverloader_cuda.obj
 0001:000be2b0       cuMemcpyDtoHAsync          00000001800bf2b0 f   cuda:cuda_driverloader_generated_cuda_driverloader_cuda.obj
 0001:000be340       cuMemcpyDtoHAsync_v2       00000001800bf340 f   cuda:cuda_driverloader_generated_cuda_driverloader_cuda.obj
 0001:000be3d0       cuMemcpyDtoHAsync_v2_ptsz  00000001800bf3d0 f   cuda:cuda_driverloader_generated_cuda_driverloader_cuda.obj
 0001:000be460       cuMemcpyDtoH_v2            00000001800bf460 f   cuda:cuda_driverloader_generated_cuda_driverloader_cuda.obj
 0001:000be4f0       cuMemcpyDtoH_v2_ptds       00000001800bf4f0 f   cuda:cuda_driverloader_generated_cuda_driverloader_cuda.obj
 0001:000be580       cuMemcpyHtoA               00000001800bf580 f   cuda:cuda_driverloader_generated_cuda_driverloader_cuda.obj
 0001:000be610       cuMemcpyHtoAAsync          00000001800bf610 f   cuda:cuda_driverloader_generated_cuda_driverloader_cuda.obj
 0001:000be6b0       cuMemcpyHtoAAsync_v2       00000001800bf6b0 f   cuda:cuda_driverloader_generated_cuda_driverloader_cuda.obj
 0001:000be750       cuMemcpyHtoAAsync_v2_ptsz  00000001800bf750 f   cuda:cuda_driverloader_generated_cuda_driverloader_cuda.obj
 0001:000be7f0       cuMemcpyHtoA_v2            00000001800bf7f0 f   cuda:cuda_driverloader_generated_cuda_driverloader_cuda.obj
 0001:000be880       cuMemcpyHtoA_v2_ptds       00000001800bf880 f   cuda:cuda_driverloader_generated_cuda_driverloader_cuda.obj
 0001:000be910       cuMemcpyHtoD               00000001800bf910 f   cuda:cuda_driverloader_generated_cuda_driverloader_cuda.obj
 0001:000be990       cuMemcpyHtoDAsync          00000001800bf990 f   cuda:cuda_driverloader_generated_cuda_driverloader_cuda.obj
 0001:000bea20       cuMemcpyHtoDAsync_v2       00000001800bfa20 f   cuda:cuda_driverloader_generated_cuda_driverloader_cuda.obj
 0001:000beab0       cuMemcpyHtoDAsync_v2_ptsz  00000001800bfab0 f   cuda:cuda_driverloader_generated_cuda_driverloader_cuda.obj
 0001:000beb40       cuMemcpyHtoD_v2            00000001800bfb40 f   cuda:cuda_driverloader_generated_cuda_driverloader_cuda.obj
 0001:000bebd0       cuMemcpyHtoD_v2_ptds       00000001800bfbd0 f   cuda:cuda_driverloader_generated_cuda_driverloader_cuda.obj
 0001:000bec60       cuMemcpyPeer               00000001800bfc60 f   cuda:cuda_driverloader_generated_cuda_driverloader_cuda.obj
 0001:000bed00       cuMemcpyPeerAsync          00000001800bfd00 f   cuda:cuda_driverloader_generated_cuda_driverloader_cuda.obj
 0001:000beda0       cuMemcpyPeerAsync_ptsz     00000001800bfda0 f   cuda:cuda_driverloader_generated_cuda_driverloader_cuda.obj
 0001:000bee40       cuMemcpyPeer_ptds          00000001800bfe40 f   cuda:cuda_driverloader_generated_cuda_driverloader_cuda.obj
 0001:000beee0       cuMemcpy_ptds              00000001800bfee0 f   cuda:cuda_driverloader_generated_cuda_driverloader_cuda.obj
 0001:000bef70       cuMemsetD16                00000001800bff70 f   cuda:cuda_driverloader_generated_cuda_driverloader_cuda.obj
 0001:000beff0       cuMemsetD16Async           00000001800bfff0 f   cuda:cuda_driverloader_generated_cuda_driverloader_cuda.obj
 0001:000bf080       cuMemsetD16Async_ptsz      00000001800c0080 f   cuda:cuda_driverloader_generated_cuda_driverloader_cuda.obj
 0001:000bf110       cuMemsetD16_v2             00000001800c0110 f   cuda:cuda_driverloader_generated_cuda_driverloader_cuda.obj
 0001:000bf1a0       cuMemsetD16_v2_ptds        00000001800c01a0 f   cuda:cuda_driverloader_generated_cuda_driverloader_cuda.obj
 0001:000bf230       cuMemsetD2D16              00000001800c0230 f   cuda:cuda_driverloader_generated_cuda_driverloader_cuda.obj
 0001:000bf2c0       cuMemsetD2D16Async         00000001800c02c0 f   cuda:cuda_driverloader_generated_cuda_driverloader_cuda.obj
 0001:000bf370       cuMemsetD2D16Async_ptsz    00000001800c0370 f   cuda:cuda_driverloader_generated_cuda_driverloader_cuda.obj
 0001:000bf420       cuMemsetD2D16_v2           00000001800c0420 f   cuda:cuda_driverloader_generated_cuda_driverloader_cuda.obj
 0001:000bf4c0       cuMemsetD2D16_v2_ptds      00000001800c04c0 f   cuda:cuda_driverloader_generated_cuda_driverloader_cuda.obj
 0001:000bf560       cuMemsetD2D32              00000001800c0560 f   cuda:cuda_driverloader_generated_cuda_driverloader_cuda.obj
 0001:000bf5f0       cuMemsetD2D32Async         00000001800c05f0 f   cuda:cuda_driverloader_generated_cuda_driverloader_cuda.obj
 0001:000bf690       cuMemsetD2D32Async_ptsz    00000001800c0690 f   cuda:cuda_driverloader_generated_cuda_driverloader_cuda.obj
 0001:000bf730       cuMemsetD2D32_v2           00000001800c0730 f   cuda:cuda_driverloader_generated_cuda_driverloader_cuda.obj
 0001:000bf7d0       cuMemsetD2D32_v2_ptds      00000001800c07d0 f   cuda:cuda_driverloader_generated_cuda_driverloader_cuda.obj
 0001:000bf870       cuMemsetD2D8               00000001800c0870 f   cuda:cuda_driverloader_generated_cuda_driverloader_cuda.obj
 0001:000bf900       cuMemsetD2D8Async          00000001800c0900 f   cuda:cuda_driverloader_generated_cuda_driverloader_cuda.obj
 0001:000bf9b0       cuMemsetD2D8Async_ptsz     00000001800c09b0 f   cuda:cuda_driverloader_generated_cuda_driverloader_cuda.obj
 0001:000bfa60       cuMemsetD2D8_v2            00000001800c0a60 f   cuda:cuda_driverloader_generated_cuda_driverloader_cuda.obj
 0001:000bfb00       cuMemsetD2D8_v2_ptds       00000001800c0b00 f   cuda:cuda_driverloader_generated_cuda_driverloader_cuda.obj
 0001:000bfba0       cuMemsetD32                00000001800c0ba0 f   cuda:cuda_driverloader_generated_cuda_driverloader_cuda.obj
 0001:000bfc20       cuMemsetD32Async           00000001800c0c20 f   cuda:cuda_driverloader_generated_cuda_driverloader_cuda.obj
 0001:000bfcb0       cuMemsetD32Async_ptsz      00000001800c0cb0 f   cuda:cuda_driverloader_generated_cuda_driverloader_cuda.obj
 0001:000bfd40       cuMemsetD32_v2             00000001800c0d40 f   cuda:cuda_driverloader_generated_cuda_driverloader_cuda.obj
 0001:000bfdc0       cuMemsetD32_v2_ptds        00000001800c0dc0 f   cuda:cuda_driverloader_generated_cuda_driverloader_cuda.obj
 0001:000bfe40       cuMemsetD8                 00000001800c0e40 f   cuda:cuda_driverloader_generated_cuda_driverloader_cuda.obj
 0001:000bfed0       cuMemsetD8Async            00000001800c0ed0 f   cuda:cuda_driverloader_generated_cuda_driverloader_cuda.obj
 0001:000bff60       cuMemsetD8Async_ptsz       00000001800c0f60 f   cuda:cuda_driverloader_generated_cuda_driverloader_cuda.obj
 0001:000bfff0       cuMemsetD8_v2              00000001800c0ff0 f   cuda:cuda_driverloader_generated_cuda_driverloader_cuda.obj
 0001:000c0080       cuMemsetD8_v2_ptds         00000001800c1080 f   cuda:cuda_driverloader_generated_cuda_driverloader_cuda.obj
 0001:000c0110       cuMipmappedArrayCreate     00000001800c1110 f   cuda:cuda_driverloader_generated_cuda_driverloader_cuda.obj
 0001:000c01a0       cuMipmappedArrayDestroy    00000001800c11a0 f   cuda:cuda_driverloader_generated_cuda_driverloader_cuda.obj
 0001:000c01f0       cuMipmappedArrayGetLevel   00000001800c11f0 f   cuda:cuda_driverloader_generated_cuda_driverloader_cuda.obj
 0001:000c0280       cuMipmappedArrayGetMemoryRequirements 00000001800c1280 f   cuda:cuda_driverloader_generated_cuda_driverloader_cuda.obj
 0001:000c0310       cuMipmappedArrayGetSparseProperties 00000001800c1310 f   cuda:cuda_driverloader_generated_cuda_driverloader_cuda.obj
 0001:000c0380       cuModuleEnumerateFunctions 00000001800c1380 f   cuda:cuda_driverloader_generated_cuda_driverloader_cuda.obj
 0001:000c0400       cuModuleGetFunction        00000001800c1400 f   cuda:cuda_driverloader_generated_cuda_driverloader_cuda.obj
 0001:000c0490       cuModuleGetFunctionCount   00000001800c1490 f   cuda:cuda_driverloader_generated_cuda_driverloader_cuda.obj
 0001:000c0500       cuModuleGetGlobal          00000001800c1500 f   cuda:cuda_driverloader_generated_cuda_driverloader_cuda.obj
 0001:000c0590       cuModuleGetGlobal_v2       00000001800c1590 f   cuda:cuda_driverloader_generated_cuda_driverloader_cuda.obj
 0001:000c0620       cuModuleGetLoadingMode     00000001800c1620 f   cuda:cuda_driverloader_generated_cuda_driverloader_cuda.obj
 0001:000c0670       cuModuleGetSurfRef         00000001800c1670 f   cuda:cuda_driverloader_generated_cuda_driverloader_cuda.obj
 0001:000c0700       cuModuleGetTexRef          00000001800c1700 f   cuda:cuda_driverloader_generated_cuda_driverloader_cuda.obj
 0001:000c0790       cuModuleLoad               00000001800c1790 f   cuda:cuda_driverloader_generated_cuda_driverloader_cuda.obj
 0001:000c0800       cuModuleLoadData           00000001800c1800 f   cuda:cuda_driverloader_generated_cuda_driverloader_cuda.obj
 0001:000c0870       cuModuleLoadDataEx         00000001800c1870 f   cuda:cuda_driverloader_generated_cuda_driverloader_cuda.obj
 0001:000c0910       cuModuleLoadFatBinary      00000001800c1910 f   cuda:cuda_driverloader_generated_cuda_driverloader_cuda.obj
 0001:000c0980       cuModuleUnload             00000001800c1980 f   cuda:cuda_driverloader_generated_cuda_driverloader_cuda.obj
 0001:000c09d0       cuMulticastAddDevice       00000001800c19d0 f   cuda:cuda_driverloader_generated_cuda_driverloader_cuda.obj
 0001:000c0a40       cuMulticastBindAddr        00000001800c1a40 f   cuda:cuda_driverloader_generated_cuda_driverloader_cuda.obj
 0001:000c0ae0       cuMulticastBindMem         00000001800c1ae0 f   cuda:cuda_driverloader_generated_cuda_driverloader_cuda.obj
 0001:000c0b80       cuMulticastCreate          00000001800c1b80 f   cuda:cuda_driverloader_generated_cuda_driverloader_cuda.obj
 0001:000c0bf0       cuMulticastGetGranularity  00000001800c1bf0 f   cuda:cuda_driverloader_generated_cuda_driverloader_cuda.obj
 0001:000c0c80       cuMulticastUnbind          00000001800c1c80 f   cuda:cuda_driverloader_generated_cuda_driverloader_cuda.obj
 0001:000c0d10       cuOccupancyAvailableDynamicSMemPerBlock 00000001800c1d10 f   cuda:cuda_driverloader_generated_cuda_driverloader_cuda.obj
 0001:000c0da0       cuOccupancyMaxActiveBlocksPerMultiprocessor 00000001800c1da0 f   cuda:cuda_driverloader_generated_cuda_driverloader_cuda.obj
 0001:000c0e30       cuOccupancyMaxActiveBlocksPerMultiprocessorWithFlags 00000001800c1e30 f   cuda:cuda_driverloader_generated_cuda_driverloader_cuda.obj
 0001:000c0ed0       cuOccupancyMaxActiveClusters 00000001800c1ed0 f   cuda:cuda_driverloader_generated_cuda_driverloader_cuda.obj
 0001:000c0f60       cuOccupancyMaxPotentialBlockSize 00000001800c1f60 f   cuda:cuda_driverloader_generated_cuda_driverloader_cuda.obj
 0001:000c1000       cuOccupancyMaxPotentialBlockSizeWithFlags 00000001800c2000 f   cuda:cuda_driverloader_generated_cuda_driverloader_cuda.obj
 0001:000c10b0       cuOccupancyMaxPotentialClusterSize 00000001800c20b0 f   cuda:cuda_driverloader_generated_cuda_driverloader_cuda.obj
 0001:000c1140       cuParamSetSize             00000001800c2140 f   cuda:cuda_driverloader_generated_cuda_driverloader_cuda.obj
 0001:000c11b0       cuParamSetTexRef           00000001800c21b0 f   cuda:cuda_driverloader_generated_cuda_driverloader_cuda.obj
 0001:000c1230       cuParamSetf                00000001800c2230 f   cuda:cuda_driverloader_generated_cuda_driverloader_cuda.obj
 0001:000c12b0       cuParamSeti                00000001800c22b0 f   cuda:cuda_driverloader_generated_cuda_driverloader_cuda.obj
 0001:000c1330       cuParamSetv                00000001800c2330 f   cuda:cuda_driverloader_generated_cuda_driverloader_cuda.obj
 0001:000c13c0       cuPointerGetAttribute      00000001800c23c0 f   cuda:cuda_driverloader_generated_cuda_driverloader_cuda.obj
 0001:000c1440       cuPointerGetAttributes     00000001800c2440 f   cuda:cuda_driverloader_generated_cuda_driverloader_cuda.obj
 0001:000c14d0       cuPointerSetAttribute      00000001800c24d0 f   cuda:cuda_driverloader_generated_cuda_driverloader_cuda.obj
 0001:000c1550       cuSignalExternalSemaphoresAsync 00000001800c2550 f   cuda:cuda_driverloader_generated_cuda_driverloader_cuda.obj
 0001:000c15e0       cuSignalExternalSemaphoresAsync_ptsz 00000001800c25e0 f   cuda:cuda_driverloader_generated_cuda_driverloader_cuda.obj
 0001:000c1670       cuStreamAddCallback        00000001800c2670 f   cuda:cuda_driverloader_generated_cuda_driverloader_cuda.obj
 0001:000c1700       cuStreamAddCallback_ptsz   00000001800c2700 f   cuda:cuda_driverloader_generated_cuda_driverloader_cuda.obj
 0001:000c1790       cuStreamAttachMemAsync     00000001800c2790 f   cuda:cuda_driverloader_generated_cuda_driverloader_cuda.obj
 0001:000c1820       cuStreamAttachMemAsync_ptsz 00000001800c2820 f   cuda:cuda_driverloader_generated_cuda_driverloader_cuda.obj
 0001:000c18b0       cuStreamBatchMemOp         00000001800c28b0 f   cuda:cuda_driverloader_generated_cuda_driverloader_cuda.obj
 0001:000c1940       cuStreamBatchMemOp_ptsz    00000001800c2940 f   cuda:cuda_driverloader_generated_cuda_driverloader_cuda.obj
 0001:000c19d0       cuStreamBatchMemOp_v2      00000001800c29d0 f   cuda:cuda_driverloader_generated_cuda_driverloader_cuda.obj
 0001:000c1a60       cuStreamBatchMemOp_v2_ptsz 00000001800c2a60 f   cuda:cuda_driverloader_generated_cuda_driverloader_cuda.obj
 0001:000c1af0       cuStreamBeginCapture       00000001800c2af0 f   cuda:cuda_driverloader_generated_cuda_driverloader_cuda.obj
 0001:000c1b40       cuStreamBeginCaptureToGraph 00000001800c2b40 f   cuda:cuda_driverloader_generated_cuda_driverloader_cuda.obj
 0001:000c1be0       cuStreamBeginCaptureToGraph_ptsz 00000001800c2be0 f   cuda:cuda_driverloader_generated_cuda_driverloader_cuda.obj
 0001:000c1c80       cuStreamBeginCapture_ptsz  00000001800c2c80 f   cuda:cuda_driverloader_generated_cuda_driverloader_cuda.obj
 0001:000c1cd0       cuStreamBeginCapture_v2    00000001800c2cd0 f   cuda:cuda_driverloader_generated_cuda_driverloader_cuda.obj
 0001:000c1d40       cuStreamBeginCapture_v2_ptsz 00000001800c2d40 f   cuda:cuda_driverloader_generated_cuda_driverloader_cuda.obj
 0001:000c1db0       cuStreamCopyAttributes     00000001800c2db0 f   cuda:cuda_driverloader_generated_cuda_driverloader_cuda.obj
 0001:000c1e20       cuStreamCopyAttributes_ptsz 00000001800c2e20 f   cuda:cuda_driverloader_generated_cuda_driverloader_cuda.obj
 0001:000c1e90       cuStreamCreate             00000001800c2e90 f   cuda:cuda_driverloader_generated_cuda_driverloader_cuda.obj
 0001:000c1f00       cuStreamCreateWithPriority 00000001800c2f00 f   cuda:cuda_driverloader_generated_cuda_driverloader_cuda.obj
 0001:000c1f80       cuStreamDestroy            00000001800c2f80 f   cuda:cuda_driverloader_generated_cuda_driverloader_cuda.obj
 0001:000c1fd0       cuStreamDestroy_v2         00000001800c2fd0 f   cuda:cuda_driverloader_generated_cuda_driverloader_cuda.obj
 0001:000c2020       cuStreamEndCapture         00000001800c3020 f   cuda:cuda_driverloader_generated_cuda_driverloader_cuda.obj
 0001:000c2090       cuStreamEndCapture_ptsz    00000001800c3090 f   cuda:cuda_driverloader_generated_cuda_driverloader_cuda.obj
 0001:000c2100       cuStreamGetAttribute       00000001800c3100 f   cuda:cuda_driverloader_generated_cuda_driverloader_cuda.obj
 0001:000c2180       cuStreamGetAttribute_ptsz  00000001800c3180 f   cuda:cuda_driverloader_generated_cuda_driverloader_cuda.obj
 0001:000c2200       cuStreamGetCaptureInfo     00000001800c3200 f   cuda:cuda_driverloader_generated_cuda_driverloader_cuda.obj
 0001:000c2290       cuStreamGetCaptureInfo_ptsz 00000001800c3290 f   cuda:cuda_driverloader_generated_cuda_driverloader_cuda.obj
 0001:000c2320       cuStreamGetCaptureInfo_v2  00000001800c3320 f   cuda:cuda_driverloader_generated_cuda_driverloader_cuda.obj
 0001:000c23c0       cuStreamGetCaptureInfo_v2_ptsz 00000001800c33c0 f   cuda:cuda_driverloader_generated_cuda_driverloader_cuda.obj
 0001:000c2460       cuStreamGetCaptureInfo_v3  00000001800c3460 f   cuda:cuda_driverloader_generated_cuda_driverloader_cuda.obj
 0001:000c2510       cuStreamGetCaptureInfo_v3_ptsz 00000001800c3510 f   cuda:cuda_driverloader_generated_cuda_driverloader_cuda.obj
 0001:000c25c0       cuStreamGetCtx             00000001800c35c0 f   cuda:cuda_driverloader_generated_cuda_driverloader_cuda.obj
 0001:000c2630       cuStreamGetCtx_ptsz        00000001800c3630 f   cuda:cuda_driverloader_generated_cuda_driverloader_cuda.obj
 0001:000c26a0       cuStreamGetCtx_v2          00000001800c36a0 f   cuda:cuda_driverloader_generated_cuda_driverloader_cuda.obj
 0001:000c2730       cuStreamGetCtx_v2_ptsz     00000001800c3730 f   cuda:cuda_driverloader_generated_cuda_driverloader_cuda.obj
 0001:000c27c0       cuStreamGetDevice          00000001800c37c0 f   cuda:cuda_driverloader_generated_cuda_driverloader_cuda.obj
 0001:000c2830       cuStreamGetDevice_ptsz     00000001800c3830 f   cuda:cuda_driverloader_generated_cuda_driverloader_cuda.obj
 0001:000c28a0       cuStreamGetFlags           00000001800c38a0 f   cuda:cuda_driverloader_generated_cuda_driverloader_cuda.obj
 0001:000c2910       cuStreamGetFlags_ptsz      00000001800c3910 f   cuda:cuda_driverloader_generated_cuda_driverloader_cuda.obj
 0001:000c2980       cuStreamGetGreenCtx        00000001800c3980 f   cuda:cuda_driverloader_generated_cuda_driverloader_cuda.obj
 0001:000c29f0       cuStreamGetId              00000001800c39f0 f   cuda:cuda_driverloader_generated_cuda_driverloader_cuda.obj
 0001:000c2a60       cuStreamGetId_ptsz         00000001800c3a60 f   cuda:cuda_driverloader_generated_cuda_driverloader_cuda.obj
 0001:000c2ad0       cuStreamGetPriority        00000001800c3ad0 f   cuda:cuda_driverloader_generated_cuda_driverloader_cuda.obj
 0001:000c2b40       cuStreamGetPriority_ptsz   00000001800c3b40 f   cuda:cuda_driverloader_generated_cuda_driverloader_cuda.obj
 0001:000c2bb0       cuStreamIsCapturing        00000001800c3bb0 f   cuda:cuda_driverloader_generated_cuda_driverloader_cuda.obj
 0001:000c2c20       cuStreamIsCapturing_ptsz   00000001800c3c20 f   cuda:cuda_driverloader_generated_cuda_driverloader_cuda.obj
 0001:000c2c90       cuStreamQuery              00000001800c3c90 f   cuda:cuda_driverloader_generated_cuda_driverloader_cuda.obj
 0001:000c2ce0       cuStreamQuery_ptsz         00000001800c3ce0 f   cuda:cuda_driverloader_generated_cuda_driverloader_cuda.obj
 0001:000c2d30       cuStreamSetAttribute       00000001800c3d30 f   cuda:cuda_driverloader_generated_cuda_driverloader_cuda.obj
 0001:000c2db0       cuStreamSetAttribute_ptsz  00000001800c3db0 f   cuda:cuda_driverloader_generated_cuda_driverloader_cuda.obj
 0001:000c2e30       cuStreamSynchronize        00000001800c3e30 f   cuda:cuda_driverloader_generated_cuda_driverloader_cuda.obj
 0001:000c2e80       cuStreamSynchronize_ptsz   00000001800c3e80 f   cuda:cuda_driverloader_generated_cuda_driverloader_cuda.obj
 0001:000c2ed0       cuStreamUpdateCaptureDependencies 00000001800c3ed0 f   cuda:cuda_driverloader_generated_cuda_driverloader_cuda.obj
 0001:000c2f60       cuStreamUpdateCaptureDependencies_ptsz 00000001800c3f60 f   cuda:cuda_driverloader_generated_cuda_driverloader_cuda.obj
 0001:000c2ff0       cuStreamUpdateCaptureDependencies_v2 00000001800c3ff0 f   cuda:cuda_driverloader_generated_cuda_driverloader_cuda.obj
 0001:000c3090       cuStreamUpdateCaptureDependencies_v2_ptsz 00000001800c4090 f   cuda:cuda_driverloader_generated_cuda_driverloader_cuda.obj
 0001:000c3130       cuStreamWaitEvent          00000001800c4130 f   cuda:cuda_driverloader_generated_cuda_driverloader_cuda.obj
 0001:000c31c0       cuStreamWaitEvent_ptsz     00000001800c41c0 f   cuda:cuda_driverloader_generated_cuda_driverloader_cuda.obj
 0001:000c3250       cuStreamWaitValue32        00000001800c4250 f   cuda:cuda_driverloader_generated_cuda_driverloader_cuda.obj
 0001:000c32e0       cuStreamWaitValue32_ptsz   00000001800c42e0 f   cuda:cuda_driverloader_generated_cuda_driverloader_cuda.obj
 0001:000c3370       cuStreamWaitValue32_v2     00000001800c4370 f   cuda:cuda_driverloader_generated_cuda_driverloader_cuda.obj
 0001:000c3400       cuStreamWaitValue32_v2_ptsz 00000001800c4400 f   cuda:cuda_driverloader_generated_cuda_driverloader_cuda.obj
 0001:000c3490       cuStreamWaitValue64        00000001800c4490 f   cuda:cuda_driverloader_generated_cuda_driverloader_cuda.obj
 0001:000c3520       cuStreamWaitValue64_ptsz   00000001800c4520 f   cuda:cuda_driverloader_generated_cuda_driverloader_cuda.obj
 0001:000c35b0       cuStreamWaitValue64_v2     00000001800c45b0 f   cuda:cuda_driverloader_generated_cuda_driverloader_cuda.obj
 0001:000c3640       cuStreamWaitValue64_v2_ptsz 00000001800c4640 f   cuda:cuda_driverloader_generated_cuda_driverloader_cuda.obj
 0001:000c36d0       cuStreamWriteValue32       00000001800c46d0 f   cuda:cuda_driverloader_generated_cuda_driverloader_cuda.obj
 0001:000c3760       cuStreamWriteValue32_ptsz  00000001800c4760 f   cuda:cuda_driverloader_generated_cuda_driverloader_cuda.obj
 0001:000c37f0       cuStreamWriteValue32_v2    00000001800c47f0 f   cuda:cuda_driverloader_generated_cuda_driverloader_cuda.obj
 0001:000c3880       cuStreamWriteValue32_v2_ptsz 00000001800c4880 f   cuda:cuda_driverloader_generated_cuda_driverloader_cuda.obj
 0001:000c3910       cuStreamWriteValue64       00000001800c4910 f   cuda:cuda_driverloader_generated_cuda_driverloader_cuda.obj
 0001:000c39a0       cuStreamWriteValue64_ptsz  00000001800c49a0 f   cuda:cuda_driverloader_generated_cuda_driverloader_cuda.obj
 0001:000c3a30       cuStreamWriteValue64_v2    00000001800c4a30 f   cuda:cuda_driverloader_generated_cuda_driverloader_cuda.obj
 0001:000c3ac0       cuStreamWriteValue64_v2_ptsz 00000001800c4ac0 f   cuda:cuda_driverloader_generated_cuda_driverloader_cuda.obj
 0001:000c3b50       cuSurfObjectCreate         00000001800c4b50 f   cuda:cuda_driverloader_generated_cuda_driverloader_cuda.obj
 0001:000c3bc0       cuSurfObjectDestroy        00000001800c4bc0 f   cuda:cuda_driverloader_generated_cuda_driverloader_cuda.obj
 0001:000c3c10       cuSurfObjectGetResourceDesc 00000001800c4c10 f   cuda:cuda_driverloader_generated_cuda_driverloader_cuda.obj
 0001:000c3c80       cuSurfRefGetArray          00000001800c4c80 f   cuda:cuda_driverloader_generated_cuda_driverloader_cuda.obj
 0001:000c3cf0       cuSurfRefSetArray          00000001800c4cf0 f   cuda:cuda_driverloader_generated_cuda_driverloader_cuda.obj
 0001:000c3d80       cuTensorMapEncodeIm2col    00000001800c4d80 f   cuda:cuda_driverloader_generated_cuda_driverloader_cuda.obj
 0001:000c3ec0       cuTensorMapEncodeIm2colWide 00000001800c4ec0 f   cuda:cuda_driverloader_generated_cuda_driverloader_cuda.obj
 0001:000c4000       cuTensorMapEncodeTiled     00000001800c5000 f   cuda:cuda_driverloader_generated_cuda_driverloader_cuda.obj
 0001:000c4100       cuTensorMapReplaceAddress  00000001800c5100 f   cuda:cuda_driverloader_generated_cuda_driverloader_cuda.obj
 0001:000c4170       cuTexObjectCreate          00000001800c5170 f   cuda:cuda_driverloader_generated_cuda_driverloader_cuda.obj
 0001:000c4200       cuTexObjectDestroy         00000001800c5200 f   cuda:cuda_driverloader_generated_cuda_driverloader_cuda.obj
 0001:000c4250       cuTexObjectGetResourceDesc 00000001800c5250 f   cuda:cuda_driverloader_generated_cuda_driverloader_cuda.obj
 0001:000c42c0       cuTexObjectGetResourceViewDesc 00000001800c52c0 f   cuda:cuda_driverloader_generated_cuda_driverloader_cuda.obj
 0001:000c4330       cuTexObjectGetTextureDesc  00000001800c5330 f   cuda:cuda_driverloader_generated_cuda_driverloader_cuda.obj
 0001:000c43a0       cuTexRefCreate             00000001800c53a0 f   cuda:cuda_driverloader_generated_cuda_driverloader_cuda.obj
 0001:000c43f0       cuTexRefDestroy            00000001800c53f0 f   cuda:cuda_driverloader_generated_cuda_driverloader_cuda.obj
 0001:000c4440       cuTexRefGetAddress         00000001800c5440 f   cuda:cuda_driverloader_generated_cuda_driverloader_cuda.obj
 0001:000c44b0       cuTexRefGetAddressMode     00000001800c54b0 f   cuda:cuda_driverloader_generated_cuda_driverloader_cuda.obj
 0001:000c4540       cuTexRefGetAddress_v2      00000001800c5540 f   cuda:cuda_driverloader_generated_cuda_driverloader_cuda.obj
 0001:000c45b0       cuTexRefGetArray           00000001800c55b0 f   cuda:cuda_driverloader_generated_cuda_driverloader_cuda.obj
 0001:000c4620       cuTexRefGetBorderColor     00000001800c5620 f   cuda:cuda_driverloader_generated_cuda_driverloader_cuda.obj
 0001:000c4690       cuTexRefGetFilterMode      00000001800c5690 f   cuda:cuda_driverloader_generated_cuda_driverloader_cuda.obj
 0001:000c4700       cuTexRefGetFlags           00000001800c5700 f   cuda:cuda_driverloader_generated_cuda_driverloader_cuda.obj
 0001:000c4770       cuTexRefGetFormat          00000001800c5770 f   cuda:cuda_driverloader_generated_cuda_driverloader_cuda.obj
 0001:000c4800       cuTexRefGetMaxAnisotropy   00000001800c5800 f   cuda:cuda_driverloader_generated_cuda_driverloader_cuda.obj
 0001:000c4870       cuTexRefGetMipmapFilterMode 00000001800c5870 f   cuda:cuda_driverloader_generated_cuda_driverloader_cuda.obj
 0001:000c48e0       cuTexRefGetMipmapLevelBias 00000001800c58e0 f   cuda:cuda_driverloader_generated_cuda_driverloader_cuda.obj
 0001:000c4950       cuTexRefGetMipmapLevelClamp 00000001800c5950 f   cuda:cuda_driverloader_generated_cuda_driverloader_cuda.obj
 0001:000c49e0       cuTexRefGetMipmappedArray  00000001800c59e0 f   cuda:cuda_driverloader_generated_cuda_driverloader_cuda.obj
 0001:000c4a50       cuTexRefSetAddress         00000001800c5a50 f   cuda:cuda_driverloader_generated_cuda_driverloader_cuda.obj
 0001:000c4ae0       cuTexRefSetAddress2D       00000001800c5ae0 f   cuda:cuda_driverloader_generated_cuda_driverloader_cuda.obj
 0001:000c4b70       cuTexRefSetAddress2D_v2    00000001800c5b70 f   cuda:cuda_driverloader_generated_cuda_driverloader_cuda.obj
 0001:000c4c00       cuTexRefSetAddress2D_v3    00000001800c5c00 f   cuda:cuda_driverloader_generated_cuda_driverloader_cuda.obj
 0001:000c4c90       cuTexRefSetAddressMode     00000001800c5c90 f   cuda:cuda_driverloader_generated_cuda_driverloader_cuda.obj
 0001:000c4d10       cuTexRefSetAddress_v2      00000001800c5d10 f   cuda:cuda_driverloader_generated_cuda_driverloader_cuda.obj
 0001:000c4da0       cuTexRefSetArray           00000001800c5da0 f   cuda:cuda_driverloader_generated_cuda_driverloader_cuda.obj
 0001:000c4e30       cuTexRefSetBorderColor     00000001800c5e30 f   cuda:cuda_driverloader_generated_cuda_driverloader_cuda.obj
 0001:000c4ea0       cuTexRefSetFilterMode      00000001800c5ea0 f   cuda:cuda_driverloader_generated_cuda_driverloader_cuda.obj
 0001:000c4f10       cuTexRefSetFlags           00000001800c5f10 f   cuda:cuda_driverloader_generated_cuda_driverloader_cuda.obj
 0001:000c4f80       cuTexRefSetFormat          00000001800c5f80 f   cuda:cuda_driverloader_generated_cuda_driverloader_cuda.obj
 0001:000c5000       cuTexRefSetMaxAnisotropy   00000001800c6000 f   cuda:cuda_driverloader_generated_cuda_driverloader_cuda.obj
 0001:000c5070       cuTexRefSetMipmapFilterMode 00000001800c6070 f   cuda:cuda_driverloader_generated_cuda_driverloader_cuda.obj
 0001:000c50e0       cuTexRefSetMipmapLevelBias 00000001800c60e0 f   cuda:cuda_driverloader_generated_cuda_driverloader_cuda.obj
 0001:000c5150       cuTexRefSetMipmapLevelClamp 00000001800c6150 f   cuda:cuda_driverloader_generated_cuda_driverloader_cuda.obj
 0001:000c51e0       cuTexRefSetMipmappedArray  00000001800c61e0 f   cuda:cuda_driverloader_generated_cuda_driverloader_cuda.obj
 0001:000c5270       cuThreadExchangeStreamCaptureMode 00000001800c6270 f   cuda:cuda_driverloader_generated_cuda_driverloader_cuda.obj
 0001:000c52c0       cuUserObjectCreate         00000001800c62c0 f   cuda:cuda_driverloader_generated_cuda_driverloader_cuda.obj
 0001:000c5360       cuUserObjectRelease        00000001800c6360 f   cuda:cuda_driverloader_generated_cuda_driverloader_cuda.obj
 0001:000c53d0       cuUserObjectRetain         00000001800c63d0 f   cuda:cuda_driverloader_generated_cuda_driverloader_cuda.obj
 0001:000c5440       cuWaitExternalSemaphoresAsync 00000001800c6440 f   cuda:cuda_driverloader_generated_cuda_driverloader_cuda.obj
 0001:000c54d0       cuWaitExternalSemaphoresAsync_ptsz 00000001800c64d0 f   cuda:cuda_driverloader_generated_cuda_driverloader_cuda.obj
 0001:000c5560       cudaDriverLoader_initialize_cuda_functionPointers 00000001800c6560 f   cuda:cuda_driverloader_generated_cuda_driverloader_cuda.obj
 0001:000cbf30       cudaDriverLoader_initializeLoader 00000001800ccf30 f   cuda:cuda_driverloader_driverLoaderCore.obj
 0001:000cc030       cudaDriverLoader_initialize_cudaHidden_functionPointers 00000001800cd030 f   cuda:cuda_driverloader_generated_cuda_driverloader_cudaHidden.obj
 0001:000cc040       cuProfilerInitialize       00000001800cd040 f   cuda:cuda_driverloader_generated_cuda_driverloader_cudaProfiler.obj
 0001:000cc0d0       cuProfilerStart            00000001800cd0d0 f   cuda:cuda_driverloader_generated_cuda_driverloader_cudaProfiler.obj
 0001:000cc120       cuProfilerStop             00000001800cd120 f   cuda:cuda_driverloader_generated_cuda_driverloader_cudaProfiler.obj
 0001:000cc170       cudaDriverLoader_initialize_cudaProfiler_functionPointers 00000001800cd170 f   cuda:cuda_driverloader_generated_cuda_driverloader_cudaProfiler.obj
 0001:000cc210       cuGLCtxCreate              00000001800cd210 f   cuda:cuda_driverloader_generated_cuda_driverloader_cudaGL.obj
 0001:000cc290       cuGLCtxCreate_v2           00000001800cd290 f   cuda:cuda_driverloader_generated_cuda_driverloader_cudaGL.obj
 0001:000cc310       cuGLGetDevices             00000001800cd310 f   cuda:cuda_driverloader_generated_cuda_driverloader_cudaGL.obj
 0001:000cc3a0       cuGLGetDevices_v2          00000001800cd3a0 f   cuda:cuda_driverloader_generated_cuda_driverloader_cudaGL.obj
 0001:000cc430       cuGLInit                   00000001800cd430 f   cuda:cuda_driverloader_generated_cuda_driverloader_cudaGL.obj
 0001:000cc480       cuGLMapBufferObject        00000001800cd480 f   cuda:cuda_driverloader_generated_cuda_driverloader_cudaGL.obj
 0001:000cc510       cuGLMapBufferObjectAsync   00000001800cd510 f   cuda:cuda_driverloader_generated_cuda_driverloader_cudaGL.obj
 0001:000cc5a0       cuGLMapBufferObjectAsync_v2 00000001800cd5a0 f   cuda:cuda_driverloader_generated_cuda_driverloader_cudaGL.obj
 0001:000cc630       cuGLMapBufferObjectAsync_v2_ptsz 00000001800cd630 f   cuda:cuda_driverloader_generated_cuda_driverloader_cudaGL.obj
 0001:000cc6c0       cuGLMapBufferObject_v2     00000001800cd6c0 f   cuda:cuda_driverloader_generated_cuda_driverloader_cudaGL.obj
 0001:000cc750       cuGLMapBufferObject_v2_ptds 00000001800cd750 f   cuda:cuda_driverloader_generated_cuda_driverloader_cudaGL.obj
 0001:000cc7e0       cuGLRegisterBufferObject   00000001800cd7e0 f   cuda:cuda_driverloader_generated_cuda_driverloader_cudaGL.obj
 0001:000cc830       cuGLSetBufferObjectMapFlags 00000001800cd830 f   cuda:cuda_driverloader_generated_cuda_driverloader_cudaGL.obj
 0001:000cc8a0       cuGLUnmapBufferObject      00000001800cd8a0 f   cuda:cuda_driverloader_generated_cuda_driverloader_cudaGL.obj
 0001:000cc8f0       cuGLUnmapBufferObjectAsync 00000001800cd8f0 f   cuda:cuda_driverloader_generated_cuda_driverloader_cudaGL.obj
 0001:000cc960       cuGLUnregisterBufferObject 00000001800cd960 f   cuda:cuda_driverloader_generated_cuda_driverloader_cudaGL.obj
 0001:000cc9b0       cuGraphicsGLRegisterBuffer 00000001800cd9b0 f   cuda:cuda_driverloader_generated_cuda_driverloader_cudaGL.obj
 0001:000cca30       cuGraphicsGLRegisterImage  00000001800cda30 f   cuda:cuda_driverloader_generated_cuda_driverloader_cudaGL.obj
 0001:000ccac0       cuWGLGetDevice             00000001800cdac0 f   cuda:cuda_driverloader_generated_cuda_driverloader_cudaGL.obj
 0001:000ccb30       cudaDriverLoader_initialize_cudaGL_functionPointers 00000001800cdb30 f   cuda:cuda_driverloader_generated_cuda_driverloader_cudaGL.obj
 0001:000cce70       cuD3D9Begin                00000001800cde70 f   cuda:cuda_driverloader_generated_cuda_driverloader_cudaD3D9.obj
 0001:000ccec0       cuD3D9CtxCreate            00000001800cdec0 f   cuda:cuda_driverloader_generated_cuda_driverloader_cudaD3D9.obj
 0001:000ccf50       cuD3D9CtxCreateOnDevice    00000001800cdf50 f   cuda:cuda_driverloader_generated_cuda_driverloader_cudaD3D9.obj
 0001:000ccfe0       cuD3D9CtxCreate_v2         00000001800cdfe0 f   cuda:cuda_driverloader_generated_cuda_driverloader_cudaD3D9.obj
 0001:000cd070       cuD3D9End                  00000001800ce070 f   cuda:cuda_driverloader_generated_cuda_driverloader_cudaD3D9.obj
 0001:000cd0c0       cuD3D9GetDevice            00000001800ce0c0 f   cuda:cuda_driverloader_generated_cuda_driverloader_cudaD3D9.obj
 0001:000cd130       cuD3D9GetDevices           00000001800ce130 f   cuda:cuda_driverloader_generated_cuda_driverloader_cudaD3D9.obj
 0001:000cd1d0       cuD3D9GetDirect3DDevice    00000001800ce1d0 f   cuda:cuda_driverloader_generated_cuda_driverloader_cudaD3D9.obj
 0001:000cd220       cuD3D9MapResources         00000001800ce220 f   cuda:cuda_driverloader_generated_cuda_driverloader_cudaD3D9.obj
 0001:000cd290       cuD3D9MapVertexBuffer      00000001800ce290 f   cuda:cuda_driverloader_generated_cuda_driverloader_cudaD3D9.obj
 0001:000cd320       cuD3D9MapVertexBuffer_v2   00000001800ce320 f   cuda:cuda_driverloader_generated_cuda_driverloader_cudaD3D9.obj
 0001:000cd3b0       cuD3D9RegisterResource     00000001800ce3b0 f   cuda:cuda_driverloader_generated_cuda_driverloader_cudaD3D9.obj
 0001:000cd420       cuD3D9RegisterVertexBuffer 00000001800ce420 f   cuda:cuda_driverloader_generated_cuda_driverloader_cudaD3D9.obj
 0001:000cd470       cuD3D9ResourceGetMappedArray 00000001800ce470 f   cuda:cuda_driverloader_generated_cuda_driverloader_cudaD3D9.obj
 0001:000cd500       cuD3D9ResourceGetMappedPitch 00000001800ce500 f   cuda:cuda_driverloader_generated_cuda_driverloader_cudaD3D9.obj
 0001:000cd5a0       cuD3D9ResourceGetMappedPitch_v2 00000001800ce5a0 f   cuda:cuda_driverloader_generated_cuda_driverloader_cudaD3D9.obj
 0001:000cd640       cuD3D9ResourceGetMappedPointer 00000001800ce640 f   cuda:cuda_driverloader_generated_cuda_driverloader_cudaD3D9.obj
 0001:000cd6d0       cuD3D9ResourceGetMappedPointer_v2 00000001800ce6d0 f   cuda:cuda_driverloader_generated_cuda_driverloader_cudaD3D9.obj
 0001:000cd760       cuD3D9ResourceGetMappedSize 00000001800ce760 f   cuda:cuda_driverloader_generated_cuda_driverloader_cudaD3D9.obj
 0001:000cd7f0       cuD3D9ResourceGetMappedSize_v2 00000001800ce7f0 f   cuda:cuda_driverloader_generated_cuda_driverloader_cudaD3D9.obj
 0001:000cd880       cuD3D9ResourceGetSurfaceDimensions 00000001800ce880 f   cuda:cuda_driverloader_generated_cuda_driverloader_cudaD3D9.obj
 0001:000cd920       cuD3D9ResourceGetSurfaceDimensions_v2 00000001800ce920 f   cuda:cuda_driverloader_generated_cuda_driverloader_cudaD3D9.obj
 0001:000cd9c0       cuD3D9ResourceSetMapFlags  00000001800ce9c0 f   cuda:cuda_driverloader_generated_cuda_driverloader_cudaD3D9.obj
 0001:000cda30       cuD3D9UnmapResources       00000001800cea30 f   cuda:cuda_driverloader_generated_cuda_driverloader_cudaD3D9.obj
 0001:000cdaa0       cuD3D9UnmapVertexBuffer    00000001800ceaa0 f   cuda:cuda_driverloader_generated_cuda_driverloader_cudaD3D9.obj
 0001:000cdaf0       cuD3D9UnregisterResource   00000001800ceaf0 f   cuda:cuda_driverloader_generated_cuda_driverloader_cudaD3D9.obj
 0001:000cdb40       cuD3D9UnregisterVertexBuffer 00000001800ceb40 f   cuda:cuda_driverloader_generated_cuda_driverloader_cudaD3D9.obj
 0001:000cdb90       cuGraphicsD3D9RegisterResource 00000001800ceb90 f   cuda:cuda_driverloader_generated_cuda_driverloader_cudaD3D9.obj
 0001:000cdc20       cudaDriverLoader_initialize_cudaD3D9_functionPointers 00000001800cec20 f   cuda:cuda_driverloader_generated_cuda_driverloader_cudaD3D9.obj
 0001:000ce0e0       cuD3D10CtxCreate           00000001800cf0e0 f   cuda:cuda_driverloader_generated_cuda_driverloader_cudaD3D10.obj
 0001:000ce170       cuD3D10CtxCreateOnDevice   00000001800cf170 f   cuda:cuda_driverloader_generated_cuda_driverloader_cudaD3D10.obj
 0001:000ce200       cuD3D10CtxCreate_v2        00000001800cf200 f   cuda:cuda_driverloader_generated_cuda_driverloader_cudaD3D10.obj
 0001:000ce290       cuD3D10GetDevice           00000001800cf290 f   cuda:cuda_driverloader_generated_cuda_driverloader_cudaD3D10.obj
 0001:000ce300       cuD3D10GetDevices          00000001800cf300 f   cuda:cuda_driverloader_generated_cuda_driverloader_cudaD3D10.obj
 0001:000ce3a0       cuD3D10GetDirect3DDevice   00000001800cf3a0 f   cuda:cuda_driverloader_generated_cuda_driverloader_cudaD3D10.obj
 0001:000ce3f0       cuD3D10MapResources        00000001800cf3f0 f   cuda:cuda_driverloader_generated_cuda_driverloader_cudaD3D10.obj
 0001:000ce460       cuD3D10RegisterResource    00000001800cf460 f   cuda:cuda_driverloader_generated_cuda_driverloader_cudaD3D10.obj
 0001:000ce4d0       cuD3D10ResourceGetMappedArray 00000001800cf4d0 f   cuda:cuda_driverloader_generated_cuda_driverloader_cudaD3D10.obj
 0001:000ce560       cuD3D10ResourceGetMappedPitch 00000001800cf560 f   cuda:cuda_driverloader_generated_cuda_driverloader_cudaD3D10.obj
 0001:000ce5f0       cuD3D10ResourceGetMappedPitch_v2 00000001800cf5f0 f   cuda:cuda_driverloader_generated_cuda_driverloader_cudaD3D10.obj
 0001:000ce680       cuD3D10ResourceGetMappedPointer 00000001800cf680 f   cuda:cuda_driverloader_generated_cuda_driverloader_cudaD3D10.obj
 0001:000ce710       cuD3D10ResourceGetMappedPointer_v2 00000001800cf710 f   cuda:cuda_driverloader_generated_cuda_driverloader_cudaD3D10.obj
 0001:000ce7a0       cuD3D10ResourceGetMappedSize 00000001800cf7a0 f   cuda:cuda_driverloader_generated_cuda_driverloader_cudaD3D10.obj
 0001:000ce830       cuD3D10ResourceGetMappedSize_v2 00000001800cf830 f   cuda:cuda_driverloader_generated_cuda_driverloader_cudaD3D10.obj
 0001:000ce8c0       cuD3D10ResourceGetSurfaceDimensions 00000001800cf8c0 f   cuda:cuda_driverloader_generated_cuda_driverloader_cudaD3D10.obj
 0001:000ce960       cuD3D10ResourceGetSurfaceDimensions_v2 00000001800cf960 f   cuda:cuda_driverloader_generated_cuda_driverloader_cudaD3D10.obj
 0001:000cea00       cuD3D10ResourceSetMapFlags 00000001800cfa00 f   cuda:cuda_driverloader_generated_cuda_driverloader_cudaD3D10.obj
 0001:000cea70       cuD3D10UnmapResources      00000001800cfa70 f   cuda:cuda_driverloader_generated_cuda_driverloader_cudaD3D10.obj
 0001:000ceae0       cuD3D10UnregisterResource  00000001800cfae0 f   cuda:cuda_driverloader_generated_cuda_driverloader_cudaD3D10.obj
 0001:000ceb30       cuGraphicsD3D10RegisterResource 00000001800cfb30 f   cuda:cuda_driverloader_generated_cuda_driverloader_cudaD3D10.obj
 0001:000cebc0       cudaDriverLoader_initialize_cudaD3D10_functionPointers 00000001800cfbc0 f   cuda:cuda_driverloader_generated_cuda_driverloader_cudaD3D10.obj
 0001:000cef50       cuD3D11CtxCreate           00000001800cff50 f   cuda:cuda_driverloader_generated_cuda_driverloader_cudaD3D11.obj
 0001:000cefe0       cuD3D11CtxCreateOnDevice   00000001800cffe0 f   cuda:cuda_driverloader_generated_cuda_driverloader_cudaD3D11.obj
 0001:000cf070       cuD3D11CtxCreate_v2        00000001800d0070 f   cuda:cuda_driverloader_generated_cuda_driverloader_cudaD3D11.obj
 0001:000cf100       cuD3D11GetDevice           00000001800d0100 f   cuda:cuda_driverloader_generated_cuda_driverloader_cudaD3D11.obj
 0001:000cf170       cuD3D11GetDevices          00000001800d0170 f   cuda:cuda_driverloader_generated_cuda_driverloader_cudaD3D11.obj
 0001:000cf210       cuD3D11GetDirect3DDevice   00000001800d0210 f   cuda:cuda_driverloader_generated_cuda_driverloader_cudaD3D11.obj
 0001:000cf260       cuGraphicsD3D11RegisterResource 00000001800d0260 f   cuda:cuda_driverloader_generated_cuda_driverloader_cudaD3D11.obj
 0001:000cf2f0       cudaDriverLoader_initialize_cudaD3D11_functionPointers 00000001800d02f0 f   cuda:cuda_driverloader_generated_cuda_driverloader_cudaD3D11.obj
 0001:000cf42b       InitOnceExecuteOnce        00000001800d042b f   kernel32:KERNEL32.dll
 0001:000cf431       GetProcAddress             00000001800d0431 f   kernel32:KERNEL32.dll
 0001:000cf437       LoadLibraryExA             00000001800d0437 f   kernel32:KERNEL32.dll
 0001:000cf440       _CRT_RTC_INIT              00000001800d0440 f   MSVCRTD:init.obj
 0001:000cf450       _CRT_RTC_INITW             00000001800d0450 f   MSVCRTD:init.obj
 0001:000cf460       _RTC_InitBase              00000001800d0460 f   MSVCRTD:init.obj
 0001:000cf4b0       _RTC_Shutdown              00000001800d04b0 f   MSVCRTD:init.obj
 0001:000cf4e0       _RTC_AllocaHelper          00000001800d04e0 f   MSVCRTD:stack.obj
 0001:000cf530       _RTC_CheckStackVars        00000001800d0530 f   MSVCRTD:stack.obj
 0001:000cf5e0       _RTC_CheckStackVars2       00000001800d05e0 f   MSVCRTD:stack.obj
 0001:000cf740       __chkstk                   00000001800d0740 f   MSVCRTD:chkstk.obj
 0001:000cf740       _alloca_probe              00000001800d0740 f   MSVCRTD:chkstk.obj
 0001:000cf7b0       ??2@YAPEAX_K@Z             00000001800d07b0 f   MSVCRTD:new_scalar.obj
 0001:000cf820       ??3@YAXPEAX_K@Z            00000001800d0820 f   MSVCRTD:delete_scalar_size.obj
 0001:000cf850       ??_U@YAPEAX_K@Z            00000001800d0850 f   MSVCRTD:new_array.obj
 0001:000cf870       ??3@YAXPEAX@Z              00000001800d0870 f   MSVCRTD:delete_scalar.obj
 0001:000cf8a0       ??_V@YAXPEAX@Z             00000001800d08a0 f   MSVCRTD:delete_array.obj
 0001:000cf8c0       ??_V@YAXPEAX_K@Z           00000001800d08c0 f   MSVCRTD:delete_array_size.obj
 0001:000cfdf0       _CRT_INIT                  00000001800d0df0 f   MSVCRTD:dll_dllmain.obj
 0001:000cfe30       _DllMainCRTStartup         00000001800d0e30 f   MSVCRTD:dll_dllmain.obj
 0001:000cfe80       ?_RTC_GetErrorFunc@@YAP6AHHPEBDH00ZZPEBX@Z 00000001800d0e80 f   MSVCRTD:userapi.obj
 0001:000cfe90       ?_RTC_GetErrorFuncW@@YAP6AHHPEB_WH00ZZPEBX@Z 00000001800d0e90 f   MSVCRTD:userapi.obj
 0001:000cfea0       _RTC_GetErrDesc            00000001800d0ea0 f   MSVCRTD:userapi.obj
 0001:000cfec0       _RTC_NumErrors             00000001800d0ec0 f   MSVCRTD:userapi.obj
 0001:000cfed0       _RTC_SetErrorFunc          00000001800d0ed0 f   MSVCRTD:userapi.obj
 0001:000cfef0       _RTC_SetErrorFuncW         00000001800d0ef0 f   MSVCRTD:userapi.obj
 0001:000cff10       _RTC_SetErrorType          00000001800d0f10 f   MSVCRTD:userapi.obj
 0001:000cfff0       ?_RTC_AllocaFailure@@YAXPEAXPEAU_RTC_ALLOCA_NODE@@H@Z 00000001800d0ff0 f   MSVCRTD:error.obj
 0001:000d01a0       ?_RTC_Failure@@YAXPEAXH@Z  00000001800d11a0 f   MSVCRTD:error.obj
 0001:000d0210       ?_RTC_StackFailure@@YAXPEAXPEBD@Z 00000001800d1210 f   MSVCRTD:error.obj
 0001:000d0790       _RTC_UninitUse             00000001800d1790 f   MSVCRTD:error.obj
 0001:000d0890       _vsprintf_s_l              00000001800d1890 f i MSVCRTD:error.obj
 0001:000d0910       sprintf_s                  00000001800d1910 f i MSVCRTD:error.obj
 0001:000d0940       ??0bad_alloc@std@@AEAA@QEBD@Z 00000001800d1940 f i MSVCRTD:throw_bad_alloc.obj
 0001:000d0990       ??0bad_alloc@std@@QEAA@AEBV01@@Z 00000001800d1990 f i MSVCRTD:throw_bad_alloc.obj
 0001:000d09e0       ??0bad_alloc@std@@QEAA@XZ  00000001800d19e0 f i MSVCRTD:throw_bad_alloc.obj
 0001:000d0a30       ??0bad_array_new_length@std@@QEAA@AEBV01@@Z 00000001800d1a30 f i MSVCRTD:throw_bad_alloc.obj
 0001:000d0a80       ??0bad_array_new_length@std@@QEAA@XZ 00000001800d1a80 f i MSVCRTD:throw_bad_alloc.obj
 0001:000d0ac0       ??0exception@std@@QEAA@AEBV01@@Z 00000001800d1ac0 f i MSVCRTD:throw_bad_alloc.obj
 0001:000d0b30       ??0exception@std@@QEAA@QEBDH@Z 00000001800d1b30 f i MSVCRTD:throw_bad_alloc.obj
 0001:000d0b90       ??1bad_alloc@std@@UEAA@XZ  00000001800d1b90 f i MSVCRTD:throw_bad_alloc.obj
 0001:000d0bb0       ??1bad_array_new_length@std@@UEAA@XZ 00000001800d1bb0 f i MSVCRTD:throw_bad_alloc.obj
 0001:000d0bd0       ??1exception@std@@UEAA@XZ  00000001800d1bd0 f i MSVCRTD:throw_bad_alloc.obj
 0001:000d0c10       ??_Ebad_alloc@std@@UEAAPEAXI@Z 00000001800d1c10 f i MSVCRTD:throw_bad_alloc.obj
 0001:000d0c10       ??_Gbad_alloc@std@@UEAAPEAXI@Z 00000001800d1c10 f i MSVCRTD:throw_bad_alloc.obj
 0001:000d0c60       ??_Ebad_array_new_length@std@@UEAAPEAXI@Z 00000001800d1c60 f i MSVCRTD:throw_bad_alloc.obj
 0001:000d0c60       ??_Gbad_array_new_length@std@@UEAAPEAXI@Z 00000001800d1c60 f i MSVCRTD:throw_bad_alloc.obj
 0001:000d0cb0       ??_Eexception@std@@UEAAPEAXI@Z 00000001800d1cb0 f i MSVCRTD:throw_bad_alloc.obj
 0001:000d0cb0       ??_Gexception@std@@UEAAPEAXI@Z 00000001800d1cb0 f i MSVCRTD:throw_bad_alloc.obj
 0001:000d0d00       ?__scrt_throw_std_bad_alloc@@YAXXZ 00000001800d1d00 f   MSVCRTD:throw_bad_alloc.obj
 0001:000d0d30       ?__scrt_throw_std_bad_array_new_length@@YAXXZ 00000001800d1d30 f   MSVCRTD:throw_bad_alloc.obj
 0001:000d0d60       ?what@exception@std@@UEBAPEBDXZ 00000001800d1d60 f i MSVCRTD:throw_bad_alloc.obj
 0001:000d0ea0       __security_init_cookie     00000001800d1ea0 f   MSVCRTD:gs_support.obj
 0001:000d0f40       DllMain                    00000001800d1f40 f   MSVCRTD:dll_dllmain_stub.obj
 0001:000d0f90       ?__scrt_initialize_type_info@@YAXXZ 00000001800d1f90 f   MSVCRTD:tncleanup.obj
 0001:000d0fb0       ?__scrt_uninitialize_type_info@@YAXXZ 00000001800d1fb0 f   MSVCRTD:tncleanup.obj
 0001:000d0fd0       __local_stdio_scanf_options 00000001800d1fd0 f i MSVCRTD:default_local_stdio_options.obj
 0001:000d0fe0       __scrt_initialize_default_local_stdio_options 00000001800d1fe0 f   MSVCRTD:default_local_stdio_options.obj
 0001:000d1040       ?configure_argv@__scrt_narrow_argv_policy@@SAHXZ 00000001800d2040 f i MSVCRTD:utility.obj
 0001:000d1160       ?initialize_environment@__scrt_narrow_environment_policy@@SAHXZ 00000001800d2160 f i MSVCRTD:utility.obj
 0001:000d1230       NtCurrentTeb               00000001800d2230 f i MSVCRTD:utility.obj
 0001:000d1240       __scrt_acquire_startup_lock 00000001800d2240 f   MSVCRTD:utility.obj
 0001:000d12c0       __scrt_dllmain_after_initialize_c 00000001800d22c0 f   MSVCRTD:utility.obj
 0001:000d1300       __scrt_dllmain_before_initialize_c 00000001800d2300 f   MSVCRTD:utility.obj
 0001:000d1330       __scrt_dllmain_crt_thread_attach 00000001800d2330 f   MSVCRTD:utility.obj
 0001:000d1370       __scrt_dllmain_crt_thread_detach 00000001800d2370 f   MSVCRTD:utility.obj
 0001:000d1390       __scrt_dllmain_exception_filter 00000001800d2390 f   MSVCRTD:utility.obj
 0001:000d1410       __scrt_dllmain_uninitialize_c 00000001800d2410 f   MSVCRTD:utility.obj
 0001:000d1450       __scrt_dllmain_uninitialize_critical 00000001800d2450 f   MSVCRTD:utility.obj
 0001:000d1470       __scrt_initialize_crt      00000001800d2470 f   MSVCRTD:utility.obj
 0001:000d14d0       __scrt_initialize_onexit_tables 00000001800d24d0 f   MSVCRTD:utility.obj
 0001:000d1620       __scrt_is_nonwritable_in_current_image 00000001800d2620 f   MSVCRTD:utility.obj
 0001:000d16d0       __scrt_release_startup_lock 00000001800d26d0 f   MSVCRTD:utility.obj
 0001:000d1710       __scrt_uninitialize_crt    00000001800d2710 f   MSVCRTD:utility.obj
 0001:000d1760       _onexit                    00000001800d2760 f   MSVCRTD:utility.obj
 0001:000d1800       at_quick_exit              00000001800d2800 f   MSVCRTD:utility.obj
 0001:000d1860       atexit                     00000001800d2860 f   MSVCRTD:utility.obj
 0001:000d18a0       __scrt_get_dyn_tls_init_callback 00000001800d28a0 f   MSVCRTD:dyn_tls_init.obj
 0001:000d18b0       __crt_debugger_hook        00000001800d28b0 f   MSVCRTD:utility_desktop.obj
 0001:000d18d0       __scrt_fastfail            00000001800d28d0 f   MSVCRTD:utility_desktop.obj
 0001:000d1ad0       __scrt_get_show_window_mode 00000001800d2ad0 f   MSVCRTD:utility_desktop.obj
 0001:000d1b40       __scrt_initialize_mta      00000001800d2b40 f   MSVCRTD:utility_desktop.obj
 0001:000d1b60       __scrt_initialize_winrt    00000001800d2b60 f   MSVCRTD:utility_desktop.obj
 0001:000d1b70       __scrt_is_managed_app      00000001800d2b70 f   MSVCRTD:utility_desktop.obj
 0001:000d1c40       __scrt_set_unhandled_exception_filter 00000001800d2c40 f   MSVCRTD:utility_desktop.obj
 0001:000d1c60       __scrt_exe_initialize_mta  00000001800d2c60 f   MSVCRTD:utility_desktop.obj
 0001:000d1c60       __scrt_stub_for_initialize_mta 00000001800d2c60 f   MSVCRTD:utility_desktop.obj
 0001:000d1c70       __scrt_unhandled_exception_filter 00000001800d2c70 f   MSVCRTD:utility_desktop.obj
 0001:000d1d40       _RTC_Initialize            00000001800d2d40 f   MSVCRTD:initsect.obj
 0001:000d1da0       _RTC_Terminate             00000001800d2da0 f   MSVCRTD:initsect.obj
 0001:000d1e00       _guard_check_icall_nop     00000001800d2e00 f i MSVCRTD:guard_support.obj
 0001:000d1e10       ReadNoFence64              00000001800d2e10 f i MSVCRTD:guard_support.obj
 0001:000d1e40       ReadPointerNoFence         00000001800d2e40 f i MSVCRTD:guard_support.obj
 0001:000d1e60       __castguard_check_failure_debugbreak 00000001800d2e60 f i MSVCRTD:guard_support.obj
 0001:000d1e90       __castguard_check_failure_fastfail 00000001800d2e90 f i MSVCRTD:guard_support.obj
 0001:000d1ec0       __castguard_check_failure_nop 00000001800d2ec0 f i MSVCRTD:guard_support.obj
 0001:000d1ed0       __castguard_check_failure_os_handled 00000001800d2ed0 f i MSVCRTD:guard_support.obj
 0001:000d1f40       __castguard_check_failure_user_handled 00000001800d2f40 f i MSVCRTD:guard_support.obj
 0001:000d2060       __castguard_set_user_handler 00000001800d3060 f i MSVCRTD:guard_support.obj
 0001:000d2090       __castguard_slow_path_check_debugbreak 00000001800d3090 f i MSVCRTD:guard_support.obj
 0001:000d20e0       __castguard_slow_path_check_fastfail 00000001800d30e0 f i MSVCRTD:guard_support.obj
 0001:000d2140       __castguard_slow_path_check_nop 00000001800d3140 f i MSVCRTD:guard_support.obj
 0001:000d2160       __castguard_slow_path_check_os_handled 00000001800d3160 f i MSVCRTD:guard_support.obj
 0001:000d21c0       __castguard_slow_path_check_user_handled 00000001800d31c0 f i MSVCRTD:guard_support.obj
 0001:000d22b0       _guard_icall_checks_enforced 00000001800d32b0 f i MSVCRTD:guard_support.obj
 0001:000d2300       _guard_rf_checks_enforced  00000001800d3300 f i MSVCRTD:guard_support.obj
 0001:000d2980       ?_RTC_GetSrcLine@@YAHPEAEPEA_WKPEAH1K@Z 00000001800d3980 f   MSVCRTD:pdblkup.obj
 0001:000d2e40       __GSHandlerCheck           00000001800d3e40 f   MSVCRTD:gshandler.obj
 0001:000d2e90       __GSHandlerCheckCommon     00000001800d3e90 f   MSVCRTD:gshandler.obj
 0001:000d2fe0       __security_check_cookie    00000001800d3fe0 f   MSVCRTD:amdsecgs.obj
 0001:000d3010       ??1type_info@@UEAA@XZ      00000001800d4010 f   MSVCRTD:std_type_info_static.obj
 0001:000d3030       ??_Etype_info@@UEAAPEAXI@Z 00000001800d4030 f i MSVCRTD:std_type_info_static.obj
 0001:000d3030       ??_Gtype_info@@UEAAPEAXI@Z 00000001800d4030 f i MSVCRTD:std_type_info_static.obj
 0001:000d3080       __isa_available_init       00000001800d4080 f   MSVCRTD:cpu_disp.obj
 0001:000d36b0       _get_startup_argv_mode     00000001800d46b0 f   MSVCRTD:argv_mode.obj
 0001:000d36c0       __scrt_is_ucrt_dll_in_use  00000001800d46c0 f   MSVCRTD:ucrt_detection.obj
 0001:000d36f0       __raise_securityfailure    00000001800d46f0 f   MSVCRTD:gs_report.obj
 0001:000d3740       __report_gsfailure         00000001800d4740 f   MSVCRTD:gs_report.obj
 0001:000d3850       __report_rangecheckfailure 00000001800d4850 f   MSVCRTD:gs_report.obj
 0001:000d3870       __report_securityfailure   00000001800d4870 f   MSVCRTD:gs_report.obj
 0001:000d3940       __report_securityfailureEx 00000001800d4940 f   MSVCRTD:gs_report.obj
 0001:000d3c3f       _purecall                  00000001800d4c3f f   vcruntimed:VCRUNTIME140D.dll
 0001:000d3c45       memcpy                     00000001800d4c45 f   vcruntimed:VCRUNTIME140D.dll
 0001:000d3c4b       memset                     00000001800d4c4b f   vcruntimed:VCRUNTIME140D.dll
 0001:000d3c51       __C_specific_handler       00000001800d4c51 f   vcruntimed:VCRUNTIME140D.dll
 0001:000d3c57       __C_specific_handler_noexcept 00000001800d4c57 f   vcruntimed:VCRUNTIME140D.dll
 0001:000d3c5d       __std_exception_copy       00000001800d4c5d f   vcruntimed:VCRUNTIME140D.dll
 0001:000d3c63       __std_exception_destroy    00000001800d4c63 f   vcruntimed:VCRUNTIME140D.dll
 0001:000d3c69       _CxxThrowException         00000001800d4c69 f   vcruntimed:VCRUNTIME140D.dll
 0001:000d3c6f       __std_type_info_destroy_list 00000001800d4c6f f   vcruntimed:VCRUNTIME140D.dll
 0001:000d3c75       __current_exception        00000001800d4c75 f   vcruntimed:VCRUNTIME140D.dll
 0001:000d3c7b       __current_exception_context 00000001800d4c7b f   vcruntimed:VCRUNTIME140D.dll
 0001:000d3c81       __vcrt_GetModuleFileNameW  00000001800d4c81 f   vcruntimed:VCRUNTIME140D.dll
 0001:000d3c87       __vcrt_GetModuleHandleW    00000001800d4c87 f   vcruntimed:VCRUNTIME140D.dll
 0001:000d3c8d       __vcrt_LoadLibraryExW      00000001800d4c8d f   vcruntimed:VCRUNTIME140D.dll
 0001:000d3c93       fabs                       00000001800d4c93 f   ucrtd:ucrtbased.dll
 0001:000d3c99       expf                       00000001800d4c99 f   ucrtd:ucrtbased.dll
 0001:000d3c9f       logf                       00000001800d4c9f f   ucrtd:ucrtbased.dll
 0001:000d3ca5       _wassert                   00000001800d4ca5 f   ucrtd:ucrtbased.dll
 0001:000d3cab       asinf                      00000001800d4cab f   ucrtd:ucrtbased.dll
 0001:000d3cb1       cosf                       00000001800d4cb1 f   ucrtd:ucrtbased.dll
 0001:000d3cb7       sinf                       00000001800d4cb7 f   ucrtd:ucrtbased.dll
 0001:000d3cbd       sqrtf                      00000001800d4cbd f   ucrtd:ucrtbased.dll
 0001:000d3cc3       __stdio_common_vsnprintf_s 00000001800d4cc3 f   ucrtd:ucrtbased.dll
 0001:000d3cc9       _fpclass                   00000001800d4cc9 f   ucrtd:ucrtbased.dll
 0001:000d3ccf       _CrtDbgReport              00000001800d4ccf f   ucrtd:ucrtbased.dll
 0001:000d3cd5       _CrtDbgReportW             00000001800d4cd5 f   ucrtd:ucrtbased.dll
 0001:000d3cdb       _callnewh                  00000001800d4cdb f   ucrtd:ucrtbased.dll
 0001:000d3ce1       malloc                     00000001800d4ce1 f   ucrtd:ucrtbased.dll
 0001:000d3ce7       _free_dbg                  00000001800d4ce7 f   ucrtd:ucrtbased.dll
 0001:000d3ced       _initterm                  00000001800d4ced f   ucrtd:ucrtbased.dll
 0001:000d3cf3       _initterm_e                00000001800d4cf3 f   ucrtd:ucrtbased.dll
 0001:000d3cf9       strcpy_s                   00000001800d4cf9 f   ucrtd:ucrtbased.dll
 0001:000d3cff       strcat_s                   00000001800d4cff f   ucrtd:ucrtbased.dll
 0001:000d3d05       __stdio_common_vsprintf_s  00000001800d4d05 f   ucrtd:ucrtbased.dll
 0001:000d3d0b       _seh_filter_dll            00000001800d4d0b f   ucrtd:ucrtbased.dll
 0001:000d3d11       _configure_narrow_argv     00000001800d4d11 f   ucrtd:ucrtbased.dll
 0001:000d3d17       _initialize_narrow_environment 00000001800d4d17 f   ucrtd:ucrtbased.dll
 0001:000d3d1d       _initialize_onexit_table   00000001800d4d1d f   ucrtd:ucrtbased.dll
 0001:000d3d23       _register_onexit_function  00000001800d4d23 f   ucrtd:ucrtbased.dll
 0001:000d3d29       _execute_onexit_table      00000001800d4d29 f   ucrtd:ucrtbased.dll
 0001:000d3d2f       _crt_atexit                00000001800d4d2f f   ucrtd:ucrtbased.dll
 0001:000d3d35       _crt_at_quick_exit         00000001800d4d35 f   ucrtd:ucrtbased.dll
 0001:000d3d3b       _cexit                     00000001800d4d3b f   ucrtd:ucrtbased.dll
 0001:000d3d41       terminate                  00000001800d4d41 f   ucrtd:ucrtbased.dll
 0001:000d3d47       _wmakepath_s               00000001800d4d47 f   ucrtd:ucrtbased.dll
 0001:000d3d4d       _wsplitpath_s              00000001800d4d4d f   ucrtd:ucrtbased.dll
 0001:000d3d53       wcscpy_s                   00000001800d4d53 f   ucrtd:ucrtbased.dll
 0001:000d3d59       IsDebuggerPresent          00000001800d4d59 f   kernel32:KERNEL32.dll
 0001:000d3d5f       RaiseException             00000001800d4d5f f   kernel32:KERNEL32.dll
 0001:000d3d65       MultiByteToWideChar        00000001800d4d65 f   kernel32:KERNEL32.dll
 0001:000d3d6b       WideCharToMultiByte        00000001800d4d6b f   kernel32:KERNEL32.dll
 0001:000d3d71       QueryPerformanceCounter    00000001800d4d71 f   kernel32:KERNEL32.dll
 0001:000d3d77       GetCurrentProcessId        00000001800d4d77 f   kernel32:KERNEL32.dll
 0001:000d3d7d       GetCurrentThreadId         00000001800d4d7d f   kernel32:KERNEL32.dll
 0001:000d3d83       GetSystemTimeAsFileTime    00000001800d4d83 f   kernel32:KERNEL32.dll
 0001:000d3d89       DisableThreadLibraryCalls  00000001800d4d89 f   kernel32:KERNEL32.dll
 0001:000d3d8f       InitializeSListHead        00000001800d4d8f f   kernel32:KERNEL32.dll
 0001:000d3d95       RtlCaptureContext          00000001800d4d95 f   kernel32:KERNEL32.dll
 0001:000d3d9b       RtlLookupFunctionEntry     00000001800d4d9b f   kernel32:KERNEL32.dll
 0001:000d3da1       RtlVirtualUnwind           00000001800d4da1 f   kernel32:KERNEL32.dll
 0001:000d3da7       UnhandledExceptionFilter   00000001800d4da7 f   kernel32:KERNEL32.dll
 0001:000d3dad       SetUnhandledExceptionFilter 00000001800d4dad f   kernel32:KERNEL32.dll
 0001:000d3db3       GetStartupInfoW            00000001800d4db3 f   kernel32:KERNEL32.dll
 0001:000d3db9       IsProcessorFeaturePresent  00000001800d4db9 f   kernel32:KERNEL32.dll
 0001:000d3dbf       GetModuleHandleW           00000001800d4dbf f   kernel32:KERNEL32.dll
 0001:000d3dc5       GetLastError               00000001800d4dc5 f   kernel32:KERNEL32.dll
 0001:000d3dcb       HeapAlloc                  00000001800d4dcb f   kernel32:KERNEL32.dll
 0001:000d3dd1       HeapFree                   00000001800d4dd1 f   kernel32:KERNEL32.dll
 0001:000d3dd7       GetProcessHeap             00000001800d4dd7 f   kernel32:KERNEL32.dll
 0001:000d3ddd       VirtualQuery               00000001800d4ddd f   kernel32:KERNEL32.dll
 0001:000d3de3       FreeLibrary                00000001800d4de3 f   kernel32:KERNEL32.dll
 0001:000d3de9       GetCurrentProcess          00000001800d4de9 f   kernel32:KERNEL32.dll
 0001:000d3def       TerminateProcess           00000001800d4def f   kernel32:KERNEL32.dll
 0001:000d3e00       __acrt_initialize          00000001800d4e00 f   MSVCRTD:ucrt_stubs.obj
 0001:000d3e00       __scrt_stub_for_acrt_initialize 00000001800d4e00 f   MSVCRTD:ucrt_stubs.obj
 0001:000d3e00       __vcrt_initialize          00000001800d4e00 f   MSVCRTD:ucrt_stubs.obj
 0001:000d3e10       __acrt_thread_attach       00000001800d4e10 f   MSVCRTD:ucrt_stubs.obj
 0001:000d3e10       __scrt_stub_for_acrt_thread_attach 00000001800d4e10 f   MSVCRTD:ucrt_stubs.obj
 0001:000d3e10       __vcrt_thread_attach       00000001800d4e10 f   MSVCRTD:ucrt_stubs.obj
 0001:000d3e20       __acrt_thread_detach       00000001800d4e20 f   MSVCRTD:ucrt_stubs.obj
 0001:000d3e20       __scrt_stub_for_acrt_thread_detach 00000001800d4e20 f   MSVCRTD:ucrt_stubs.obj
 0001:000d3e20       __vcrt_thread_detach       00000001800d4e20 f   MSVCRTD:ucrt_stubs.obj
 0001:000d3e30       __acrt_uninitialize        00000001800d4e30 f   MSVCRTD:ucrt_stubs.obj
 0001:000d3e30       __scrt_stub_for_acrt_uninitialize 00000001800d4e30 f   MSVCRTD:ucrt_stubs.obj
 0001:000d3e30       __vcrt_uninitialize        00000001800d4e30 f   MSVCRTD:ucrt_stubs.obj
 0001:000d3e40       __acrt_uninitialize_critical 00000001800d4e40 f   MSVCRTD:ucrt_stubs.obj
 0001:000d3e40       __scrt_stub_for_acrt_uninitialize_critical 00000001800d4e40 f   MSVCRTD:ucrt_stubs.obj
 0001:000d3e40       __vcrt_uninitialize_critical 00000001800d4e40 f   MSVCRTD:ucrt_stubs.obj
 0001:000d3e50       __scrt_stub_for_is_c_termination_complete 00000001800d4e50 f   MSVCRTD:ucrt_stubs.obj
 0001:000d3e50       _is_c_termination_complete 00000001800d4e50 f   MSVCRTD:ucrt_stubs.obj
 0001:000d6790       _guard_dispatch_icall_nop  00000001800d7790 f   MSVCRTD:guard_dispatch.obj
 0001:000d67b0       _guard_xfg_dispatch_icall_nop 00000001800d77b0 f   MSVCRTD:guard_xfg_dispatch.obj
 0002:00000000       __xc_a                     00000001800da000     MSVCRTD:initializers.obj
 0002:000003e0       __xc_z                     00000001800da3e0     MSVCRTD:initializers.obj
 0002:000004f0       __xi_a                     00000001800da4f0     MSVCRTD:initializers.obj
 0002:00000600       __xi_z                     00000001800da600     MSVCRTD:initializers.obj
 0002:00000710       __xp_a                     00000001800da710     MSVCRTD:initializers.obj
 0002:00000820       __xp_z                     00000001800da820     MSVCRTD:initializers.obj
 0002:00000930       __xt_a                     00000001800da930     MSVCRTD:initializers.obj
 0002:00000a40       __xt_z                     00000001800daa40     MSVCRTD:initializers.obj
 0002:00002af8       ??_C@_0BA@DLCJDKDM@NonTrackedAlloc@ 00000001800dcaf8     CuCloth.obj
 0002:00002b10       ??_C@_0EP@JPMDNHHO@C?3?2Users?2Jungle?2Desktop?2GTL?2Wee@ 00000001800dcb10     CuCloth.obj
 0002:00002b70       ??_C@_0O@IBGKICPL@MovingAverage@ 00000001800dcb70     CuCloth.obj
 0002:00002b80       ??_7Cloth@cloth@nv@@6B@    00000001800dcb80     CuCloth.obj
 0002:00002fc0       ??_C@_0EM@MDFFHFGC@C?3?2Users?2Jungle?2Desktop?2GTL?2Wee@ 00000001800dcfc0     CuCloth.obj
 0002:00003020       ??_C@_0O@BLMGHJNL@mRefCount?5?$DO?50@ 00000001800dd020     CuCloth.obj
 0002:00003030       ??_C@_0ED@PEODOEOA@C?3?2Users?2Jungle?2Desktop?2GTL?2Wee@ 00000001800dd030     CuCloth.obj
 0002:00003080       ??_C@_08CCGIIIJL@safeLog2@ 00000001800dd080     CuCloth.obj
 0002:00003090       ??_7?$ClothImpl@VCuCloth@cloth@nv@@@cloth@nv@@6B@ 00000001800dd090     CuCloth.obj
 0002:000034d8       ??_7CuCloth@cloth@nv@@6B@  00000001800dd4d8     CuCloth.obj
 0002:00003920       ??_C@_0EI@LEODLPAI@C?3?2Users?2Jungle?2Desktop?2GTL?2Wee@ 00000001800dd920     CuCloth.obj
 0002:00003978       ??_C@_0BD@OGENPEFN@?$CBparticles?4empty?$CI?$CJ@ 00000001800dd978     CuCloth.obj
 0002:00003990       ??_C@_0CN@LHBADEII@particles?4size?$CI?$CJ?5?$DN?$DN?5fabric?4getN@ 00000001800dd990     CuCloth.obj
 0002:000039c8       ??_C@_0CL@DJACFFHF@mSharedMemorySize?5?$DN?$DN?5getSharedM@ 00000001800dd9c8     CuCloth.obj
 0002:00003a00       ??_C@_0EP@FGBDNKAC@Too?5many?5collision?5triangles?5sp@ 00000001800dda00     CuCloth.obj
 0002:00003a60       ??_C@_0EN@FMLOKKLJ@C?3?2Users?2Jungle?2Desktop?2GTL?2Wee@ 00000001800dda60     CuCloth.obj
 0002:00003ac0       ??_C@_0EL@KJBGIEGH@C?3?2Users?2Jungle?2Desktop?2GTL?2Wee@ 00000001800ddac0     CuCloth.obj
 0002:00003b20       ??_C@_0O@KHFGELLJ@mBegin?5?$DM?5mEnd@ 00000001800ddb20     CuCloth.obj
 0002:00003b30       ??_C@_0CM@ILOAPJOG@startSpheres?4size?$CI?$CJ?5?$DN?$DN?5targetSp@ 00000001800ddb30     CuCloth.obj
 0002:00003b68       ??_C@_0O@JFPPAMFH@newSize?5?$DM?$DN?532@ 00000001800ddb68     CuCloth.obj
 0002:00003b78       ??_C@_0BB@MPBGKJJI@first?5?$DM?$DN?5oldSize@ 00000001800ddb78     CuCloth.obj
 0002:00003b90       ??_C@_0BA@BBNFNLFG@last?5?$DM?$DN?5oldSize@ 00000001800ddb90     CuCloth.obj
 0002:00003ba8       ??_C@_0O@LEDLIPNM@it?9?$DOw?5?$DO?$DN?50?40f@ 00000001800ddba8     CuCloth.obj
 0002:00003bb8       ??_C@_0CK@PCFEAPGE@startPlanes?4size?$CI?$CJ?5?$DN?$DN?5targetPla@ 00000001800ddbb8     CuCloth.obj
 0002:00003bf0       ??_C@_0HF@FMJEJKMD@The?5plane?5normals?5passed?5to?5Clo@ 00000001800ddbf0     CuCloth.obj
 0002:00003c80       ??_C@_0CK@GMNHIKGM@This?5error?5was?5encountered?5?$CFd?5m@ 00000001800ddc80     CuCloth.obj
 0002:00003cc0       ??_C@_0JC@OMGMMPCA@Cloth?3?3setConvexes?5expects?5bit?5@ 00000001800ddcc0     CuCloth.obj
 0002:00003d70       ??_C@_0DA@EIDCBGOJ@startTriangles?4size?$CI?$CJ?5?$DN?$DN?5target@ 00000001800ddd70     CuCloth.obj
 0002:00003db0       ??_C@_0BA@NAFLAEJG@last?5?$DN?$DN?5oldSize@ 00000001800dddb0     CuCloth.obj
 0002:00003dc8       ??_C@_0BK@BCGFNLDB@0?5?$DN?$DN?5triangles?4size?$CI?$CJ?5?$CF?53@ 00000001800dddc8     CuCloth.obj
 0002:00003de8       ??_C@_0BD@LABOCKMF@coefficient?5?$DM?$DN?51?4f@ 00000001800ddde8     CuCloth.obj
 0002:00003e00       ??_C@_0BD@ILGMBFHH@fluidDensity?5?$DO?50?4f@ 00000001800dde00     CuCloth.obj
 0002:00003e18       ??_C@_0BC@DHOGOEND@stiffness?5?$DM?$DN?51?40f@ 00000001800dde18     CuCloth.obj
 0002:00003e30       ??_C@_0ED@FLLFBPP@restPositions?4empty?$CI?$CJ?5?$HM?$HM?5restPo@ 00000001800dde30     CuCloth.obj
 0002:00003e80       ??_C@_0FA@POGIFNOI@C?3?2Users?2Jungle?2Desktop?2GTL?2Wee@ 00000001800dde80     CuCloth.obj
 0002:00003ee0       ??_C@_09GCLCCGEM@i?5?$DM?5mSize@ 00000001800ddee0     CuCloth.obj
 0002:00003ef0       ??_C@_08ENNDNOKO@mContext@ 00000001800ddef0     CuCloth.obj
 0002:00003efc       ??_C@_05ICCGDNCO@mSize@    00000001800ddefc     CuCloth.obj
 0002:00003f10       ??_C@_0FA@LFPCOLIE@C?3?2Users?2Jungle?2Desktop?2GTL?2Wee@ 00000001800ddf10     CuCloth.obj
 0002:00003f70       ??_C@_0CB@EKEHOCCM@this?9?$DOmContext?5?$DN?$DN?5other?4mContex@ 00000001800ddf70     CuCloth.obj
 0002:00003f98       ??_C@_0BC@FEPPGCKN@mBegin?5?$CL?5i?5?$DM?5mEnd@ 00000001800ddf98     CuCloth.obj
 0002:00003fb0       ??_C@_0CP@CPGGIPKL@?$CI?$CBcapacity?$CJ?5?$HM?$HM?5?$CInewData?5?$CG?$CG?5?$CInew@ 00000001800ddfb0     CuCloth.obj
 0002:00003fe8       ??_C@_0BM@BMFMDKFG@this?9?$DOcapacity?$CI?$CJ?5?$DM?5capacity@ 00000001800ddfe8     CuCloth.obj
 0002:0000400c       __real@00000000            00000001800de00c     CuCloth.obj
 0002:00004010       __real@34000000            00000001800de010     CuCloth.obj
 0002:00004014       __real@3c23d70a            00000001800de014     CuCloth.obj
 0002:00004018       __real@3f000000            00000001800de018     CuCloth.obj
 0002:0000401c       __real@3f317218            00000001800de01c     CuCloth.obj
 0002:00004020       __real@3f800000            00000001800de020     CuCloth.obj
 0002:00004024       __real@40000000            00000001800de024     CuCloth.obj
 0002:00004028       __real@40490fdb            00000001800de028     CuCloth.obj
 0002:0000402c       __real@41200000            00000001800de02c     CuCloth.obj
 0002:00004030       __real@43960000            00000001800de030     CuCloth.obj
 0002:00004034       __real@7f7fffff            00000001800de034     CuCloth.obj
 0002:00004038       __real@bf800000            00000001800de038     CuCloth.obj
 0002:0000403c       __real@c3000000            00000001800de03c     CuCloth.obj
 0002:00004040       __xmm@80000000800000008000000080000000 00000001800de040     CuCloth.obj
 0002:00006880       ??_C@_0BD@ONCKCCMF@?$DMTypeName?5Unknown?$DO@ 00000001800e0880     CuClothClone.obj
 0002:000068a0       ??_C@_0EH@MEKDECNI@C?3?2Users?2Jungle?2Desktop?2GTL?2Wee@ 00000001800e08a0     CuClothClone.obj
 0002:00006900       ??_C@_0EN@EDCDNCIK@C?3?2Users?2Jungle?2Desktop?2GTL?2Wee@ 00000001800e0900     CuClothClone.obj
 0002:00006d68       __real@3cbd2e43            00000001800e0d68     CuClothData.obj
 0002:00006d6c       __real@41a19dd5            00000001800e0d6c     CuClothData.obj
 0002:00006d70       __real@42fefff3            00000001800e0d70     CuClothData.obj
 0002:00006d74       __real@43692f28            00000001800e0d74     CuClothData.obj
 0002:00006d78       __real@44bd3d05            00000001800e0d78     CuClothData.obj
 0002:00006d7c       __real@458881b1            00000001800e0d7c     CuClothData.obj
 0002:00006d80       __xmm@0000007f0000007f0000007f0000007f 00000001800e0d80     CuClothData.obj
 0002:00006da0       __xmm@3f8000003f8000003f8000003f800000 00000001800e0da0     CuClothData.obj
 0002:00006dc0       ??_C@_0EO@KGKCMDCL@C?3?2Users?2Jungle?2Desktop?2GTL?2Wee@ 00000001800e0dc0     CuContextLock.obj
 0002:00007328       ??_7Fabric@cloth@nv@@6B@   00000001800e1328     CuFabric.obj
 0002:000073a0       ??_C@_0P@KKCFLDGF@0?5?$DN?$DN?5mRefCount@ 00000001800e13a0     CuFabric.obj
 0002:000073b8       ??_7CuFabric@cloth@nv@@6B@ 00000001800e13b8     CuFabric.obj
 0002:00007430       ??_C@_0EJ@GFKHKNNG@C?3?2Users?2Jungle?2Desktop?2GTL?2Wee@ 00000001800e1430     CuFabric.obj
 0002:00007488       ??_C@_0BC@IPBDCIEE@sets?4front?$CI?$CJ?5?$CB?$DN?50@ 00000001800e1488     CuFabric.obj
 0002:000074a0       ??_C@_0CB@FHFNBHHL@sets?4back?$CI?$CJ?5?$DN?$DN?5restvalues?4size?$CI@ 00000001800e14a0     CuFabric.obj
 0002:000074c8       ??_C@_0CI@EPNLDFDL@restvalues?4size?$CI?$CJ?5?$CK?52?5?$DN?$DN?5indice@ 00000001800e14c8     CuFabric.obj
 0002:00007500       ??_C@_0EL@NAJEIFIA@restvalues?4size?$CI?$CJ?5?$DN?$DN?5stiffnessV@ 00000001800e1500     CuFabric.obj
 0002:00007560       ??_C@_0EA@CMKPMNNF@mNumParticles?5?$DO?5?$CKps?3?3maxElement@ 00000001800e1560     CuFabric.obj
 0002:000075b0       ??_C@_0CH@PLFBGMBD@anchors?4size?$CI?$CJ?5?$DN?$DN?5tetherLengths@ 00000001800e15b0     CuFabric.obj
 0002:000075e0       ??_C@_0BP@NHDLOOFJ@fIt?5?$CB?$DN?5mFactory?4mFabrics?4end?$CI?$CJ@ 00000001800e15e0     CuFabric.obj
 0002:00007610       ??_C@_0EO@JLIGIJBO@C?3?2Users?2Jungle?2Desktop?2GTL?2Wee@ 00000001800e1610     CuFabric.obj
 0002:00007670       __real@477fff00            00000001800e1670     CuFabric.obj
 0002:00007af0       ??_7Factory@cloth@nv@@6B@  00000001800e1af0     CuFactory.obj
 0002:00007b78       ??_7CuFactory@cloth@nv@@6B@ 00000001800e1b78     CuFactory.obj
 0002:00007c00       ??_C@_07NBCGADJA@Unknown@  00000001800e1c00     CuFactory.obj
 0002:00007c10       ??_C@_0BJ@MCNIHGMK@CUDA_ERROR_INVALID_VALUE@ 00000001800e1c10     CuFactory.obj
 0002:00007c30       ??_C@_0BJ@CNEOPIBN@CUDA_ERROR_OUT_OF_MEMORY@ 00000001800e1c30     CuFactory.obj
 0002:00007c50       ??_C@_0BL@EPHIMIFG@CUDA_ERROR_NOT_INITIALIZED@ 00000001800e1c50     CuFactory.obj
 0002:00007c70       ??_C@_0BJ@IKKPFDBH@CUDA_ERROR_DEINITIALIZED@ 00000001800e1c70     CuFactory.obj
 0002:00007c90       ??_C@_0BF@OLCOGLNC@CUDA_ERROR_NO_DEVICE@ 00000001800e1c90     CuFactory.obj
 0002:00007cb0       ??_C@_0BK@KJLPJMNP@CUDA_ERROR_INVALID_DEVICE@ 00000001800e1cb0     CuFactory.obj
 0002:00007cd0       ??_C@_0BJ@BIGAIEEG@CUDA_ERROR_INVALID_IMAGE@ 00000001800e1cd0     CuFactory.obj
 0002:00007cf0       ??_C@_0BL@CAMHACOE@CUDA_ERROR_INVALID_CONTEXT@ 00000001800e1cf0     CuFactory.obj
 0002:00007d10       ??_C@_0BG@PCDIJLGE@CUDA_ERROR_MAP_FAILED@ 00000001800e1d10     CuFactory.obj
 0002:00007d30       ??_C@_0BI@LIOELPBH@CUDA_ERROR_UNMAP_FAILED@ 00000001800e1d30     CuFactory.obj
 0002:00007d50       ??_C@_0BL@LHLGMFM@CUDA_ERROR_ARRAY_IS_MAPPED@ 00000001800e1d50     CuFactory.obj
 0002:00007d70       ??_C@_0BK@JGMMABAO@CUDA_ERROR_ALREADY_MAPPED@ 00000001800e1d70     CuFactory.obj
 0002:00007d90       ??_C@_0BN@LLCKJBJD@CUDA_ERROR_NO_BINARY_FOR_GPU@ 00000001800e1d90     CuFactory.obj
 0002:00007db8       ??_C@_0BM@OJOJMFNC@CUDA_ERROR_ALREADY_ACQUIRED@ 00000001800e1db8     CuFactory.obj
 0002:00007de0       ??_C@_0BG@FNMHNFPE@CUDA_ERROR_NOT_MAPPED@ 00000001800e1de0     CuFactory.obj
 0002:00007e00       ??_C@_0BP@EOHNHEJJ@CUDA_ERROR_NOT_MAPPED_AS_ARRAY@ 00000001800e1e00     CuFactory.obj
 0002:00007e28       ??_C@_0CB@KGAEMLBJ@CUDA_ERROR_NOT_MAPPED_AS_POINTE@ 00000001800e1e28     CuFactory.obj
 0002:00007e50       ??_C@_0BN@MOLLDDBF@CUDA_ERROR_ECC_UNCORRECTABLE@ 00000001800e1e50     CuFactory.obj
 0002:00007e78       ??_C@_0BN@KCELBMJM@CUDA_ERROR_UNSUPPORTED_LIMIT@ 00000001800e1e78     CuFactory.obj
 0002:00007ea0       ??_C@_0BK@GKOFLHLH@CUDA_ERROR_INVALID_SOURCE@ 00000001800e1ea0     CuFactory.obj
 0002:00007ec0       ??_C@_0BK@JKOCDAGF@CUDA_ERROR_FILE_NOT_FOUND@ 00000001800e1ec0     CuFactory.obj
 0002:00007ee0       ??_C@_0CK@KMEKIDID@CUDA_ERROR_SHARED_OBJECT_SYMBOL@ 00000001800e1ee0     CuFactory.obj
 0002:00007f18       ??_C@_0CF@JKMNCLJG@CUDA_ERROR_SHARED_OBJECT_INIT_F@ 00000001800e1f18     CuFactory.obj
 0002:00007f48       ??_C@_0BM@DJPMPCAA@CUDA_ERROR_OPERATING_SYSTEM@ 00000001800e1f48     CuFactory.obj
 0002:00007f70       ??_C@_0BK@FMCIPHBO@CUDA_ERROR_INVALID_HANDLE@ 00000001800e1f70     CuFactory.obj
 0002:00007f90       ??_C@_0BF@DDPFHCNI@CUDA_ERROR_NOT_FOUND@ 00000001800e1f90     CuFactory.obj
 0002:00007fb0       ??_C@_0BF@MMICADPG@CUDA_ERROR_NOT_READY@ 00000001800e1fb0     CuFactory.obj
 0002:00007fd0       ??_C@_0BJ@JLBELLNJ@CUDA_ERROR_LAUNCH_FAILED@ 00000001800e1fd0     CuFactory.obj
 0002:00007ff0       ??_C@_0CD@IAMOGGLH@CUDA_ERROR_LAUNCH_OUT_OF_RESOUR@ 00000001800e1ff0     CuFactory.obj
 0002:00008020       ??_C@_0BK@MIOKJHOO@CUDA_ERROR_LAUNCH_TIMEOUT@ 00000001800e2020     CuFactory.obj
 0002:00008040       ??_C@_0CJ@IHGKNJOE@CUDA_ERROR_LAUNCH_INCOMPATIBLE_@ 00000001800e2040     CuFactory.obj
 0002:00008078       ??_C@_0BL@JBGMGMM@CUDA_ERROR_ILLEGAL_ADDRESS@ 00000001800e2078     CuFactory.obj
 0002:00008098       ??_C@_0BD@KJNCAEGL@CUDA_ERROR_UNKNOWN@ 00000001800e2098     CuFactory.obj
 0002:000080b0       ??_C@_0BI@ONLNOKFF@CUDA?5error?3?5?$CFs?5at?5?$CFs?3?$CFd@ 00000001800e20b0     CuFactory.obj
 0002:000080d0       ??_C@_0EK@CILAHJDF@C?3?2Users?2Jungle?2Desktop?2GTL?2Wee@ 00000001800e20d0     CuFactory.obj
 0002:00008130       ??_C@_0HD@KBMCELLM@?$CI?$CCAll?5fabrics?5created?5by?5this?5f@ 00000001800e2130     CuFactory.obj
 0002:000081c0       ??_C@_0HA@ECDFOBE@?$CI?$CCAll?5solvers?5created?5by?5this?5f@ 00000001800e21c0     CuFactory.obj
 0002:00008248       ??_C@_0CP@NOCMAEKH@phaseIndices?4size?$CI?$CJ?5?$DN?$DN?5cuFabric@ 00000001800e2248     CuFactory.obj
 0002:00008280       ??_C@_0DB@DEFNGJEJ@restvalues?4size?$CI?$CJ?5?$DN?$DN?5cuFabric?4m@ 00000001800e2280     CuFactory.obj
 0002:000082c0       ??_C@_0DL@NMEFAELD@stiffnessValues?4size?$CI?$CJ?5?$DN?$DN?5cuFab@ 00000001800e22c0     CuFactory.obj
 0002:00008308       ??_C@_0CJ@EKMGNNAP@sets?4size?$CI?$CJ?5?$DN?$DN?5cuFabric?4mSets?4s@ 00000001800e2308     CuFactory.obj
 0002:00008340       ??_C@_0CL@GLCDGBDA@indices?4size?$CI?$CJ?5?$DN?$DN?5cuFabric?4mInd@ 00000001800e2340     CuFactory.obj
 0002:00008378       ??_C@_0DE@BBNBKFPM@anchors?4empty?$CI?$CJ?5?$HM?$HM?5anchors?4size@ 00000001800e2378     CuFactory.obj
 0002:000083c0       ??_C@_0EA@KANNPMIA@tetherLengths?4empty?$CI?$CJ?5?$HM?$HM?5tether@ 00000001800e23c0     CuFactory.obj
 0002:00008410       ??_C@_0BM@CAHJIDLE@?$CGcloth?4getFactory?$CI?$CJ?5?$DN?$DN?5this@ 00000001800e2410     CuFactory.obj
 0002:00008440       ??_C@_0EL@EENPMLKL@spheres?4empty?$CI?$CJ?5?$HM?$HM?5spheres?4size@ 00000001800e2440     CuFactory.obj
 0002:000084a0       ??_C@_0EK@MJIFHDFI@capsules?4empty?$CI?$CJ?5?$HM?$HM?5capsules?4si@ 00000001800e24a0     CuFactory.obj
 0002:00008500       ??_C@_0EI@CLBJKNBG@planes?4empty?$CI?$CJ?5?$HM?$HM?5planes?4size?$CI?$CJ@ 00000001800e2500     CuFactory.obj
 0002:00008560       ??_C@_0ED@KBIKHMKH@convexes?4empty?$CI?$CJ?5?$HM?$HM?5convexes?4si@ 00000001800e2560     CuFactory.obj
 0002:000085b0       ??_C@_0FB@JHBGLKMG@triangles?4empty?$CI?$CJ?5?$HM?$HM?5triangles?4@ 00000001800e25b0     CuFactory.obj
 0002:00008620       ??_C@_0EG@NOKFPOCI@destConstraints?4size?$CI?$CJ?5?$DN?$DN?5cuClo@ 00000001800e2620     CuFactory.obj
 0002:00008678       ??_C@_0DA@PLLALOGB@destConstraints?4size?$CI?$CJ?5?$DN?$DN?5srcCo@ 00000001800e2678     CuFactory.obj
 0002:000086c0       ??_C@_0EK@IOFDFDOI@destConstraints?4size?$CI?$CJ?5?$DN?$DN?5cuClo@ 00000001800e26c0     CuFactory.obj
 0002:00008720       ??_C@_0EK@BNILHLNN@destAccelerations?4size?$CI?$CJ?5?$DN?$DN?5cuC@ 00000001800e2720     CuFactory.obj
 0002:00008778       ??_C@_0BM@BEPDACGC@destIt?5?$DM?$DN?5destWeights?4end?$CI?$CJ@ 00000001800e2778     CuFactory.obj
 0002:000087a0       ??_C@_0CF@BHKJICEE@?$CGarray?$CI?$CKdestIt?$CJ?5?$DM?$DN?5destIndices?4@ 00000001800e27a0     CuFactory.obj
 0002:000087d0       ??_C@_0DL@FFKJBKEI@destIndices?4size?$CI?$CJ?5?$DN?$DN?5cuCloth?4m@ 00000001800e27d0     CuFactory.obj
 0002:00008818       ??_C@_0DK@KJBCDBMA@destRestPositions?4size?$CI?$CJ?5?$DN?$DN?5cuC@ 00000001800e2818     CuFactory.obj
 0002:00008860       ??_C@_0CG@LHPBDKPB@cloth?3?3CuSolverKernel?3?3simulate@ 00000001800e2860     CuSolver.obj
 0002:00008890       ??_C@_0CK@DKOODCAM@cloth?3?3CuSolverKernel?3?3integrat@ 00000001800e2890     CuSolver.obj
 0002:000088c8       ??_C@_0CL@EFCCOEC@cloth?3?3CuSolverKernel?3?3accelera@ 00000001800e28c8     CuSolver.obj
 0002:00008900       ??_C@_0CB@GNHAEHAL@cloth?3?3CuSolverKernel?3?3applyWin@ 00000001800e2900     CuSolver.obj
 0002:00008928       ??_C@_0CH@KDFECEFI@cloth?3?3CuSolverKernel?3?3constrai@ 00000001800e2928     CuSolver.obj
 0002:00008958       ??_C@_0CD@GNKHJGJF@cloth?3?3CuSolverKernel?3?3solveFab@ 00000001800e2958     CuSolver.obj
 0002:00008988       ??_C@_0CH@KDNFGBMN@cloth?3?3CuSolverKernel?3?3constrai@ 00000001800e2988     CuSolver.obj
 0002:000089b8       ??_C@_0CL@BONPBKBA@cloth?3?3CuSolverKernel?3?3constrai@ 00000001800e29b8     CuSolver.obj
 0002:000089f0       ??_C@_0CI@EAGACDEF@cloth?3?3CuSolverKernel?3?3collideP@ 00000001800e29f0     CuSolver.obj
 0002:00008a20       ??_C@_0CM@LJGGPLHM@cloth?3?3CuSolverKernel?3?3selfColl@ 00000001800e2a20     CuSolver.obj
 0002:00008a58       ??_C@_0CI@GBMPAHFD@cloth?3?3CuSolverKernel?3?3updateSl@ 00000001800e2a58     CuSolver.obj
 0002:00008a88       ??_C@_0CG@KKAIHEPL@cloth?3?3CuSolverKernel?3?3simulate@ 00000001800e2a88     CuSolver.obj
 0002:00008ab8       ??_C@_0CI@ENEPJGN@cloth?3?3CuSolverKernel?3?3simulate@ 00000001800e2ab8     CuSolver.obj
 0002:00008ae8       ??_C@_0CG@ICPBEFBK@cloth?3?3CuSolverKernel?3?3simulate@ 00000001800e2ae8     CuSolver.obj
 0002:00008b18       ??_C@_0CK@EOJKPICI@cloth?3?3CuSolverKernel?3?3solveCon@ 00000001800e2b18     CuSolver.obj
 0002:00008b50       ??_C@_0CF@IINGDIBN@cloth?3?3CuCollision?3?3buildAccler@ 00000001800e2b50     CuSolver.obj
 0002:00008b80       ??_C@_0CE@BBFKOFKL@cloth?3?3CuCollision?3?3collideCaps@ 00000001800e2b80     CuSolver.obj
 0002:00008bb0       ??_C@_0CL@DICKKKEL@cloth?3?3CuCollision?3?3collideVirt@ 00000001800e2bb0     CuSolver.obj
 0002:00008be8       ??_C@_0CO@MJFMMGDD@cloth?3?3CuCollision?3?3collideCont@ 00000001800e2be8     CuSolver.obj
 0002:00008c20       ??_C@_0CE@NMGHNGPD@cloth?3?3CuCollision?3?3collideConv@ 00000001800e2c20     CuSolver.obj
 0002:00008c50       ??_C@_0CF@PNOPBKHD@cloth?3?3CuCollision?3?3collideTria@ 00000001800e2c50     CuSolver.obj
 0002:00008c80       ??_C@_0CJ@KKHEMACO@cloth?3?3CuSelfCollision?3?3buildAc@ 00000001800e2c80     CuSolver.obj
 0002:00008cb8       ??_C@_0CJ@LPFJDEOC@cloth?3?3CuSelfCollision?3?3collide@ 00000001800e2cb8     CuSolver.obj
 0002:0000a630       ??_7Solver@cloth@nv@@6B@   00000001800e4630     CuSolver.obj
 0002:0000a6e0       ??_C@_1KA@HEDFCPKC@?$AAC?$AA?3?$AA?2?$AAU?$AAs?$AAe?$AAr?$AAs?$AA?2?$AAJ?$AAu?$AAn?$AAg?$AAl?$AAe@ 00000001800e46e0     CuSolver.obj
 0002:0000a7a0       ??_C@_1BG@NCGFCOOL@?$AAi?$AAn?$AAd?$AAe?$AAx?$AA?5?$AA?$DM?$AA?$DN?$AA?5?$AA2@ 00000001800e47a0     CuSolver.obj
 0002:0000a7c0       ??_C@_1KA@HOPACGLL@?$AAC?$AA?3?$AA?2?$AAU?$AAs?$AAe?$AAr?$AAs?$AA?2?$AAJ?$AAu?$AAn?$AAg?$AAl?$AAe@ 00000001800e47c0     CuSolver.obj
 0002:0000a880       ??_C@_1BG@GKNJEJIO@?$AAi?$AAn?$AAd?$AAe?$AAx?$AA?5?$AA?$DM?$AA?$DN?$AA?5?$AA3@ 00000001800e4880     CuSolver.obj
 0002:0000a8a0       ??_7CuSolver@cloth@nv@@6B@ 00000001800e48a0     CuSolver.obj
 0002:0000a950       ??_C@_08JNEJNCCA@?$CBempty?$CI?$CJ@ 00000001800e4950     CuSolver.obj
 0002:0000a960       ??_C@_0BA@LIEDMGGN@count?5?$DN?$DN?5mCount@ 00000001800e4960     CuSolver.obj
 0002:0000a978       ??_C@_0P@OCDOAOI@simulateCloths@ 00000001800e4978     CuSolver.obj
 0002:0000a990       ??_C@_0EJ@OHGNJLMO@C?3?2Users?2Jungle?2Desktop?2GTL?2Wee@ 00000001800e4990     CuSolver.obj
 0002:0000a9e8       ??_C@_0BA@PMEBHONC@mCloths?4empty?$CI?$CJ@ 00000001800e49e8     CuSolver.obj
 0002:0000aa00       ??_C@_0CI@LKIICPEJ@mCloths?4find?$CI?$CGcuCloth?$CJ?5?$DN?$DN?5mClot@ 00000001800e4a00     CuSolver.obj
 0002:0000aa30       ??_C@_0BB@HABADNID@?$CBmCloths?4empty?$CI?$CJ@ 00000001800e4a30     CuSolver.obj
 0002:0000aa48       ??_C@_08NJEHMFMN@idx?5?$DN?$DN?50@ 00000001800e4a48     CuSolver.obj
 0002:0000aa58       ??_C@_0BK@HGFMKICC@cloth?3?3CuSolver?3?3simulate@ 00000001800e4a58     CuSolver.obj
 0002:0000aa78       ??_C@_0P@FJCLCCJJ@numClothsPerSM@ 00000001800e4a78     CuSolver.obj
 0002:0000aa90       ??_C@_0CP@BGKGBCLC@mClothDataHostCopy?4size?$CI?$CJ?5?$DN?$DN?5mC@ 00000001800e4a90     CuSolver.obj
 0002:0000aad0       ??_C@_0GN@HCJDBCLJ@Inter?5collision?5will?5not?5work?5u@ 00000001800e4ad0     CuSolver.obj
 0002:0000ab58       ??_C@_0BL@MAFFJLKJ@?$CBcloth?4mHostParticlesDirty@ 00000001800e4b58     CuSolver.obj
 0002:0000ab78       ??_C@_0CL@IMHMDM@cloth?3?3SwSolver?3?3mInterCollisio@ 00000001800e4b78     CuSolver.obj
 0002:0000abb0       ??_C@_1KA@JDIHGGFN@?$AAC?$AA?3?$AA?2?$AAU?$AAs?$AAe?$AAr?$AAs?$AA?2?$AAJ?$AAu?$AAn?$AAg?$AAl?$AAe@ 00000001800e4bb0     CuSolver.obj
 0002:0000ac70       ??_C@_1BC@MOMIDGGI@?$AAl?$AAo?$AA?5?$AA?$DM?$AA?$DN?$AA?5?$AAh?$AAi@ 00000001800e4c70     CuSolver.obj
 0002:0000ac90       ??_C@_0EI@EKJDKKCA@C?3?2Users?2Jungle?2Desktop?2GTL?2Wee@ 00000001800e4c90     CuSolver.obj
 0002:0000ace8       ??_C@_0BB@DFNEAFME@userBytes?$CI?$CJ?5?$DN?$DN?50@ 00000001800e4ce8     CuSolver.obj
 0002:0000acfc       __real@00800000            00000001800e4cfc     CuSolver.obj
 0002:0000ad00       __real@3ecccccd            00000001800e4d00     CuSolver.obj
 0002:0000ad04       __real@3f4ccccd            00000001800e4d04     CuSolver.obj
 0002:0000ae80       __xmm@ffffffffffffffffffffffff00000000 00000001800e4e80     SwSolveConstraints.obj
 0002:0000aea0       __ymm@0000000000000000ffffffffffffffff0000000000000000ffffffffffffffff 00000001800e4ea0     SwSolveConstraints.obj
 0002:0000aee0       __ymm@0000007f0000007f0000007f0000007f0000007f0000007f0000007f0000007f 00000001800e4ee0     SwSolveConstraints.obj
 0002:0000af20       __ymm@3400000034000000340000003400000034000000340000003400000034000000 00000001800e4f20     SwSolveConstraints.obj
 0002:0000af60       __ymm@3cbd2e433cbd2e433cbd2e433cbd2e433cbd2e433cbd2e433cbd2e433cbd2e43 00000001800e4f60     SwSolveConstraints.obj
 0002:0000afa0       __ymm@3f0000003f0000003f0000003f0000003f0000003f0000003f0000003f000000 00000001800e4fa0     SwSolveConstraints.obj
 0002:0000afe0       __ymm@3f8000003f8000003f8000003f8000003f8000003f8000003f8000003f800000 00000001800e4fe0     SwSolveConstraints.obj
 0002:0000b020       __ymm@3f800000bf800000bf800000bf8000003f800000bf800000bf800000bf800000 00000001800e5020     SwSolveConstraints.obj
 0002:0000b060       __ymm@41a19dd541a19dd541a19dd541a19dd541a19dd541a19dd541a19dd541a19dd5 00000001800e5060     SwSolveConstraints.obj
 0002:0000b0a0       __ymm@42fefff342fefff342fefff342fefff342fefff342fefff342fefff342fefff3 00000001800e50a0     SwSolveConstraints.obj
 0002:0000b0e0       __ymm@43692f2843692f2843692f2843692f2843692f2843692f2843692f2843692f28 00000001800e50e0     SwSolveConstraints.obj
 0002:0000b120       __ymm@44bd3d0544bd3d0544bd3d0544bd3d0544bd3d0544bd3d0544bd3d0544bd3d05 00000001800e5120     SwSolveConstraints.obj
 0002:0000b160       __ymm@458881b1458881b1458881b1458881b1458881b1458881b1458881b1458881b1 00000001800e5160     SwSolveConstraints.obj
 0002:0000b1a0       __ymm@c2fefff3c2fefff3c2fefff3c2fefff3c2fefff3c2fefff3c2fefff3c2fefff3 00000001800e51a0     SwSolveConstraints.obj
 0002:0000b1c6       ??_C@_00CNPNBAHC@@         00000001800e51c6     PsAllocator.obj
 0002:0000b1d0       ??_C@_0EF@EEIGJMJL@C?3?2Users?2Jungle?2Desktop?2GTL?2Wee@ 00000001800e51d0     Allocator.obj
 0002:0000b470       ??_C@_0EF@NNIJPKPD@C?3?2Users?2Jungle?2Desktop?2GTL?2Wee@ 00000001800e5470     Callbacks.obj
 0002:0000b4d0       ??_C@_0FJ@FAEJMPJI@NvCloth?5dll?5id?5mismatch?0?5ensure@ 00000001800e54d0     Callbacks.obj
 0002:0000b540       ??_C@_0CL@GCFHPCMI@NvCloth?5initialized?5with?5invali@ 00000001800e5540     Callbacks.obj
 0002:0000b578       ??_C@_0CO@JFIIAILC@NvCloth?5used?5before?5calling?5Ini@ 00000001800e5578     Callbacks.obj
 0002:0000b5b0       ??_C@_0ED@LOHHHMFK@C?3?2Users?2Jungle?2Desktop?2GTL?2Wee@ 00000001800e55b0     Factory.obj
 0002:0000c810       ??_7?$ClothImpl@VSwCloth@cloth@nv@@@cloth@nv@@6B@ 00000001800e6810     SwCloth.obj
 0002:0000cc58       ??_7SwCloth@cloth@nv@@6B@  00000001800e6c58     SwCloth.obj
 0002:0000d0a0       ??_C@_0ED@JPJAOPID@C?3?2Users?2Jungle?2Desktop?2GTL?2Wee@ 00000001800e70a0     SwCloth.obj
 0002:0000d0f0       ??_C@_0EH@NHKCKLMD@C?3?2Users?2Jungle?2Desktop?2GTL?2Wee@ 00000001800e70f0     SwClothData.obj
 0002:0000d150       ??_C@_0HC@FAKJOHCL@?$CBmNumCapsules?5?$HM?$HM?5mNumSpheres?5?$DO?5@ 00000001800e7150     SwClothData.obj
 0002:0000d1e0       ??_C@_0MB@PABGACPN@?$CBmNumConvexes?5?$HM?$HM?5?$CIstatic_cast?$DMu@ 00000001800e71e0     SwClothData.obj
 0002:00016e20       ??_C@_0EH@OLDLJHAC@C?3?2Users?2Jungle?2Desktop?2GTL?2Wee@ 00000001800f0e20     SwCollision.obj
 0002:00016e78       ??_C@_0CF@HJHLLFIL@cloth?3?3SwSolverKernel?3?3computeB@ 00000001800f0e78     SwCollision.obj
 0002:00016eb0       ??_C@_0EN@IEHLADMJ@allTrue?$CI?$CI?$CIbounds?4mLower?5?$CK?5mGrid@ 00000001800f0eb0     SwCollision.obj
 0002:00016f10       ??_C@_0EM@FHILLHCH@allTrue?$CI?$CI?$CIbounds?4mUpper?5?$CK?5mGrid@ 00000001800f0f10     SwCollision.obj
 0002:00016f70       ??_C@_0CC@MOIPAEN@allTrue?$CI?$CImask?5?$CG?5x?$CJ?5?$DN?$DN?5?$CImask?5?$CG?5x@ 00000001800f0f70     SwCollision.obj
 0002:00016f98       ??_C@_0CC@FLAGCBMJ@allTrue?$CI?$CImask?5?$CG?5y?$CJ?5?$DN?$DN?5?$CImask?5?$CG?5y@ 00000001800f0f98     SwCollision.obj
 0002:00016fc0       ??_C@_0CC@KDDFFDEF@allTrue?$CI?$CImask?5?$CG?5z?$CJ?5?$DN?$DN?5?$CImask?5?$CG?5z@ 00000001800f0fc0     SwCollision.obj
 0002:00016fe8       ??_C@_0CK@OJJLFNLK@allTrue?$CI?$CImask?5?$CG?5scale?$CJ?5?$DN?$DN?5?$CImask@ 00000001800f0fe8     SwCollision.obj
 0002:00017020       ??_C@_0CE@NKCFCINN@allTrue?$CI?$CImask?5?$CG?5vx?$CJ?5?$DN?$DN?5?$CImask?5?$CG?5@ 00000001800f1020     SwCollision.obj
 0002:00017050       ??_C@_0CE@LFHLMPOA@allTrue?$CI?$CImask?5?$CG?5vy?$CJ?5?$DN?$DN?5?$CImask?5?$CG?5@ 00000001800f1050     SwCollision.obj
 0002:00017080       ??_C@_0CE@EJIOGKH@allTrue?$CI?$CImask?5?$CG?5vz?$CJ?5?$DN?$DN?5?$CImask?5?$CG?5@ 00000001800f1080     SwCollision.obj
 0002:000170b0       ??_C@_0CC@NCNFCNJB@allocEnd?5?$DM?$DN?5mBuffer?5?$CL?5mBufferSi@ 00000001800f10b0     SwCollision.obj
 0002:000170d8       ??_C@_0DE@MPNHFNBF@?$CIreinterpret_cast?$DMuintptr_t?$DO?$CIp?$CJ@ 00000001800f10d8     SwCollision.obj
 0002:00017118       ??_C@_0DH@MGNNFBCO@reinterpret_cast?$DMbyte?$CK?$DO?$CIp?$CJ?5?$DO?$DN?5m@ 00000001800f1118     SwCollision.obj
 0002:00017160       ??_C@_0DD@FEDDLHJL@reinterpret_cast?$DMbyte?$CK?$DO?$CIp?$CJ?5?$DM?5mB@ 00000001800f1160     SwCollision.obj
 0002:000171a0       __real@38d1b717            00000001800f11a0     SwCollision.obj
 0002:000171a4       __real@40fff7cf            00000001800f11a4     SwCollision.obj
 0002:000171a8       __real@41000000            00000001800f11a8     SwCollision.obj
 0002:000171ac       __real@ff7fffff            00000001800f11ac     SwCollision.obj
 0002:000171b0       ??_7SwFabric@cloth@nv@@6B@ 00000001800f11b0     SwFabric.obj
 0002:00017230       ??_C@_0EE@BPOGIECO@C?3?2Users?2Jungle?2Desktop?2GTL?2Wee@ 00000001800f1230     SwFabric.obj
 0002:00017288       ??_C@_0CM@HOAMMIBD@mNumParticles?5?$CL?5kSimdWidth?5?9?51?5@ 00000001800f1288     SwFabric.obj
 0002:00017380       ??_7SwFactory@cloth@nv@@6B@ 00000001800f1380     SwFactory.obj
 0002:00017410       ??_C@_0EF@JLKMECDC@C?3?2Users?2Jungle?2Desktop?2GTL?2Wee@ 00000001800f1410     SwFactory.obj
 0002:00017470       ??_C@_0FJ@MINCAFJN@All?5fabrics?5created?5by?5this?5fac@ 00000001800f1470     SwFactory.obj
 0002:000174e0       ??_C@_0EH@DJBIPFPE@phaseIndices?4empty?$CI?$CJ?5?$HM?$HM?5phaseIn@ 00000001800f14e0     SwFactory.obj
 0002:00017540       ??_C@_0EH@FGEENEDD@restvalues?4empty?$CI?$CJ?5?$HM?$HM?5restvalue@ 00000001800f1540     SwFactory.obj
 0002:000175a0       ??_C@_0FG@JGLGDKDH@stiffnessValues?4empty?$CI?$CJ?5?$HM?$HM?5stif@ 00000001800f15a0     SwFactory.obj
 0002:00017608       ??_C@_0DF@IFKFJEAN@sets?4empty?$CI?$CJ?5?$HM?$HM?5sets?4size?$CI?$CJ?5?$DN?$DN?5@ 00000001800f1608     SwFactory.obj
 0002:00017648       ??_C@_0DO@HLKBHFAI@indices?4empty?$CI?$CJ?5?$HM?$HM?5indices?4size@ 00000001800f1648     SwFactory.obj
 0002:00017698       ??_C@_0DO@LAALDDPJ@anchors?4empty?$CI?$CJ?5?$HM?$HM?5anchors?4size@ 00000001800f1698     SwFactory.obj
 0002:000176f0       ??_C@_0EK@FDCCPAJJ@tetherLengths?4empty?$CI?$CJ?5?$HM?$HM?5tether@ 00000001800f16f0     SwFactory.obj
 0002:00017750       ??_C@_0EL@CLPMBALJ@spheres?4empty?$CI?$CJ?5?$HM?$HM?5spheres?4size@ 00000001800f1750     SwFactory.obj
 0002:000177b0       ??_C@_0EK@MPHLJFHP@capsules?4empty?$CI?$CJ?5?$HM?$HM?5capsules?4si@ 00000001800f17b0     SwFactory.obj
 0002:00017810       ??_C@_0EI@LILFFOMA@planes?4empty?$CI?$CJ?5?$HM?$HM?5planes?4size?$CI?$CJ@ 00000001800f1810     SwFactory.obj
 0002:00017870       ??_C@_0ED@GHMNJLPF@convexes?4empty?$CI?$CJ?5?$HM?$HM?5convexes?4si@ 00000001800f1870     SwFactory.obj
 0002:000178c0       ??_C@_0FB@POODKOGK@triangles?4empty?$CI?$CJ?5?$HM?$HM?5triangles?4@ 00000001800f18c0     SwFactory.obj
 0002:00017930       ??_C@_0EC@NAPDBBPI@destAccelerations?4size?$CI?$CJ?5?$DN?$DN?5swC@ 00000001800f1930     SwFactory.obj
 0002:00017980       ??_C@_0BM@MNNFELHB@this?5?$DN?$DN?5?$CGcloth?4getFactory?$CI?$CJ@ 00000001800f1980     SwFactory.obj
 0002:000179a8       ??_C@_0DA@CJHPNEJG@indices?4size?$CI?$CJ?5?$DN?$DN?5numIndices?5?$HM?$HM@ 00000001800f19a8     SwFactory.obj
 0002:000179e8       ??_C@_0DA@MEICOFME@weights?4size?$CI?$CJ?5?$DN?$DN?5numWeights?5?$HM?$HM@ 00000001800f19e8     SwFactory.obj
 0002:00017a28       ??_C@_0BJ@NAJEJNHN@wDestIt?5?$DN?$DN?5weights?4end?$CI?$CJ@ 00000001800f1a28     SwFactory.obj
 0002:00017a48       ??_C@_0CC@GEOGHHF@?$CGarray?$CI?$CKiDestIt?$CJ?5?$DN?$DN?5indices?4end@ 00000001800f1a48     SwFactory.obj
 0002:00017a70       ??_C@_0DL@MGAFOJJO@destIndices?4size?$CI?$CJ?5?$DN?$DN?5swCloth?4m@ 00000001800f1a70     SwFactory.obj
 0002:00017ab8       ??_C@_0DK@BPPBLPIK@destRestPositions?4size?$CI?$CJ?5?$DN?$DN?5swC@ 00000001800f1ab8     SwFactory.obj
 0002:00019330       ??_C@_1KK@LHJJGEAP@?$AAC?$AA?3?$AA?2?$AAU?$AAs?$AAe?$AAr?$AAs?$AA?2?$AAJ?$AAu?$AAn?$AAg?$AAl?$AAe@ 00000001800f3330     SwInterCollision.obj
 0002:00019400       ??_C@_1BI@DIANAMGA@?$AAq?$AA0?$AA?4?$AAi?$AAs?$AAS?$AAa?$AAn?$AAe?$AA?$CI?$AA?$CJ@ 00000001800f3400     SwInterCollision.obj
 0002:00019420       ??_C@_1BG@GGKMGMLC@?$AAx?$AA?4?$AAi?$AAs?$AAS?$AAa?$AAn?$AAe?$AA?$CI?$AA?$CJ@ 00000001800f3420     SwInterCollision.obj
 0002:00019440       ??_C@_1BG@CIBNIEHH@?$AAi?$AAs?$AAF?$AAi?$AAn?$AAi?$AAt?$AAe?$AA?$CI?$AA?$CJ@ 00000001800f3440     SwInterCollision.obj
 0002:00019460       ??_C@_1BK@CFPFHEIO@?$AAs?$AAr?$AAc?$AA?4?$AAi?$AAs?$AAS?$AAa?$AAn?$AAe?$AA?$CI?$AA?$CJ@ 00000001800f3460     SwInterCollision.obj
 0002:00019480       ??_C@_1BC@PIPPNEDG@?$AAi?$AAs?$AAS?$AAa?$AAn?$AAe?$AA?$CI?$AA?$CJ@ 00000001800f3480     SwInterCollision.obj
 0002:000194a0       ??_C@_1KG@NHMNGDNK@?$AAC?$AA?3?$AA?2?$AAU?$AAs?$AAe?$AAr?$AAs?$AA?2?$AAJ?$AAu?$AAn?$AAg?$AAl?$AAe@ 00000001800f34a0     SwInterCollision.obj
 0002:00019568       ??_C@_1BE@OMKIDIPD@?$AAi?$AAs?$AAV?$AAa?$AAl?$AAi?$AAd?$AA?$CI?$AA?$CJ@ 00000001800f3568     SwInterCollision.obj
 0002:00019580       ??_C@_1CC@OIOGNKLB@?$AAb?$AAo?$AAu?$AAn?$AAd?$AAs?$AA?4?$AAi?$AAs?$AAV?$AAa?$AAl?$AAi?$AAd?$AA?$CI@ 00000001800f3580     SwInterCollision.obj
 0002:000195b0       ??_C@_0EM@PDFPDIOB@C?3?2Users?2Jungle?2Desktop?2GTL?2Wee@ 00000001800f35b0     SwInterCollision.obj
 0002:00019610       ??_C@_0DN@HDCCPDBF@sums?$FL0?$FN?5?$DN?$DN?5n?5?$CG?$CG?5sums?$FL1?$FN?5?$DN?$DN?5n?5?$CG?$CG@ 00000001800f3610     SwInterCollision.obj
 0002:00019660       ??_C@_07DCJJDEBF@mFilter@  00000001800f3660     SwInterCollision.obj
 0002:00019670       ??_C@_0CE@DGDNNNIN@cloth?3?3SwInterCollision?3?3BroadP@ 00000001800f3670     SwInterCollision.obj
 0002:000196a0       ??_C@_0CB@FPBKBMHC@cloth?3?3SwInterCollision?3?3Collid@ 00000001800f36a0     SwInterCollision.obj
 0002:000196c8       ??_C@_0CH@KJGHPOLJ@cloth?3?3SwInterCollision?3?3PostTr@ 00000001800f36c8     SwInterCollision.obj
 0002:000196f8       ??_C@_0BG@IECMHDAJ@index?5?$DM?5mNumParticles@ 00000001800f36f8     SwInterCollision.obj
 0002:00019718       ??_C@_0BM@PEMDPCHK@mClothIndex?5?$DM?5mNumInstances@ 00000001800f3718     SwInterCollision.obj
 0002:00019740       ??_C@_0BL@IDCNIEOL@clothIndex?5?$DM?5mNumInstances@ 00000001800f3740     SwInterCollision.obj
 0002:00019760       ??_C@_0BE@BOGLCG@?$CBlcBounds?4isEmpty?$CI?$CJ@ 00000001800f3760     SwInterCollision.obj
 0002:00019778       ??_C@_0BN@EBHCLHLL@sortedIndices?$FLi?$FN?5?$DM?5numCloths@ 00000001800f3778     SwInterCollision.obj
 0002:000197a0       ??_C@_0ED@KLCHIHPA@C?3?2Users?2Jungle?2Desktop?2GTL?2Wee@ 00000001800f37a0     SwInterCollision.obj
 0002:000197f0       ??_C@_07IOFDMEGK@int32_t@  00000001800f37f0     SwInterCollision.obj
 0002:00019800       ??_C@_0CE@KHOCKGAK@first?5?$DO?$DN?50?5?$CG?$CG?5last?5?$DM?5int32_t?$CIco@ 00000001800f3800     SwInterCollision.obj
 0002:00019830       ??_C@_0CH@IDCBKFGC@?$CBcompare?$CIelements?$FLi?$FN?0?5elements?$FL@ 00000001800f3830     SwInterCollision.obj
 0002:00019860       ??_C@_0EM@HMJDECOF@C?3?2Users?2Jungle?2Desktop?2GTL?2Wee@ 00000001800f3860     SwInterCollision.obj
 0002:000198c0       ??_C@_0BI@CKODGONH@i?5?$DM?$DN?5last?5?$CG?$CG?5j?5?$DO?$DN?5first@ 00000001800f38c0     SwInterCollision.obj
 0002:000198e0       ??_C@_0CB@GKHFJDAL@i?5?$DM?$DN?5last?5?$CG?$CG?5first?5?$DM?$DN?5?$CIlast?5?9?51@ 00000001800f38e0     SwInterCollision.obj
 0002:00019908       ??_C@_0P@DFCOPJCF@i?5?$DM?5mNumBounds@ 00000001800f3908     SwInterCollision.obj
 0002:00019920       ??_C@_0P@CEFDJDFM@j?5?$DM?5mNumBounds@ 00000001800f3920     SwInterCollision.obj
 0002:00019934       __real@3b81848e            00000001800f3934     SwInterCollision.obj
 0002:00019938       __real@3fc00000            00000001800f3938     SwInterCollision.obj
 0002:0001993c       __real@437e0000            00000001800f393c     SwInterCollision.obj
 0002:00019940       __real@477ffd00            00000001800f3940     SwInterCollision.obj
 0002:00019944       __real@477ffe00            00000001800f3944     SwInterCollision.obj
 0002:00019948       __real@7e7fffff            00000001800f3948     SwInterCollision.obj
 0002:0001994c       __real@fe7fffff            00000001800f394c     SwInterCollision.obj
 0002:0001a8c0       ??_C@_0EL@GGPHBGGA@C?3?2Users?2Jungle?2Desktop?2GTL?2Wee@ 00000001800f48c0     SwSelfCollision.obj
 0002:0001a920       ??_C@_0CA@CJKONCNI@?$CKiIt?5?$DM?5mClothData?4mNumParticles@ 00000001800f4920     SwSelfCollision.obj
 0002:0001ae88       ??_7SwSolver@cloth@nv@@6B@ 00000001800f4e88     SwSolver.obj
 0002:0001af40       ??_C@_0EE@JNCMLCDG@C?3?2Users?2Jungle?2Desktop?2GTL?2Wee@ 00000001800f4f40     SwSolver.obj
 0002:0001af98       ??_C@_0BJ@NABOILDB@mSimulatedCloths?4empty?$CI?$CJ@ 00000001800f4f98     SwSolver.obj
 0002:0001afb8       ??_C@_0BK@POPFCNKK@?$CBmSimulatedCloths?4empty?$CI?$CJ@ 00000001800f4fb8     SwSolver.obj
 0002:0001afd8       ??_C@_0CI@IALMFCGM@mCloths?4find?$CI?$CGswCloth?$CJ?5?$DN?$DN?5mClot@ 00000001800f4fd8     SwSolver.obj
 0002:0001b008       ??_C@_0BK@GAMKPIKL@cloth?3?3SwSolver?3?3simulate@ 00000001800f5008     SwSolver.obj
 0002:0001b028       ??_C@_0CA@ILALFOGD@cloth?3?3SwSolver?3?3mScratchMemory@ 00000001800f5028     SwSolver.obj
 0002:000202e0       ??_C@_0EK@EGEFLBAO@C?3?2Users?2Jungle?2Desktop?2GTL?2Wee@ 00000001800fa2e0     SwSolverKernel.obj
 0002:00020338       ??_C@_0CK@DMBANECL@cloth?3?3SwSolverKernel?3?3integrat@ 00000001800fa338     SwSolverKernel.obj
 0002:00020370       ??_C@_0CE@GDIFJHEI@cloth?3?3SwSolverKernel?3?3solveTet@ 00000001800fa370     SwSolverKernel.obj
 0002:000203a0       ??_C@_0BP@FGNEDAKF@0?5?$DN?$DN?5numTethers?5?$CF?5numParticles@ 00000001800fa3a0     SwSolverKernel.obj
 0002:000203c8       ??_C@_0BM@CBMEFCKP@tIt?9?$DOmAnchor?5?$DM?5numParticles@ 00000001800fa3c8     SwSolverKernel.obj
 0002:000203f0       ??_C@_0CD@KLOAHBMH@cloth?3?3SwSolverKernel?3?3solveFab@ 00000001800fa3f0     SwSolverKernel.obj
 0002:00020420       ??_C@_0CB@FHEEDKCO@cloth?3?3SwSolverKernel?3?3applyWin@ 00000001800fa420     SwSolverKernel.obj
 0002:00020448       ??_C@_0CH@KDEDNOIG@cloth?3?3SwSolverKernel?3?3constrai@ 00000001800fa448     SwSolverKernel.obj
 0002:00020478       ??_C@_0CL@LLNDFBJN@cloth?3?3SwSolverKernel?3?3constrai@ 00000001800fa478     SwSolverKernel.obj
 0002:000204b0       ??_C@_0CI@KBGOCNOC@cloth?3?3SwSolverKernel?3?3collideP@ 00000001800fa4b0     SwSolverKernel.obj
 0002:000204e0       ??_C@_0CM@CKMKAIKK@cloth?3?3SwSolverKernel?3?3selfColl@ 00000001800fa4e0     SwSolverKernel.obj
 0002:00020518       ??_C@_0CI@IAMBAJPE@cloth?3?3SwSolverKernel?3?3updateSl@ 00000001800fa518     SwSolverKernel.obj
 0002:00020548       __real@3eaaaaab            00000001800fa548     SwSolverKernel.obj
 0002:0002054c       __real@447a0000            00000001800fa54c     SwSolverKernel.obj
 0002:000208b0       ??_C@_0EM@OJKALFKP@C?3?2Users?2Jungle?2Desktop?2GTL?2Wee@ 00000001800fa8b0     TripletScheduler.obj
 0002:00020910       ??_C@_0BN@DGDIBKEI@i?5?$CL?52?5?$DM?5particlesInBatchSize@ 00000001800fa910     TripletScheduler.obj
 0002:00020938       ??_C@_0CD@JEGHMKOL@warpWidth?5?$DN?$DN?532?5?$HM?$HM?5warpWidth?5?$DN?$DN@ 00000001800fa938     TripletScheduler.obj
 0002:00021c48       ??_7ClothFabricCooker@cloth@nv@@6B@ 00000001800fbc48     ClothFabricCooker.obj
 0002:00021c78       ??_7FabricCookerImpl@cloth@nv@@6B@ 00000001800fbc78     ClothFabricCooker.obj
 0002:00021ca8       ??_C@_0CP@FCEDPOAH@FabricCookerImpl?3?3cook?3?5desc?4is@ 00000001800fbca8     ClothFabricCooker.obj
 0002:00021ce0       ??_C@_0FI@JPPOHCOG@C?3?2Users?2Jungle?2Desktop?2GTL?2Wee@ 00000001800fbce0     ClothFabricCooker.obj
 0002:00021d50       ??_C@_0CI@BJNMCMLL@mIndices?4size?$CI?$CJ?5?$DN?$DN?5mRestvalues?4@ 00000001800fbd50     ClothFabricCooker.obj
 0002:00021d80       ??_C@_0CD@POEILDGN@mRestvalues?4size?$CI?$CJ?5?$DN?$DN?5mSets?4bac@ 00000001800fbd80     ClothFabricCooker.obj
 0002:00021db0       ??_C@_1LE@LECEBBE@?$AAC?$AA?3?$AA?2?$AAU?$AAs?$AAe?$AAr?$AAs?$AA?2?$AAJ?$AAu?$AAn?$AAg?$AAl?$AAe@ 00000001800fbdb0     ClothFabricCooker.obj
 0002:00021e90       ??_C@_1EK@MGKJGNCH@?$AAm?$AAS?$AAt?$AAr?$AAi?$AAd?$AAe?$AA?5?$AA?$DN?$AA?$DN?$AA?5?$AA0?$AA?5?$AA?$HM?$AA?$HM@ 00000001800fbe90     ClothFabricCooker.obj
 0002:00021ef0       ??_C@_0FI@DPEAFMPD@C?3?2Users?2Jungle?2Desktop?2GTL?2Wee@ 00000001800fbef0     ClothFabricCooker.obj
 0002:00021f60       ??_C@_0BP@BKFDLDDE@mTimestamp?5?$DN?$DN?5mBase?4mTimestamp@ 00000001800fbf60     ClothFabricCooker.obj
 0002:00021f90       ??_C@_0EK@CFJIEPPJ@?$CImFreeList?5?$DN?$DN?5EOL?$CJ?5?$HM?$HM?5?$CIcompacti@ 00000001800fbf90     ClothFabricCooker.obj
 0002:00021fe8       ??_C@_0BB@GDPMDOF@?$CBfreeListEmpty?$CI?$CJ@ 00000001800fbfe8     ClothFabricCooker.obj
 0002:00022000       ??_C@_0BL@DHJNKJLG@mFreeList?5?$DN?$DN?5mEntriesCount@ 00000001800fc000     ClothFabricCooker.obj
 0002:00022020       ??_C@_08DELPPNON@hashBase@ 00000001800fc020     ClothFabricCooker.obj
 0002:00022030       ??_C@_0BF@MJIJMGPN@?$CB?$CIsize?5?$CG?5?$CIsize?5?9?51?$CJ?$CJ@ 00000001800fc030     ClothFabricCooker.obj
 0002:00022050       ??_C@_09LAGLDPIH@newBuffer@ 00000001800fc050     ClothFabricCooker.obj
 0002:00022060       ??_C@_0BE@JIMKLMPE@index?5?$CB?$DN?5newHash?$FLh?$FN@ 00000001800fc060     ClothFabricCooker.obj
 0002:00022078       ??_C@_0BF@OADKGOFH@mFreeList?5?$CB?$DN?5end?5?9?51@ 00000001800fc078     ClothFabricCooker.obj
 0002:00022094       __real@3dcccccd            00000001800fc094     ClothFabricCooker.obj
 0002:00022098       __real@3e19999a            00000001800fc098     ClothFabricCooker.obj
 0002:0002209c       __real@3ee66666            00000001800fc09c     ClothFabricCooker.obj
 0002:000220a0       __real@3f400000            00000001800fc0a0     ClothFabricCooker.obj
 0002:000220a4       __real@40400000            00000001800fc0a4     ClothFabricCooker.obj
 0002:00023a48       ??_7ClothTetherCooker@cloth@nv@@6B@ 00000001800fda48     ClothGeodesicTetherCooker.obj
 0002:00023a78       ??_7ClothGeodesicTetherCooker@cloth@nv@@6B@ 00000001800fda78     ClothGeodesicTetherCooker.obj
 0002:00023ab0       ??_C@_0GA@KMJPPHIE@C?3?2Users?2Jungle?2Desktop?2GTL?2Wee@ 00000001800fdab0     ClothGeodesicTetherCooker.obj
 0002:00023b28       ??_C@_0CG@KDCJJMIH@islandCnt?5?$DN?$DN?5?$CIislandFirst?4size?$CI@ 00000001800fdb28     ClothGeodesicTetherCooker.obj
 0002:00023b58       ??_C@_0P@LEHKHBNM@bufferSize?5?$DO?50@ 00000001800fdb58     ClothGeodesicTetherCooker.obj
 0002:00023b70       ??_C@_0BM@DCKPFEJF@vertexHeap?4empty?$CI?$CJ?5?$DN?$DN?5false@ 00000001800fdb70     ClothGeodesicTetherCooker.obj
 0002:00023ba0       ??_C@_0FI@HPJKDLAJ@C?3?2Users?2Jungle?2Desktop?2GTL?2Wee@ 00000001800fdba0     ClothGeodesicTetherCooker.obj
 0002:00023c0c       __real@3727c5ac            00000001800fdc0c     ClothGeodesicTetherCooker.obj
 0002:00023c10       __real@3f7fff58            00000001800fdc10     ClothGeodesicTetherCooker.obj
 0002:00023c14       __real@3f800054            00000001800fdc14     ClothGeodesicTetherCooker.obj
 0002:00023c18       __real@b727c5ac            00000001800fdc18     ClothGeodesicTetherCooker.obj
 0002:00024a08       ??_7ClothMeshQuadifier@cloth@nv@@6B@ 00000001800fea08     ClothMeshQuadifier.obj
 0002:00024a28       ??_7ClothMeshQuadifierImpl@cloth@nv@@6B@ 00000001800fea28     ClothMeshQuadifier.obj
 0002:00024a50       ??_C@_0FJ@EIHGLEIC@C?3?2Users?2Jungle?2Desktop?2GTL?2Wee@ 00000001800fea50     ClothMeshQuadifier.obj
 0002:00024ac0       ??_C@_0BP@ENBCGPG@edgeIndex?5?$DM?5uniqueEdges?4size?$CI?$CJ@ 00000001800feac0     ClothMeshQuadifier.obj
 0002:00024ae8       ??_C@_0P@BDBEGIPP@desc?4isValid?$CI?$CJ@ 00000001800feae8     ClothMeshQuadifier.obj
 0002:00024afc       __real@3c8efa35            00000001800feafc     ClothMeshQuadifier.obj
 0002:00024b00       __real@42700000            00000001800feb00     ClothMeshQuadifier.obj
 0002:00024b04       __real@42aa0000            00000001800feb04     ClothMeshQuadifier.obj
 0002:00024da0       ??_7ClothSimpleTetherCooker@cloth@nv@@6B@ 00000001800feda0     ClothSimpleTetherCooker.obj
 0002:00024dd0       ??_C@_0FO@DFBDJEF@C?3?2Users?2Jungle?2Desktop?2GTL?2Wee@ 00000001800fedd0     ClothSimpleTetherCooker.obj
 0002:00024e40       ??_C@_0CP@MKCBJMBN@mTetherAnchors?4size?$CI?$CJ?5?$DN?$DN?5mTethe@ 00000001800fee40     ClothSimpleTetherCooker.obj
 0002:00024e78       ??_C@_0BB@COEDOFII@cuGetErrorString?$AA@ 00000001800fee78     cuda:cuda_driverloader_generated_cuda_driverloader_cuda.obj
 0002:00024e90       ??_C@_0P@GECMDDHD@cuGetErrorName?$AA@ 00000001800fee90     cuda:cuda_driverloader_generated_cuda_driverloader_cuda.obj
 0002:00024ea4       ??_C@_06BGNBMNO@cuInit?$AA@ 00000001800feea4     cuda:cuda_driverloader_generated_cuda_driverloader_cuda.obj
 0002:00024eb0       ??_C@_0BD@GCANFLFI@cuDriverGetVersion?$AA@ 00000001800feeb0     cuda:cuda_driverloader_generated_cuda_driverloader_cuda.obj
 0002:00024ec8       ??_C@_0M@HNBJNLLN@cuDeviceGet?$AA@ 00000001800feec8     cuda:cuda_driverloader_generated_cuda_driverloader_cuda.obj
 0002:00024ed8       ??_C@_0BB@FHDBPPFB@cuDeviceGetCount?$AA@ 00000001800feed8     cuda:cuda_driverloader_generated_cuda_driverloader_cuda.obj
 0002:00024ef0       ??_C@_0BA@OHKMFJNA@cuDeviceGetName?$AA@ 00000001800feef0     cuda:cuda_driverloader_generated_cuda_driverloader_cuda.obj
 0002:00024f08       ??_C@_0BA@DBPFKGBG@cuDeviceGetUuid?$AA@ 00000001800fef08     cuda:cuda_driverloader_generated_cuda_driverloader_cuda.obj
 0002:00024f20       ??_C@_0BA@FMAFFDOF@cuDeviceGetLuid?$AA@ 00000001800fef20     cuda:cuda_driverloader_generated_cuda_driverloader_cuda.obj
 0002:00024f38       ??_C@_0BB@PMLCNFHH@cuDeviceTotalMem?$AA@ 00000001800fef38     cuda:cuda_driverloader_generated_cuda_driverloader_cuda.obj
 0002:00024f50       ??_C@_0CD@HFPAKKMG@cuDeviceGetTexture1DLinearMaxWid@ 00000001800fef50     cuda:cuda_driverloader_generated_cuda_driverloader_cuda.obj
 0002:00024f80       ??_C@_0BF@PDOGFPNC@cuDeviceGetAttribute?$AA@ 00000001800fef80     cuda:cuda_driverloader_generated_cuda_driverloader_cuda.obj
 0002:00024fa0       ??_C@_0CC@OFOBOGFI@cuDeviceGetHostAtomicCapabilitie@ 00000001800fefa0     cuda:cuda_driverloader_generated_cuda_driverloader_cuda.obj
 0002:00024fc8       ??_C@_0BP@JDHDPONH@cuDeviceGetNvSciSyncAttributes?$AA@ 00000001800fefc8     cuda:cuda_driverloader_generated_cuda_driverloader_cuda.obj
 0002:00024ff0       ??_C@_0BD@NNDINAKF@cuDeviceSetMemPool?$AA@ 00000001800feff0     cuda:cuda_driverloader_generated_cuda_driverloader_cuda.obj
 0002:00025008       ??_C@_0BD@MDBHGHOM@cuDeviceGetMemPool?$AA@ 00000001800ff008     cuda:cuda_driverloader_generated_cuda_driverloader_cuda.obj
 0002:00025020       ??_C@_0BK@MHGBMEKL@cuDeviceGetDefaultMemPool?$AA@ 00000001800ff020     cuda:cuda_driverloader_generated_cuda_driverloader_cuda.obj
 0002:00025040       ??_C@_0BP@PGPJNCL@cuDeviceGetExecAffinitySupport?$AA@ 00000001800ff040     cuda:cuda_driverloader_generated_cuda_driverloader_cuda.obj
 0002:00025068       ??_C@_0BL@DLIIDLMF@cuFlushGPUDirectRDMAWrites?$AA@ 00000001800ff068     cuda:cuda_driverloader_generated_cuda_driverloader_cuda.obj
 0002:00025088       ??_C@_0BG@DJIPABBC@cuDeviceGetProperties?$AA@ 00000001800ff088     cuda:cuda_driverloader_generated_cuda_driverloader_cuda.obj
 0002:000250a8       ??_C@_0BK@MMNDNMDI@cuDeviceComputeCapability?$AA@ 00000001800ff0a8     cuda:cuda_driverloader_generated_cuda_driverloader_cuda.obj
 0002:000250c8       ??_C@_0BJ@FCIECOCP@cuDevicePrimaryCtxRetain?$AA@ 00000001800ff0c8     cuda:cuda_driverloader_generated_cuda_driverloader_cuda.obj
 0002:000250e8       ??_C@_0BK@HIEGBIGP@cuDevicePrimaryCtxRelease?$AA@ 00000001800ff0e8     cuda:cuda_driverloader_generated_cuda_driverloader_cuda.obj
 0002:00025108       ??_C@_0BL@BKBBCOFN@cuDevicePrimaryCtxSetFlags?$AA@ 00000001800ff108     cuda:cuda_driverloader_generated_cuda_driverloader_cuda.obj
 0002:00025128       ??_C@_0BL@OKEONKLF@cuDevicePrimaryCtxGetState?$AA@ 00000001800ff128     cuda:cuda_driverloader_generated_cuda_driverloader_cuda.obj
 0002:00025148       ??_C@_0BI@CDHEKJJF@cuDevicePrimaryCtxReset?$AA@ 00000001800ff148     cuda:cuda_driverloader_generated_cuda_driverloader_cuda.obj
 0002:00025168       ??_C@_0M@FJNHCJJN@cuCtxCreate?$AA@ 00000001800ff168     cuda:cuda_driverloader_generated_cuda_driverloader_cuda.obj
 0002:00025178       ??_C@_0N@INNFHCEI@cuCtxDestroy?$AA@ 00000001800ff178     cuda:cuda_driverloader_generated_cuda_driverloader_cuda.obj
 0002:00025188       ??_C@_0BB@OLHBCPOA@cuCtxPushCurrent?$AA@ 00000001800ff188     cuda:cuda_driverloader_generated_cuda_driverloader_cuda.obj
 0002:000251a0       ??_C@_0BA@CCGMODMI@cuCtxPopCurrent?$AA@ 00000001800ff1a0     cuda:cuda_driverloader_generated_cuda_driverloader_cuda.obj
 0002:000251b8       ??_C@_0BA@PBEAEEAM@cuCtxSetCurrent?$AA@ 00000001800ff1b8     cuda:cuda_driverloader_generated_cuda_driverloader_cuda.obj
 0002:000251d0       ??_C@_0BA@OPGPPDEF@cuCtxGetCurrent?$AA@ 00000001800ff1d0     cuda:cuda_driverloader_generated_cuda_driverloader_cuda.obj
 0002:000251e8       ??_C@_0P@LOBLDFFE@cuCtxGetDevice?$AA@ 00000001800ff1e8     cuda:cuda_driverloader_generated_cuda_driverloader_cuda.obj
 0002:00025200       ??_C@_0O@OALHECKC@cuCtxGetFlags?$AA@ 00000001800ff200     cuda:cuda_driverloader_generated_cuda_driverloader_cuda.obj
 0002:00025210       ??_C@_0O@BBJLFBNP@cuCtxSetFlags?$AA@ 00000001800ff210     cuda:cuda_driverloader_generated_cuda_driverloader_cuda.obj
 0002:00025220       ??_C@_0L@IEKECDNM@cuCtxGetId?$AA@ 00000001800ff220     cuda:cuda_driverloader_generated_cuda_driverloader_cuda.obj
 0002:00025230       ??_C@_0BB@LPDDEHBO@cuCtxSynchronize?$AA@ 00000001800ff230     cuda:cuda_driverloader_generated_cuda_driverloader_cuda.obj
 0002:00025248       ??_C@_0O@HHOJPJLM@cuCtxSetLimit?$AA@ 00000001800ff248     cuda:cuda_driverloader_generated_cuda_driverloader_cuda.obj
 0002:00025258       ??_C@_0O@IGMFOKMB@cuCtxGetLimit?$AA@ 00000001800ff258     cuda:cuda_driverloader_generated_cuda_driverloader_cuda.obj
 0002:00025268       ??_C@_0BE@LELLLOEP@cuCtxGetCacheConfig?$AA@ 00000001800ff268     cuda:cuda_driverloader_generated_cuda_driverloader_cuda.obj
 0002:00025280       ??_C@_0BE@HKKFEEGD@cuCtxSetCacheConfig?$AA@ 00000001800ff280     cuda:cuda_driverloader_generated_cuda_driverloader_cuda.obj
 0002:00025298       ??_C@_0BD@EBMOCPLL@cuCtxGetApiVersion?$AA@ 00000001800ff298     cuda:cuda_driverloader_generated_cuda_driverloader_cuda.obj
 0002:000252b0       ??_C@_0BM@PIPHGPCK@cuCtxGetStreamPriorityRange?$AA@ 00000001800ff2b0     cuda:cuda_driverloader_generated_cuda_driverloader_cuda.obj
 0002:000252d8       ??_C@_0BM@DNOEEFCG@cuCtxResetPersistingL2Cache?$AA@ 00000001800ff2d8     cuda:cuda_driverloader_generated_cuda_driverloader_cuda.obj
 0002:00025300       ??_C@_0BF@PBCNIABK@cuCtxGetExecAffinity?$AA@ 00000001800ff300     cuda:cuda_driverloader_generated_cuda_driverloader_cuda.obj
 0002:00025320       ??_C@_0BB@IOECMMNJ@cuCtxRecordEvent?$AA@ 00000001800ff320     cuda:cuda_driverloader_generated_cuda_driverloader_cuda.obj
 0002:00025338       ??_C@_0P@JNPPGONF@cuCtxWaitEvent?$AA@ 00000001800ff338     cuda:cuda_driverloader_generated_cuda_driverloader_cuda.obj
 0002:00025350       ??_C@_0M@OJFGKOCD@cuCtxAttach?$AA@ 00000001800ff350     cuda:cuda_driverloader_generated_cuda_driverloader_cuda.obj
 0002:00025360       ??_C@_0M@HDOEFALK@cuCtxDetach?$AA@ 00000001800ff360     cuda:cuda_driverloader_generated_cuda_driverloader_cuda.obj
 0002:00025370       ??_C@_0BI@NBLCPFIG@cuCtxGetSharedMemConfig?$AA@ 00000001800ff370     cuda:cuda_driverloader_generated_cuda_driverloader_cuda.obj
 0002:00025390       ??_C@_0BI@CLJIMDGO@cuCtxSetSharedMemConfig?$AA@ 00000001800ff390     cuda:cuda_driverloader_generated_cuda_driverloader_cuda.obj
 0002:000253b0       ??_C@_0N@IFLJFIJB@cuModuleLoad?$AA@ 00000001800ff3b0     cuda:cuda_driverloader_generated_cuda_driverloader_cuda.obj
 0002:000253c0       ??_C@_0BB@MOHBGPBC@cuModuleLoadData?$AA@ 00000001800ff3c0     cuda:cuda_driverloader_generated_cuda_driverloader_cuda.obj
 0002:000253d8       ??_C@_0BD@DEEOHOLO@cuModuleLoadDataEx?$AA@ 00000001800ff3d8     cuda:cuda_driverloader_generated_cuda_driverloader_cuda.obj
 0002:000253f0       ??_C@_0BG@KAGEFBHF@cuModuleLoadFatBinary?$AA@ 00000001800ff3f0     cuda:cuda_driverloader_generated_cuda_driverloader_cuda.obj
 0002:00025410       ??_C@_0P@FDOFKBJI@cuModuleUnload?$AA@ 00000001800ff410     cuda:cuda_driverloader_generated_cuda_driverloader_cuda.obj
 0002:00025428       ??_C@_0BH@CGIKCFKL@cuModuleGetLoadingMode?$AA@ 00000001800ff428     cuda:cuda_driverloader_generated_cuda_driverloader_cuda.obj
 0002:00025448       ??_C@_0BE@NDFPCGHH@cuModuleGetFunction?$AA@ 00000001800ff448     cuda:cuda_driverloader_generated_cuda_driverloader_cuda.obj
 0002:00025460       ??_C@_0BJ@MEALKBEE@cuModuleGetFunctionCount?$AA@ 00000001800ff460     cuda:cuda_driverloader_generated_cuda_driverloader_cuda.obj
 0002:00025480       ??_C@_0BL@JELHNMJL@cuModuleEnumerateFunctions?$AA@ 00000001800ff480     cuda:cuda_driverloader_generated_cuda_driverloader_cuda.obj
 0002:000254a0       ??_C@_0BC@LMECHINC@cuModuleGetGlobal?$AA@ 00000001800ff4a0     cuda:cuda_driverloader_generated_cuda_driverloader_cuda.obj
 0002:000254b8       ??_C@_0N@LNOIEPFL@cuLinkCreate?$AA@ 00000001800ff4b8     cuda:cuda_driverloader_generated_cuda_driverloader_cuda.obj
 0002:000254c8       ??_C@_0O@HOJHIJGH@cuLinkAddData?$AA@ 00000001800ff4c8     cuda:cuda_driverloader_generated_cuda_driverloader_cuda.obj
 0002:000254d8       ??_C@_0O@LHLKMFCE@cuLinkAddFile?$AA@ 00000001800ff4d8     cuda:cuda_driverloader_generated_cuda_driverloader_cuda.obj
 0002:000254e8       ??_C@_0P@LIBFFNPI@cuLinkComplete?$AA@ 00000001800ff4e8     cuda:cuda_driverloader_generated_cuda_driverloader_cuda.obj
 0002:00025500       ??_C@_0O@PPDGCKKL@cuLinkDestroy?$AA@ 00000001800ff500     cuda:cuda_driverloader_generated_cuda_driverloader_cuda.obj
 0002:00025510       ??_C@_0BC@BCHGFMCM@cuModuleGetTexRef?$AA@ 00000001800ff510     cuda:cuda_driverloader_generated_cuda_driverloader_cuda.obj
 0002:00025528       ??_C@_0BD@PGPGAACI@cuModuleGetSurfRef?$AA@ 00000001800ff528     cuda:cuda_driverloader_generated_cuda_driverloader_cuda.obj
 0002:00025540       ??_C@_0BC@JOGDCLBB@cuLibraryLoadData?$AA@ 00000001800ff540     cuda:cuda_driverloader_generated_cuda_driverloader_cuda.obj
 0002:00025558       ??_C@_0BG@IDNJLBBL@cuLibraryLoadFromFile?$AA@ 00000001800ff558     cuda:cuda_driverloader_generated_cuda_driverloader_cuda.obj
 0002:00025578       ??_C@_0BA@NBGEJCAG@cuLibraryUnload?$AA@ 00000001800ff578     cuda:cuda_driverloader_generated_cuda_driverloader_cuda.obj
 0002:00025590       ??_C@_0BD@BABLEEMH@cuLibraryGetKernel?$AA@ 00000001800ff590     cuda:cuda_driverloader_generated_cuda_driverloader_cuda.obj
 0002:000255a8       ??_C@_0BI@NCKHDHEJ@cuLibraryGetKernelCount?$AA@ 00000001800ff5a8     cuda:cuda_driverloader_generated_cuda_driverloader_cuda.obj
 0002:000255c8       ??_C@_0BK@KLGBCEJL@cuLibraryEnumerateKernels?$AA@ 00000001800ff5c8     cuda:cuda_driverloader_generated_cuda_driverloader_cuda.obj
 0002:000255e8       ??_C@_0BD@GEPLGAOB@cuLibraryGetModule?$AA@ 00000001800ff5e8     cuda:cuda_driverloader_generated_cuda_driverloader_cuda.obj
 0002:00025600       ??_C@_0BE@OJOMNOMI@cuKernelGetFunction?$AA@ 00000001800ff600     cuda:cuda_driverloader_generated_cuda_driverloader_cuda.obj
 0002:00025618       ??_C@_0BD@FFKBHLIJ@cuKernelGetLibrary?$AA@ 00000001800ff618     cuda:cuda_driverloader_generated_cuda_driverloader_cuda.obj
 0002:00025630       ??_C@_0BD@CFBLDLCM@cuLibraryGetGlobal?$AA@ 00000001800ff630     cuda:cuda_driverloader_generated_cuda_driverloader_cuda.obj
 0002:00025648       ??_C@_0BE@GFDNGJFF@cuLibraryGetManaged?$AA@ 00000001800ff648     cuda:cuda_driverloader_generated_cuda_driverloader_cuda.obj
 0002:00025660       ??_C@_0BM@DELFJOJH@cuLibraryGetUnifiedFunction?$AA@ 00000001800ff660     cuda:cuda_driverloader_generated_cuda_driverloader_cuda.obj
 0002:00025688       ??_C@_0BF@LCCEDNBE@cuKernelGetAttribute?$AA@ 00000001800ff688     cuda:cuda_driverloader_generated_cuda_driverloader_cuda.obj
 0002:000256a8       ??_C@_0BF@MGJKPBFI@cuKernelSetAttribute?$AA@ 00000001800ff6a8     cuda:cuda_driverloader_generated_cuda_driverloader_cuda.obj
 0002:000256c8       ??_C@_0BH@LOKJFMLM@cuKernelSetCacheConfig?$AA@ 00000001800ff6c8     cuda:cuda_driverloader_generated_cuda_driverloader_cuda.obj
 0002:000256e8       ??_C@_0BA@DKLIAFMG@cuKernelGetName?$AA@ 00000001800ff6e8     cuda:cuda_driverloader_generated_cuda_driverloader_cuda.obj
 0002:00025700       ??_C@_0BF@EDJDEMCB@cuKernelGetParamInfo?$AA@ 00000001800ff700     cuda:cuda_driverloader_generated_cuda_driverloader_cuda.obj
 0002:00025720       ??_C@_0N@DCCFJJLF@cuMemGetInfo?$AA@ 00000001800ff720     cuda:cuda_driverloader_generated_cuda_driverloader_cuda.obj
 0002:00025730       ??_C@_0L@PEPECIBL@cuMemAlloc?$AA@ 00000001800ff730     cuda:cuda_driverloader_generated_cuda_driverloader_cuda.obj
 0002:00025740       ??_C@_0BA@CLOPGACB@cuMemAllocPitch?$AA@ 00000001800ff740     cuda:cuda_driverloader_generated_cuda_driverloader_cuda.obj
 0002:00025758       ??_C@_09DPOFFEN@cuMemFree?$AA@ 00000001800ff758     cuda:cuda_driverloader_generated_cuda_driverloader_cuda.obj
 0002:00025768       ??_C@_0BF@NAJKLBIC@cuMemGetAddressRange?$AA@ 00000001800ff768     cuda:cuda_driverloader_generated_cuda_driverloader_cuda.obj
 0002:00025788       ??_C@_0P@GNGEELFM@cuMemAllocHost?$AA@ 00000001800ff788     cuda:cuda_driverloader_generated_cuda_driverloader_cuda.obj
 0002:000257a0       ??_C@_0O@GBNGPBE@cuMemFreeHost?$AA@ 00000001800ff7a0     cuda:cuda_driverloader_generated_cuda_driverloader_cuda.obj
 0002:000257b0       ??_C@_0P@BEJBOLHF@cuMemHostAlloc?$AA@ 00000001800ff7b0     cuda:cuda_driverloader_generated_cuda_driverloader_cuda.obj
 0002:000257c8       ??_C@_0BK@OMNGJNFM@cuMemHostGetDevicePointer?$AA@ 00000001800ff7c8     cuda:cuda_driverloader_generated_cuda_driverloader_cuda.obj
 0002:000257e8       ??_C@_0BC@DIDPDHIL@cuMemHostGetFlags?$AA@ 00000001800ff7e8     cuda:cuda_driverloader_generated_cuda_driverloader_cuda.obj
 0002:00025800       ??_C@_0BC@NKBPPAGK@cuMemAllocManaged?$AA@ 00000001800ff800     cuda:cuda_driverloader_generated_cuda_driverloader_cuda.obj
 0002:00025818       ??_C@_0CC@OEEFMEJ@cuDeviceRegisterAsyncNotificatio@ 00000001800ff818     cuda:cuda_driverloader_generated_cuda_driverloader_cuda.obj
 0002:00025840       ??_C@_0CE@LEGBDOJC@cuDeviceUnregisterAsyncNotificat@ 00000001800ff840     cuda:cuda_driverloader_generated_cuda_driverloader_cuda.obj
 0002:00025870       ??_C@_0BG@PHEICNGO@cuDeviceGetByPCIBusId?$AA@ 00000001800ff870     cuda:cuda_driverloader_generated_cuda_driverloader_cuda.obj
 0002:00025890       ??_C@_0BE@LBINIEHA@cuDeviceGetPCIBusId?$AA@ 00000001800ff890     cuda:cuda_driverloader_generated_cuda_driverloader_cuda.obj
 0002:000258a8       ??_C@_0BE@GJNGFIJE@cuIpcGetEventHandle?$AA@ 00000001800ff8a8     cuda:cuda_driverloader_generated_cuda_driverloader_cuda.obj
 0002:000258c0       ??_C@_0BF@CIBEHPGP@cuIpcOpenEventHandle?$AA@ 00000001800ff8c0     cuda:cuda_driverloader_generated_cuda_driverloader_cuda.obj
 0002:000258e0       ??_C@_0BC@HHLBDMDB@cuIpcGetMemHandle?$AA@ 00000001800ff8e0     cuda:cuda_driverloader_generated_cuda_driverloader_cuda.obj
 0002:000258f8       ??_C@_0BD@CGPDCFAL@cuIpcOpenMemHandle?$AA@ 00000001800ff8f8     cuda:cuda_driverloader_generated_cuda_driverloader_cuda.obj
 0002:00025910       ??_C@_0BE@GPBJBNBJ@cuIpcCloseMemHandle?$AA@ 00000001800ff910     cuda:cuda_driverloader_generated_cuda_driverloader_cuda.obj
 0002:00025928       ??_C@_0BC@OBEMEDNE@cuMemHostRegister?$AA@ 00000001800ff928     cuda:cuda_driverloader_generated_cuda_driverloader_cuda.obj
 0002:00025940       ??_C@_0BE@NPKFILKB@cuMemHostUnregister?$AA@ 00000001800ff940     cuda:cuda_driverloader_generated_cuda_driverloader_cuda.obj
 0002:00025958       ??_C@_08HHAACGK@cuMemcpy?$AA@ 00000001800ff958     cuda:cuda_driverloader_generated_cuda_driverloader_cuda.obj
 0002:00025968       ??_C@_0N@IBLKPFBJ@cuMemcpyPeer?$AA@ 00000001800ff968     cuda:cuda_driverloader_generated_cuda_driverloader_cuda.obj
 0002:00025978       ??_C@_0N@LNAEANAD@cuMemcpyHtoD?$AA@ 00000001800ff978     cuda:cuda_driverloader_generated_cuda_driverloader_cuda.obj
 0002:00025988       ??_C@_0N@NEEBKPAO@cuMemcpyDtoH?$AA@ 00000001800ff988     cuda:cuda_driverloader_generated_cuda_driverloader_cuda.obj
 0002:00025998       ??_C@_0N@HIPEOAAC@cuMemcpyDtoD?$AA@ 00000001800ff998     cuda:cuda_driverloader_generated_cuda_driverloader_cuda.obj
 0002:000259a8       ??_C@_0N@FIDBEEH@cuMemcpyDtoA?$AA@ 00000001800ff9a8     cuda:cuda_driverloader_generated_cuda_driverloader_cuda.obj
 0002:000259b8       ??_C@_0N@LABEGPHC@cuMemcpyAtoD?$AA@ 00000001800ff9b8     cuda:cuda_driverloader_generated_cuda_driverloader_cuda.obj
 0002:000259c8       ??_C@_0N@MAHDPJEG@cuMemcpyHtoA?$AA@ 00000001800ff9c8     cuda:cuda_driverloader_generated_cuda_driverloader_cuda.obj
 0002:000259d8       ??_C@_0N@BMKBCAHO@cuMemcpyAtoH?$AA@ 00000001800ff9d8     cuda:cuda_driverloader_generated_cuda_driverloader_cuda.obj
 0002:000259e8       ??_C@_0N@MNGDJLDH@cuMemcpyAtoA?$AA@ 00000001800ff9e8     cuda:cuda_driverloader_generated_cuda_driverloader_cuda.obj
 0002:000259f8       ??_C@_0L@MCOGFOIO@cuMemcpy2D?$AA@ 00000001800ff9f8     cuda:cuda_driverloader_generated_cuda_driverloader_cuda.obj
 0002:00025a08       ??_C@_0BE@NJDNFFKC@cuMemcpy2DUnaligned?$AA@ 00000001800ffa08     cuda:cuda_driverloader_generated_cuda_driverloader_cuda.obj
 0002:00025a20       ??_C@_0L@MDCEDELJ@cuMemcpy3D?$AA@ 00000001800ffa20     cuda:cuda_driverloader_generated_cuda_driverloader_cuda.obj
 0002:00025a30       ??_C@_0P@NHGDOELF@cuMemcpy3DPeer?$AA@ 00000001800ffa30     cuda:cuda_driverloader_generated_cuda_driverloader_cuda.obj
 0002:00025a48       ??_C@_0O@CODCLHO@cuMemcpyAsync?$AA@ 00000001800ffa48     cuda:cuda_driverloader_generated_cuda_driverloader_cuda.obj
 0002:00025a58       ??_C@_0BC@FGMBLDCE@cuMemcpyPeerAsync?$AA@ 00000001800ffa58     cuda:cuda_driverloader_generated_cuda_driverloader_cuda.obj
 0002:00025a70       ??_C@_0BC@IDHAKIKK@cuMemcpyHtoDAsync?$AA@ 00000001800ffa70     cuda:cuda_driverloader_generated_cuda_driverloader_cuda.obj
 0002:00025a88       ??_C@_0BC@FOOMCCFA@cuMemcpyDtoHAsync?$AA@ 00000001800ffa88     cuda:cuda_driverloader_generated_cuda_driverloader_cuda.obj
 0002:00025aa0       ??_C@_0BC@JJEMEICE@cuMemcpyDtoDAsync?$AA@ 00000001800ffaa0     cuda:cuda_driverloader_generated_cuda_driverloader_cuda.obj
 0002:00025ab8       ??_C@_0BC@NBEIIHAN@cuMemcpyHtoAAsync?$AA@ 00000001800ffab8     cuda:cuda_driverloader_generated_cuda_driverloader_cuda.obj
 0002:00025ad0       ??_C@_0BC@LIMFOJBE@cuMemcpyAtoHAsync?$AA@ 00000001800ffad0     cuda:cuda_driverloader_generated_cuda_driverloader_cuda.obj
 0002:00025ae8       ??_C@_0BA@BBHPBNDC@cuMemcpy2DAsync?$AA@ 00000001800ffae8     cuda:cuda_driverloader_generated_cuda_driverloader_cuda.obj
 0002:00025b00       ??_C@_0BA@NNNFBNKM@cuMemcpy3DAsync?$AA@ 00000001800ffb00     cuda:cuda_driverloader_generated_cuda_driverloader_cuda.obj
 0002:00025b18       ??_C@_0BE@GFAKAFCE@cuMemcpy3DPeerAsync?$AA@ 00000001800ffb18     cuda:cuda_driverloader_generated_cuda_driverloader_cuda.obj
 0002:00025b30       ??_C@_0BD@BKGPJJMM@cuMemcpyBatchAsync?$AA@ 00000001800ffb30     cuda:cuda_driverloader_generated_cuda_driverloader_cuda.obj
 0002:00025b48       ??_C@_0BF@BKFMFCHK@cuMemcpy3DBatchAsync?$AA@ 00000001800ffb48     cuda:cuda_driverloader_generated_cuda_driverloader_cuda.obj
 0002:00025b68       ??_C@_0L@EIKMLOCC@cuMemsetD8?$AA@ 00000001800ffb68     cuda:cuda_driverloader_generated_cuda_driverloader_cuda.obj
 0002:00025b78       ??_C@_0M@FDOFEHKA@cuMemsetD16?$AA@ 00000001800ffb78     cuda:cuda_driverloader_generated_cuda_driverloader_cuda.obj
 0002:00025b88       ??_C@_0M@DEANFGMK@cuMemsetD32?$AA@ 00000001800ffb88     cuda:cuda_driverloader_generated_cuda_driverloader_cuda.obj
 0002:00025b98       ??_C@_0N@IENKOJIE@cuMemsetD2D8?$AA@ 00000001800ffb98     cuda:cuda_driverloader_generated_cuda_driverloader_cuda.obj
 0002:00025ba8       ??_C@_0O@GMJMDHCK@cuMemsetD2D16?$AA@ 00000001800ffba8     cuda:cuda_driverloader_generated_cuda_driverloader_cuda.obj
 0002:00025bb8       ??_C@_0O@LHECGEA@cuMemsetD2D32?$AA@ 00000001800ffbb8     cuda:cuda_driverloader_generated_cuda_driverloader_cuda.obj
 0002:00025bc8       ??_C@_0BA@MOLGFGEK@cuMemsetD8Async?$AA@ 00000001800ffbc8     cuda:cuda_driverloader_generated_cuda_driverloader_cuda.obj
 0002:00025be0       ??_C@_0BB@CIIDJBEA@cuMemsetD16Async?$AA@ 00000001800ffbe0     cuda:cuda_driverloader_generated_cuda_driverloader_cuda.obj
 0002:00025bf8       ??_C@_0BB@JOOJLCCO@cuMemsetD32Async?$AA@ 00000001800ffbf8     cuda:cuda_driverloader_generated_cuda_driverloader_cuda.obj
 0002:00025c10       ??_C@_0BC@FADIIHMH@cuMemsetD2D8Async?$AA@ 00000001800ffc10     cuda:cuda_driverloader_generated_cuda_driverloader_cuda.obj
 0002:00025c28       ??_C@_0BD@LLBEOAAM@cuMemsetD2D16Async?$AA@ 00000001800ffc28     cuda:cuda_driverloader_generated_cuda_driverloader_cuda.obj
 0002:00025c40       ??_C@_0BD@NHOMDGC@cuMemsetD2D32Async?$AA@ 00000001800ffc40     cuda:cuda_driverloader_generated_cuda_driverloader_cuda.obj
 0002:00025c58       ??_C@_0O@NECDENBC@cuArrayCreate?$AA@ 00000001800ffc58     cuda:cuda_driverloader_generated_cuda_driverloader_cuda.obj
 0002:00025c68       ??_C@_0BF@ICKNOLFI@cuArrayGetDescriptor?$AA@ 00000001800ffc68     cuda:cuda_driverloader_generated_cuda_driverloader_cuda.obj
 0002:00025c88       ??_C@_0BL@NAKAPJAB@cuArrayGetSparseProperties?$AA@ 00000001800ffc88     cuda:cuda_driverloader_generated_cuda_driverloader_cuda.obj
 0002:00025ca8       ??_C@_0CE@OLDACCHL@cuMipmappedArrayGetSparsePropert@ 00000001800ffca8     cuda:cuda_driverloader_generated_cuda_driverloader_cuda.obj
 0002:00025cd8       ??_C@_0BN@FEDFAPDH@cuArrayGetMemoryRequirements?$AA@ 00000001800ffcd8     cuda:cuda_driverloader_generated_cuda_driverloader_cuda.obj
 0002:00025d00       ??_C@_0CG@JAOEKOIH@cuMipmappedArrayGetMemoryRequire@ 00000001800ffd00     cuda:cuda_driverloader_generated_cuda_driverloader_cuda.obj
 0002:00025d30       ??_C@_0BA@NALFIBEN@cuArrayGetPlane?$AA@ 00000001800ffd30     cuda:cuda_driverloader_generated_cuda_driverloader_cuda.obj
 0002:00025d48       ??_C@_0P@PAFPBIJN@cuArrayDestroy?$AA@ 00000001800ffd48     cuda:cuda_driverloader_generated_cuda_driverloader_cuda.obj
 0002:00025d60       ??_C@_0BA@HDCHAKGK@cuArray3DCreate?$AA@ 00000001800ffd60     cuda:cuda_driverloader_generated_cuda_driverloader_cuda.obj
 0002:00025d78       ??_C@_0BH@GKELMILM@cuArray3DGetDescriptor?$AA@ 00000001800ffd78     cuda:cuda_driverloader_generated_cuda_driverloader_cuda.obj
 0002:00025d98       ??_C@_0BH@PNFBIJFG@cuMipmappedArrayCreate?$AA@ 00000001800ffd98     cuda:cuda_driverloader_generated_cuda_driverloader_cuda.obj
 0002:00025db8       ??_C@_0BJ@LBPELPII@cuMipmappedArrayGetLevel?$AA@ 00000001800ffdb8     cuda:cuda_driverloader_generated_cuda_driverloader_cuda.obj
 0002:00025dd8       ??_C@_0BI@IBMHOPNA@cuMipmappedArrayDestroy?$AA@ 00000001800ffdd8     cuda:cuda_driverloader_generated_cuda_driverloader_cuda.obj
 0002:00025df8       ??_C@_0BO@EKBBJBGF@cuMemGetHandleForAddressRange?$AA@ 00000001800ffdf8     cuda:cuda_driverloader_generated_cuda_driverloader_cuda.obj
 0002:00025e20       ??_C@_0BK@OGABBCHM@cuMemBatchDecompressAsync?$AA@ 00000001800ffe20     cuda:cuda_driverloader_generated_cuda_driverloader_cuda.obj
 0002:00025e40       ??_C@_0BE@EGBFDJLH@cuMemAddressReserve?$AA@ 00000001800ffe40     cuda:cuda_driverloader_generated_cuda_driverloader_cuda.obj
 0002:00025e58       ??_C@_0BB@BLICHHP@cuMemAddressFree?$AA@ 00000001800ffe58     cuda:cuda_driverloader_generated_cuda_driverloader_cuda.obj
 0002:00025e70       ??_C@_0M@MIPOHAFD@cuMemCreate?$AA@ 00000001800ffe70     cuda:cuda_driverloader_generated_cuda_driverloader_cuda.obj
 0002:00025e80       ??_C@_0N@FFKLHNEO@cuMemRelease?$AA@ 00000001800ffe80     cuda:cuda_driverloader_generated_cuda_driverloader_cuda.obj
 0002:00025e90       ??_C@_08ILLLKIGJ@cuMemMap?$AA@ 00000001800ffe90     cuda:cuda_driverloader_generated_cuda_driverloader_cuda.obj
 0002:00025ea0       ??_C@_0BD@ENEFEEDN@cuMemMapArrayAsync?$AA@ 00000001800ffea0     cuda:cuda_driverloader_generated_cuda_driverloader_cuda.obj
 0002:00025eb8       ??_C@_0L@MFLODAAL@cuMemUnmap?$AA@ 00000001800ffeb8     cuda:cuda_driverloader_generated_cuda_driverloader_cuda.obj
 0002:00025ec8       ??_C@_0P@EEKNKMDL@cuMemSetAccess?$AA@ 00000001800ffec8     cuda:cuda_driverloader_generated_cuda_driverloader_cuda.obj
 0002:00025ee0       ??_C@_0P@GKOIINKJ@cuMemGetAccess?$AA@ 00000001800ffee0     cuda:cuda_driverloader_generated_cuda_driverloader_cuda.obj
 0002:00025ef8       ??_C@_0BN@JKOFABEA@cuMemExportToShareableHandle?$AA@ 00000001800ffef8     cuda:cuda_driverloader_generated_cuda_driverloader_cuda.obj
 0002:00025f20       ??_C@_0BP@EPJJAFHJ@cuMemImportFromShareableHandle?$AA@ 00000001800fff20     cuda:cuda_driverloader_generated_cuda_driverloader_cuda.obj
 0002:00025f48       ??_C@_0BO@EIFGPDPO@cuMemGetAllocationGranularity?$AA@ 00000001800fff48     cuda:cuda_driverloader_generated_cuda_driverloader_cuda.obj
 0002:00025f70       ??_C@_0CH@JCMAEGLI@cuMemGetAllocationPropertiesFrom@ 00000001800fff70     cuda:cuda_driverloader_generated_cuda_driverloader_cuda.obj
 0002:00025fa0       ??_C@_0BM@JKDBDJKD@cuMemRetainAllocationHandle?$AA@ 00000001800fffa0     cuda:cuda_driverloader_generated_cuda_driverloader_cuda.obj
 0002:00025fc8       ??_C@_0P@KIBPBMPP@cuMemFreeAsync?$AA@ 00000001800fffc8     cuda:cuda_driverloader_generated_cuda_driverloader_cuda.obj
 0002:00025fe0       ??_C@_0BA@NAHDKMHJ@cuMemAllocAsync?$AA@ 00000001800fffe0     cuda:cuda_driverloader_generated_cuda_driverloader_cuda.obj
 0002:00025ff8       ??_C@_0BA@HMHGLJCJ@cuMemPoolTrimTo?$AA@ 00000001800ffff8     cuda:cuda_driverloader_generated_cuda_driverloader_cuda.obj
 0002:00026010       ??_C@_0BG@BIHGCDPF@cuMemPoolSetAttribute?$AA@ 0000000180100010     cuda:cuda_driverloader_generated_cuda_driverloader_cuda.obj
 0002:00026030       ??_C@_0BG@GMMIOPLJ@cuMemPoolGetAttribute?$AA@ 0000000180100030     cuda:cuda_driverloader_generated_cuda_driverloader_cuda.obj
 0002:00026050       ??_C@_0BD@PMPBNOCB@cuMemPoolSetAccess?$AA@ 0000000180100050     cuda:cuda_driverloader_generated_cuda_driverloader_cuda.obj
 0002:00026068       ??_C@_0BD@NCLEPPLD@cuMemPoolGetAccess?$AA@ 0000000180100068     cuda:cuda_driverloader_generated_cuda_driverloader_cuda.obj
 0002:00026080       ??_C@_0BA@JDILOHLK@cuMemPoolCreate?$AA@ 0000000180100080     cuda:cuda_driverloader_generated_cuda_driverloader_cuda.obj
 0002:00026098       ??_C@_0BB@CIBFJLON@cuMemPoolDestroy?$AA@ 0000000180100098     cuda:cuda_driverloader_generated_cuda_driverloader_cuda.obj
 0002:000260b0       ??_C@_0BH@DNIMFGOK@cuMemGetDefaultMemPool?$AA@ 00000001801000b0     cuda:cuda_driverloader_generated_cuda_driverloader_cuda.obj
 0002:000260d0       ??_C@_0BA@OGPBDKK@cuMemGetMemPool?$AA@ 00000001801000d0     cuda:cuda_driverloader_generated_cuda_driverloader_cuda.obj
 0002:000260e8       ??_C@_0BA@BAEAKEOD@cuMemSetMemPool?$AA@ 00000001801000e8     cuda:cuda_driverloader_generated_cuda_driverloader_cuda.obj
 0002:00026100       ??_C@_0BI@NANAPPIJ@cuMemAllocFromPoolAsync?$AA@ 0000000180100100     cuda:cuda_driverloader_generated_cuda_driverloader_cuda.obj
 0002:00026120       ??_C@_0CB@CIPBKGDD@cuMemPoolExportToShareableHandle@ 0000000180100120     cuda:cuda_driverloader_generated_cuda_driverloader_cuda.obj
 0002:00026148       ??_C@_0CD@DDJKLBD@cuMemPoolImportFromShareableHand@ 0000000180100148     cuda:cuda_driverloader_generated_cuda_driverloader_cuda.obj
 0002:00026178       ??_C@_0BH@MCBLDDBC@cuMemPoolExportPointer?$AA@ 0000000180100178     cuda:cuda_driverloader_generated_cuda_driverloader_cuda.obj
 0002:00026198       ??_C@_0BH@EBMGLHPG@cuMemPoolImportPointer?$AA@ 0000000180100198     cuda:cuda_driverloader_generated_cuda_driverloader_cuda.obj
 0002:000261b8       ??_C@_0BC@MCNGICGC@cuMulticastCreate?$AA@ 00000001801001b8     cuda:cuda_driverloader_generated_cuda_driverloader_cuda.obj
 0002:000261d0       ??_C@_0BF@FMKJABLJ@cuMulticastAddDevice?$AA@ 00000001801001d0     cuda:cuda_driverloader_generated_cuda_driverloader_cuda.obj
 0002:000261f0       ??_C@_0BD@PFFKMDCO@cuMulticastBindMem?$AA@ 00000001801001f0     cuda:cuda_driverloader_generated_cuda_driverloader_cuda.obj
 0002:00026208       ??_C@_0BE@LDLHPNJD@cuMulticastBindAddr?$AA@ 0000000180100208     cuda:cuda_driverloader_generated_cuda_driverloader_cuda.obj
 0002:00026220       ??_C@_0BC@MNPCAKGO@cuMulticastUnbind?$AA@ 0000000180100220     cuda:cuda_driverloader_generated_cuda_driverloader_cuda.obj
 0002:00026238       ??_C@_0BK@LLKDLGJM@cuMulticastGetGranularity?$AA@ 0000000180100238     cuda:cuda_driverloader_generated_cuda_driverloader_cuda.obj
 0002:00026258       ??_C@_0BG@ECOONMIL@cuPointerGetAttribute?$AA@ 0000000180100258     cuda:cuda_driverloader_generated_cuda_driverloader_cuda.obj
 0002:00026278       ??_C@_0BD@JLDILBLK@cuMemPrefetchAsync?$AA@ 0000000180100278     cuda:cuda_driverloader_generated_cuda_driverloader_cuda.obj
 0002:00026290       ??_C@_0M@GNFFFDME@cuMemAdvise?$AA@ 0000000180100290     cuda:cuda_driverloader_generated_cuda_driverloader_cuda.obj
 0002:000262a0       ??_C@_0BI@PFFIDNJF@cuMemPrefetchBatchAsync?$AA@ 00000001801002a0     cuda:cuda_driverloader_generated_cuda_driverloader_cuda.obj
 0002:000262c0       ??_C@_0BH@CFDNDEMG@cuMemDiscardBatchAsync?$AA@ 00000001801002c0     cuda:cuda_driverloader_generated_cuda_driverloader_cuda.obj
 0002:000262e0       ??_C@_0CC@LIMDOCFH@cuMemDiscardAndPrefetchBatchAsyn@ 00000001801002e0     cuda:cuda_driverloader_generated_cuda_driverloader_cuda.obj
 0002:00026308       ??_C@_0BH@JPKMGBOF@cuMemRangeGetAttribute?$AA@ 0000000180100308     cuda:cuda_driverloader_generated_cuda_driverloader_cuda.obj
 0002:00026328       ??_C@_0BI@NEONJAKD@cuMemRangeGetAttributes?$AA@ 0000000180100328     cuda:cuda_driverloader_generated_cuda_driverloader_cuda.obj
 0002:00026348       ??_C@_0BG@DGFABAMH@cuPointerSetAttribute?$AA@ 0000000180100348     cuda:cuda_driverloader_generated_cuda_driverloader_cuda.obj
 0002:00026368       ??_C@_0BH@HODKJOEB@cuPointerGetAttributes?$AA@ 0000000180100368     cuda:cuda_driverloader_generated_cuda_driverloader_cuda.obj
 0002:00026388       ??_C@_0P@LNOKBPAO@cuStreamCreate?$AA@ 0000000180100388     cuda:cuda_driverloader_generated_cuda_driverloader_cuda.obj
 0002:000263a0       ??_C@_0BL@BDIPDBBD@cuStreamCreateWithPriority?$AA@ 00000001801003a0     cuda:cuda_driverloader_generated_cuda_driverloader_cuda.obj
 0002:000263c0       ??_C@_0BE@KHONHPDC@cuStreamGetPriority?$AA@ 00000001801003c0     cuda:cuda_driverloader_generated_cuda_driverloader_cuda.obj
 0002:000263d8       ??_C@_0BC@JADKOOHN@cuStreamGetDevice?$AA@ 00000001801003d8     cuda:cuda_driverloader_generated_cuda_driverloader_cuda.obj
 0002:000263f0       ??_C@_0BB@HFGBOKNP@cuStreamGetFlags?$AA@ 00000001801003f0     cuda:cuda_driverloader_generated_cuda_driverloader_cuda.obj
 0002:00026408       ??_C@_0O@LHFNLLFA@cuStreamGetId?$AA@ 0000000180100408     cuda:cuda_driverloader_generated_cuda_driverloader_cuda.obj
 0002:00026418       ??_C@_0P@PPKBLMKF@cuStreamGetCtx?$AA@ 0000000180100418     cuda:cuda_driverloader_generated_cuda_driverloader_cuda.obj
 0002:00026430       ??_C@_0BC@LDNOLFPM@cuStreamWaitEvent?$AA@ 0000000180100430     cuda:cuda_driverloader_generated_cuda_driverloader_cuda.obj
 0002:00026448       ??_C@_0BE@NJOMOLME@cuStreamAddCallback?$AA@ 0000000180100448     cuda:cuda_driverloader_generated_cuda_driverloader_cuda.obj
 0002:00026460       ??_C@_0BF@HNALFFCM@cuStreamBeginCapture?$AA@ 0000000180100460     cuda:cuda_driverloader_generated_cuda_driverloader_cuda.obj
 0002:00026480       ??_C@_0BM@PNEJNCCO@cuStreamBeginCaptureToGraph?$AA@ 0000000180100480     cuda:cuda_driverloader_generated_cuda_driverloader_cuda.obj
 0002:000264a8       ??_C@_0CC@OMFFMJKO@cuThreadExchangeStreamCaptureMod@ 00000001801004a8     cuda:cuda_driverloader_generated_cuda_driverloader_cuda.obj
 0002:000264d0       ??_C@_0BD@OGFKIIFI@cuStreamEndCapture?$AA@ 00000001801004d0     cuda:cuda_driverloader_generated_cuda_driverloader_cuda.obj
 0002:000264e8       ??_C@_0BE@JIGLCNID@cuStreamIsCapturing?$AA@ 00000001801004e8     cuda:cuda_driverloader_generated_cuda_driverloader_cuda.obj
 0002:00026500       ??_C@_0BH@JLDOMJLC@cuStreamGetCaptureInfo?$AA@ 0000000180100500     cuda:cuda_driverloader_generated_cuda_driverloader_cuda.obj
 0002:00026520       ??_C@_0CC@JBBPPOIJ@cuStreamUpdateCaptureDependencie@ 0000000180100520     cuda:cuda_driverloader_generated_cuda_driverloader_cuda.obj
 0002:00026548       ??_C@_0BH@KNBNMAPA@cuStreamAttachMemAsync?$AA@ 0000000180100548     cuda:cuda_driverloader_generated_cuda_driverloader_cuda.obj
 0002:00026568       ??_C@_0O@DNMFJLMD@cuStreamQuery?$AA@ 0000000180100568     cuda:cuda_driverloader_generated_cuda_driverloader_cuda.obj
 0002:00026578       ??_C@_0BE@OKHEPNII@cuStreamSynchronize?$AA@ 0000000180100578     cuda:cuda_driverloader_generated_cuda_driverloader_cuda.obj
 0002:00026590       ??_C@_0BA@OEDHINIA@cuStreamDestroy?$AA@ 0000000180100590     cuda:cuda_driverloader_generated_cuda_driverloader_cuda.obj
 0002:000265a8       ??_C@_0BH@LPPIBNPJ@cuStreamCopyAttributes?$AA@ 00000001801005a8     cuda:cuda_driverloader_generated_cuda_driverloader_cuda.obj
 0002:000265c8       ??_C@_0BF@CEJOFOMK@cuStreamGetAttribute?$AA@ 00000001801005c8     cuda:cuda_driverloader_generated_cuda_driverloader_cuda.obj
 0002:000265e8       ??_C@_0BF@FACAJCIG@cuStreamSetAttribute?$AA@ 00000001801005e8     cuda:cuda_driverloader_generated_cuda_driverloader_cuda.obj
 0002:00026608       ??_C@_0O@OGDCEFHO@cuEventCreate?$AA@ 0000000180100608     cuda:cuda_driverloader_generated_cuda_driverloader_cuda.obj
 0002:00026618       ??_C@_0O@ELEBCPEH@cuEventRecord?$AA@ 0000000180100618     cuda:cuda_driverloader_generated_cuda_driverloader_cuda.obj
 0002:00026628       ??_C@_0BH@GJNOLJLL@cuEventRecordWithFlags?$AA@ 0000000180100628     cuda:cuda_driverloader_generated_cuda_driverloader_cuda.obj
 0002:00026648       ??_C@_0N@DLDBPGHM@cuEventQuery?$AA@ 0000000180100648     cuda:cuda_driverloader_generated_cuda_driverloader_cuda.obj
 0002:00026658       ??_C@_0BD@GNMDBCJG@cuEventSynchronize?$AA@ 0000000180100658     cuda:cuda_driverloader_generated_cuda_driverloader_cuda.obj
 0002:00026670       ??_C@_0P@LEGJCEOG@cuEventDestroy?$AA@ 0000000180100670     cuda:cuda_driverloader_generated_cuda_driverloader_cuda.obj
 0002:00026688       ??_C@_0BD@COJGHNBG@cuEventElapsedTime?$AA@ 0000000180100688     cuda:cuda_driverloader_generated_cuda_driverloader_cuda.obj
 0002:000266a0       ??_C@_0BH@MAEDJMDD@cuImportExternalMemory?$AA@ 00000001801006a0     cuda:cuda_driverloader_generated_cuda_driverloader_cuda.obj
 0002:000266c0       ??_C@_0CA@HAJENFBF@cuExternalMemoryGetMappedBuffer?$AA@ 00000001801006c0     cuda:cuda_driverloader_generated_cuda_driverloader_cuda.obj
 0002:000266e8       ??_C@_0CI@FNIPNDHI@cuExternalMemoryGetMappedMipmapp@ 00000001801006e8     cuda:cuda_driverloader_generated_cuda_driverloader_cuda.obj
 0002:00026718       ??_C@_0BI@CKPGLJLE@cuDestroyExternalMemory?$AA@ 0000000180100718     cuda:cuda_driverloader_generated_cuda_driverloader_cuda.obj
 0002:00026738       ??_C@_0BK@EBKGJPID@cuImportExternalSemaphore?$AA@ 0000000180100738     cuda:cuda_driverloader_generated_cuda_driverloader_cuda.obj
 0002:00026758       ??_C@_0CA@FFIEHCPI@cuSignalExternalSemaphoresAsync?$AA@ 0000000180100758     cuda:cuda_driverloader_generated_cuda_driverloader_cuda.obj
 0002:00026780       ??_C@_0BO@OLBMIAGG@cuWaitExternalSemaphoresAsync?$AA@ 0000000180100780     cuda:cuda_driverloader_generated_cuda_driverloader_cuda.obj
 0002:000267a8       ??_C@_0BL@PGCEAFII@cuDestroyExternalSemaphore?$AA@ 00000001801007a8     cuda:cuda_driverloader_generated_cuda_driverloader_cuda.obj
 0002:000267c8       ??_C@_0BE@EAIIAGPN@cuStreamWaitValue32?$AA@ 00000001801007c8     cuda:cuda_driverloader_generated_cuda_driverloader_cuda.obj
 0002:000267e0       ??_C@_0BE@BABJGDJA@cuStreamWaitValue64?$AA@ 00000001801007e0     cuda:cuda_driverloader_generated_cuda_driverloader_cuda.obj
 0002:000267f8       ??_C@_0BF@HEEFEPB@cuStreamWriteValue32?$AA@ 00000001801007f8     cuda:cuda_driverloader_generated_cuda_driverloader_cuda.obj
 0002:00026818       ??_C@_0BF@FHNFDBJM@cuStreamWriteValue64?$AA@ 0000000180100818     cuda:cuda_driverloader_generated_cuda_driverloader_cuda.obj
 0002:00026838       ??_C@_0BD@JFILOGEE@cuStreamBatchMemOp?$AA@ 0000000180100838     cuda:cuda_driverloader_generated_cuda_driverloader_cuda.obj
 0002:00026850       ??_C@_0BD@KKLHOMPH@cuFuncGetAttribute?$AA@ 0000000180100850     cuda:cuda_driverloader_generated_cuda_driverloader_cuda.obj
 0002:00026868       ??_C@_0BD@NOAJCALL@cuFuncSetAttribute?$AA@ 0000000180100868     cuda:cuda_driverloader_generated_cuda_driverloader_cuda.obj
 0002:00026880       ??_C@_0BF@DKCOAGEC@cuFuncSetCacheConfig?$AA@ 0000000180100880     cuda:cuda_driverloader_generated_cuda_driverloader_cuda.obj
 0002:000268a0       ??_C@_0BA@NHABBHOM@cuFuncGetModule?$AA@ 00000001801008a0     cuda:cuda_driverloader_generated_cuda_driverloader_cuda.obj
 0002:000268b8       ??_C@_0O@NFHBNAOA@cuFuncGetName?$AA@ 00000001801008b8     cuda:cuda_driverloader_generated_cuda_driverloader_cuda.obj
 0002:000268c8       ??_C@_0BD@FLAAJNMC@cuFuncGetParamInfo?$AA@ 00000001801008c8     cuda:cuda_driverloader_generated_cuda_driverloader_cuda.obj
 0002:000268e0       ??_C@_0P@PJCMKMBJ@cuFuncIsLoaded?$AA@ 00000001801008e0     cuda:cuda_driverloader_generated_cuda_driverloader_cuda.obj
 0002:000268f8       ??_C@_0L@OHDNACGK@cuFuncLoad?$AA@ 00000001801008f8     cuda:cuda_driverloader_generated_cuda_driverloader_cuda.obj
 0002:00026908       ??_C@_0P@GGFCGLBF@cuLaunchKernel?$AA@ 0000000180100908     cuda:cuda_driverloader_generated_cuda_driverloader_cuda.obj
 0002:00026920       ??_C@_0BB@HMGCIEED@cuLaunchKernelEx?$AA@ 0000000180100920     cuda:cuda_driverloader_generated_cuda_driverloader_cuda.obj
 0002:00026938       ??_C@_0BK@JLKAOMLJ@cuLaunchCooperativeKernel?$AA@ 0000000180100938     cuda:cuda_driverloader_generated_cuda_driverloader_cuda.obj
 0002:00026958       ??_C@_0CF@JNAFIKFE@cuLaunchCooperativeKernelMultiDe@ 0000000180100958     cuda:cuda_driverloader_generated_cuda_driverloader_cuda.obj
 0002:00026988       ??_C@_0BB@OGELKBFN@cuLaunchHostFunc?$AA@ 0000000180100988     cuda:cuda_driverloader_generated_cuda_driverloader_cuda.obj
 0002:000269a0       ??_C@_0BE@MKBLOGOG@cuFuncSetBlockShape?$AA@ 00000001801009a0     cuda:cuda_driverloader_generated_cuda_driverloader_cuda.obj
 0002:000269b8       ??_C@_0BE@IDMJNPFG@cuFuncSetSharedSize?$AA@ 00000001801009b8     cuda:cuda_driverloader_generated_cuda_driverloader_cuda.obj
 0002:000269d0       ??_C@_0P@HAHMFMHF@cuParamSetSize?$AA@ 00000001801009d0     cuda:cuda_driverloader_generated_cuda_driverloader_cuda.obj
 0002:000269e8       ??_C@_0M@EFMNAFAG@cuParamSeti?$AA@ 00000001801009e8     cuda:cuda_driverloader_generated_cuda_driverloader_cuda.obj
 0002:000269f8       ??_C@_0M@MCFFBJMJ@cuParamSetf?$AA@ 00000001801009f8     cuda:cuda_driverloader_generated_cuda_driverloader_cuda.obj
 0002:00026a08       ??_C@_0M@IIJHALJI@cuParamSetv?$AA@ 0000000180100a08     cuda:cuda_driverloader_generated_cuda_driverloader_cuda.obj
 0002:00026a18       ??_C@_08NFNFHBGP@cuLaunch?$AA@ 0000000180100a18     cuda:cuda_driverloader_generated_cuda_driverloader_cuda.obj
 0002:00026a28       ??_C@_0N@FBPCEAHB@cuLaunchGrid?$AA@ 0000000180100a28     cuda:cuda_driverloader_generated_cuda_driverloader_cuda.obj
 0002:00026a38       ??_C@_0BC@CKJOCIGH@cuLaunchGridAsync?$AA@ 0000000180100a38     cuda:cuda_driverloader_generated_cuda_driverloader_cuda.obj
 0002:00026a50       ??_C@_0BB@OIHHEIHH@cuParamSetTexRef?$AA@ 0000000180100a50     cuda:cuda_driverloader_generated_cuda_driverloader_cuda.obj
 0002:00026a68       ??_C@_0BJ@OOKDFCIL@cuFuncSetSharedMemConfig?$AA@ 0000000180100a68     cuda:cuda_driverloader_generated_cuda_driverloader_cuda.obj
 0002:00026a88       ??_C@_0O@PMCNLFJO@cuGraphCreate?$AA@ 0000000180100a88     cuda:cuda_driverloader_generated_cuda_driverloader_cuda.obj
 0002:00026a98       ??_C@_0BF@LKMNMNHM@cuGraphAddKernelNode?$AA@ 0000000180100a98     cuda:cuda_driverloader_generated_cuda_driverloader_cuda.obj
 0002:00026ab8       ??_C@_0BL@PJDNFHPM@cuGraphKernelNodeGetParams?$AA@ 0000000180100ab8     cuda:cuda_driverloader_generated_cuda_driverloader_cuda.obj
 0002:00026ad8       ??_C@_0BL@NHHIHGGO@cuGraphKernelNodeSetParams?$AA@ 0000000180100ad8     cuda:cuda_driverloader_generated_cuda_driverloader_cuda.obj
 0002:00026af8       ??_C@_0BF@NMPJLPAP@cuGraphAddMemcpyNode?$AA@ 0000000180100af8     cuda:cuda_driverloader_generated_cuda_driverloader_cuda.obj
 0002:00026b18       ??_C@_0BL@FMOHFDAH@cuGraphMemcpyNodeGetParams?$AA@ 0000000180100b18     cuda:cuda_driverloader_generated_cuda_driverloader_cuda.obj
 0002:00026b38       ??_C@_0BL@HCKCHCJF@cuGraphMemcpyNodeSetParams?$AA@ 0000000180100b38     cuda:cuda_driverloader_generated_cuda_driverloader_cuda.obj
 0002:00026b58       ??_C@_0BF@CJDKCOJD@cuGraphAddMemsetNode?$AA@ 0000000180100b58     cuda:cuda_driverloader_generated_cuda_driverloader_cuda.obj
 0002:00026b78       ??_C@_0BL@CLMGFLPO@cuGraphMemsetNodeGetParams?$AA@ 0000000180100b78     cuda:cuda_driverloader_generated_cuda_driverloader_cuda.obj
 0002:00026b98       ??_C@_0BL@FIDHKGM@cuGraphMemsetNodeSetParams?$AA@ 0000000180100b98     cuda:cuda_driverloader_generated_cuda_driverloader_cuda.obj
 0002:00026bb8       ??_C@_0BD@MBFAKFDH@cuGraphAddHostNode?$AA@ 0000000180100bb8     cuda:cuda_driverloader_generated_cuda_driverloader_cuda.obj
 0002:00026bd0       ??_C@_0BJ@KNKGHHPK@cuGraphHostNodeGetParams?$AA@ 0000000180100bd0     cuda:cuda_driverloader_generated_cuda_driverloader_cuda.obj
 0002:00026bf0       ??_C@_0BJ@IDODFGGI@cuGraphHostNodeSetParams?$AA@ 0000000180100bf0     cuda:cuda_driverloader_generated_cuda_driverloader_cuda.obj
 0002:00026c10       ??_C@_0BJ@HNJJICOP@cuGraphAddChildGraphNode?$AA@ 0000000180100c10     cuda:cuda_driverloader_generated_cuda_driverloader_cuda.obj
 0002:00026c30       ??_C@_0BO@KAODINOF@cuGraphChildGraphNodeGetGraph?$AA@ 0000000180100c30     cuda:cuda_driverloader_generated_cuda_driverloader_cuda.obj
 0002:00026c58       ??_C@_0BE@MGGMBCAK@cuGraphAddEmptyNode?$AA@ 0000000180100c58     cuda:cuda_driverloader_generated_cuda_driverloader_cuda.obj
 0002:00026c70       ??_C@_0BK@EKDGCJIG@cuGraphAddEventRecordNode?$AA@ 0000000180100c70     cuda:cuda_driverloader_generated_cuda_driverloader_cuda.obj
 0002:00026c90       ??_C@_0BP@PMPBGDLB@cuGraphEventRecordNodeGetEvent?$AA@ 0000000180100c90     cuda:cuda_driverloader_generated_cuda_driverloader_cuda.obj
 0002:00026cb8       ??_C@_0BP@NNNHAMM@cuGraphEventRecordNodeSetEvent?$AA@ 0000000180100cb8     cuda:cuda_driverloader_generated_cuda_driverloader_cuda.obj
 0002:00026ce0       ??_C@_0BI@NKOEOLLL@cuGraphAddEventWaitNode?$AA@ 0000000180100ce0     cuda:cuda_driverloader_generated_cuda_driverloader_cuda.obj
 0002:00026d00       ??_C@_0BN@LMOOBIEJ@cuGraphEventWaitNodeGetEvent?$AA@ 0000000180100d00     cuda:cuda_driverloader_generated_cuda_driverloader_cuda.obj
 0002:00026d28       ??_C@_0BN@ENMCALDE@cuGraphEventWaitNodeSetEvent?$AA@ 0000000180100d28     cuda:cuda_driverloader_generated_cuda_driverloader_cuda.obj
 0002:00026d50       ??_C@_0CH@KLKOCNMF@cuGraphAddExternalSemaphoresSign@ 0000000180100d50     cuda:cuda_driverloader_generated_cuda_driverloader_cuda.obj
 0002:00026d80       ??_C@_0CN@JHEOEPAA@cuGraphExternalSemaphoresSignalN@ 0000000180100d80     cuda:cuda_driverloader_generated_cuda_driverloader_cuda.obj
 0002:00026db8       ??_C@_0CN@LJALGOJC@cuGraphExternalSemaphoresSignalN@ 0000000180100db8     cuda:cuda_driverloader_generated_cuda_driverloader_cuda.obj
 0002:00026df0       ??_C@_0CF@NCCEBNPG@cuGraphAddExternalSemaphoresWait@ 0000000180100df0     cuda:cuda_driverloader_generated_cuda_driverloader_cuda.obj
 0002:00026e20       ??_C@_0CL@KGKOOFKP@cuGraphExternalSemaphoresWaitNod@ 0000000180100e20     cuda:cuda_driverloader_generated_cuda_driverloader_cuda.obj
 0002:00026e58       ??_C@_0CL@IIOLMEDN@cuGraphExternalSemaphoresWaitNod@ 0000000180100e58     cuda:cuda_driverloader_generated_cuda_driverloader_cuda.obj
 0002:00026e90       ??_C@_0BJ@NIBDJCCG@cuGraphAddBatchMemOpNode?$AA@ 0000000180100e90     cuda:cuda_driverloader_generated_cuda_driverloader_cuda.obj
 0002:00026eb0       ??_C@_0BP@DHKPKDKA@cuGraphBatchMemOpNodeGetParams?$AA@ 0000000180100eb0     cuda:cuda_driverloader_generated_cuda_driverloader_cuda.obj
 0002:00026ed8       ??_C@_0BP@BJOKICDC@cuGraphBatchMemOpNodeSetParams?$AA@ 0000000180100ed8     cuda:cuda_driverloader_generated_cuda_driverloader_cuda.obj
 0002:00026f00       ??_C@_0CD@DKNLDHP@cuGraphExecBatchMemOpNodeSetPara@ 0000000180100f00     cuda:cuda_driverloader_generated_cuda_driverloader_cuda.obj
 0002:00026f30       ??_C@_0BH@EENBOKGA@cuGraphAddMemAllocNode?$AA@ 0000000180100f30     cuda:cuda_driverloader_generated_cuda_driverloader_cuda.obj
 0002:00026f50       ??_C@_0BN@FPBBCCFA@cuGraphMemAllocNodeGetParams?$AA@ 0000000180100f50     cuda:cuda_driverloader_generated_cuda_driverloader_cuda.obj
 0002:00026f78       ??_C@_0BG@OFNNFDJA@cuGraphAddMemFreeNode?$AA@ 0000000180100f78     cuda:cuda_driverloader_generated_cuda_driverloader_cuda.obj
 0002:00026f98       ??_C@_0BM@GPDONDKH@cuGraphMemFreeNodeGetParams?$AA@ 0000000180100f98     cuda:cuda_driverloader_generated_cuda_driverloader_cuda.obj
 0002:00026fc0       ??_C@_0BF@FFPJAMPP@cuDeviceGraphMemTrim?$AA@ 0000000180100fc0     cuda:cuda_driverloader_generated_cuda_driverloader_cuda.obj
 0002:00026fe0       ??_C@_0BN@HALABBNJ@cuDeviceGetGraphMemAttribute?$AA@ 0000000180100fe0     cuda:cuda_driverloader_generated_cuda_driverloader_cuda.obj
 0002:00027008       ??_C@_0BN@CJKNAHIO@cuDeviceSetGraphMemAttribute?$AA@ 0000000180101008     cuda:cuda_driverloader_generated_cuda_driverloader_cuda.obj
 0002:00027030       ??_C@_0N@EBANNKCG@cuGraphClone?$AA@ 0000000180101030     cuda:cuda_driverloader_generated_cuda_driverloader_cuda.obj
 0002:00027040       ??_C@_0BH@IBJBKIPB@cuGraphNodeFindInClone?$AA@ 0000000180101040     cuda:cuda_driverloader_generated_cuda_driverloader_cuda.obj
 0002:00027060       ??_C@_0BD@IJMLIECN@cuGraphNodeGetType?$AA@ 0000000180101060     cuda:cuda_driverloader_generated_cuda_driverloader_cuda.obj
 0002:00027078       ??_C@_0BA@KNIKLHBF@cuGraphGetNodes?$AA@ 0000000180101078     cuda:cuda_driverloader_generated_cuda_driverloader_cuda.obj
 0002:00027090       ??_C@_0BE@DCEALNKD@cuGraphGetRootNodes?$AA@ 0000000180101090     cuda:cuda_driverloader_generated_cuda_driverloader_cuda.obj
 0002:000270a8       ??_C@_0BA@KCCINJCJ@cuGraphGetEdges?$AA@ 00000001801010a8     cuda:cuda_driverloader_generated_cuda_driverloader_cuda.obj
 0002:000270c0       ??_C@_0BL@JNCEOMKA@cuGraphNodeGetDependencies?$AA@ 00000001801010c0     cuda:cuda_driverloader_generated_cuda_driverloader_cuda.obj
 0002:000270e0       ??_C@_0BN@HCBLEMCJ@cuGraphNodeGetDependentNodes?$AA@ 00000001801010e0     cuda:cuda_driverloader_generated_cuda_driverloader_cuda.obj
 0002:00027108       ??_C@_0BH@EANNOME@cuGraphAddDependencies?$AA@ 0000000180101108     cuda:cuda_driverloader_generated_cuda_driverloader_cuda.obj
 0002:00027128       ??_C@_0BK@PJIBMMLA@cuGraphRemoveDependencies?$AA@ 0000000180101128     cuda:cuda_driverloader_generated_cuda_driverloader_cuda.obj
 0002:00027148       ??_C@_0BD@GOFEGFCO@cuGraphDestroyNode?$AA@ 0000000180101148     cuda:cuda_driverloader_generated_cuda_driverloader_cuda.obj
 0002:00027160       ??_C@_0BM@JBJNHAJG@cuGraphInstantiateWithFlags?$AA@ 0000000180101160     cuda:cuda_driverloader_generated_cuda_driverloader_cuda.obj
 0002:00027188       ??_C@_0BN@LBOMAHOK@cuGraphInstantiateWithParams?$AA@ 0000000180101188     cuda:cuda_driverloader_generated_cuda_driverloader_cuda.obj
 0002:000271b0       ??_C@_0BE@BPKCPGGF@cuGraphExecGetFlags?$AA@ 00000001801011b0     cuda:cuda_driverloader_generated_cuda_driverloader_cuda.obj
 0002:000271c8       ??_C@_0BP@OIOJDICI@cuGraphExecKernelNodeSetParams?$AA@ 00000001801011c8     cuda:cuda_driverloader_generated_cuda_driverloader_cuda.obj
 0002:000271f0       ??_C@_0BP@ENDDDMND@cuGraphExecMemcpyNodeSetParams?$AA@ 00000001801011f0     cuda:cuda_driverloader_generated_cuda_driverloader_cuda.obj
 0002:00027218       ??_C@_0BP@DKBCDECK@cuGraphExecMemsetNodeSetParams?$AA@ 0000000180101218     cuda:cuda_driverloader_generated_cuda_driverloader_cuda.obj
 0002:00027240       ??_C@_0BN@HPNLFGJL@cuGraphExecHostNodeSetParams?$AA@ 0000000180101240     cuda:cuda_driverloader_generated_cuda_driverloader_cuda.obj
 0002:00027268       ??_C@_0CD@OMFACKG@cuGraphExecChildGraphNodeSetPara@ 0000000180101268     cuda:cuda_driverloader_generated_cuda_driverloader_cuda.obj
 0002:00027298       ??_C@_0CD@BHJKEBIB@cuGraphExecEventRecordNodeSetEve@ 0000000180101298     cuda:cuda_driverloader_generated_cuda_driverloader_cuda.obj
 0002:000272c8       ??_C@_0CB@HKIFLALB@cuGraphExecEventWaitNodeSetEvent@ 00000001801012c8     cuda:cuda_driverloader_generated_cuda_driverloader_cuda.obj
 0002:000272f0       ??_C@_0DB@JNAFBPKC@cuGraphExecExternalSemaphoresSig@ 00000001801012f0     cuda:cuda_driverloader_generated_cuda_driverloader_cuda.obj
 0002:00027330       ??_C@_0CP@IKELDCMJ@cuGraphExecExternalSemaphoresWai@ 0000000180101330     cuda:cuda_driverloader_generated_cuda_driverloader_cuda.obj
 0002:00027368       ??_C@_0BG@CLFMFFAM@cuGraphNodeSetEnabled?$AA@ 0000000180101368     cuda:cuda_driverloader_generated_cuda_driverloader_cuda.obj
 0002:00027388       ??_C@_0BG@DFHDOCEF@cuGraphNodeGetEnabled?$AA@ 0000000180101388     cuda:cuda_driverloader_generated_cuda_driverloader_cuda.obj
 0002:000273a8       ??_C@_0O@FLNCPIPJ@cuGraphUpload?$AA@ 00000001801013a8     cuda:cuda_driverloader_generated_cuda_driverloader_cuda.obj
 0002:000273b8       ??_C@_0O@BLGDPJCO@cuGraphLaunch?$AA@ 00000001801013b8     cuda:cuda_driverloader_generated_cuda_driverloader_cuda.obj
 0002:000273c8       ??_C@_0BD@JHALMFJB@cuGraphExecDestroy?$AA@ 00000001801013c8     cuda:cuda_driverloader_generated_cuda_driverloader_cuda.obj
 0002:000273e0       ??_C@_0P@BEHJNJGO@cuGraphDestroy?$AA@ 00000001801013e0     cuda:cuda_driverloader_generated_cuda_driverloader_cuda.obj
 0002:000273f8       ??_C@_0BC@CJBCKMMG@cuGraphExecUpdate?$AA@ 00000001801013f8     cuda:cuda_driverloader_generated_cuda_driverloader_cuda.obj
 0002:00027410       ??_C@_0CA@POAEFPAF@cuGraphKernelNodeCopyAttributes?$AA@ 0000000180101410     cuda:cuda_driverloader_generated_cuda_driverloader_cuda.obj
 0002:00027438       ??_C@_0BO@HOKMJMBH@cuGraphKernelNodeGetAttribute?$AA@ 0000000180101438     cuda:cuda_driverloader_generated_cuda_driverloader_cuda.obj
 0002:00027460       ??_C@_0BO@KBCFAFL@cuGraphKernelNodeSetAttribute?$AA@ 0000000180101460     cuda:cuda_driverloader_generated_cuda_driverloader_cuda.obj
 0002:00027488       ??_C@_0BF@EOEICKKE@cuGraphDebugDotPrint?$AA@ 0000000180101488     cuda:cuda_driverloader_generated_cuda_driverloader_cuda.obj
 0002:000274a8       ??_C@_0BD@MOPGCFFF@cuUserObjectCreate?$AA@ 00000001801014a8     cuda:cuda_driverloader_generated_cuda_driverloader_cuda.obj
 0002:000274c0       ??_C@_0BD@LLAGNHNG@cuUserObjectRetain?$AA@ 00000001801014c0     cuda:cuda_driverloader_generated_cuda_driverloader_cuda.obj
 0002:000274d8       ??_C@_0BE@LMMONACO@cuUserObjectRelease?$AA@ 00000001801014d8     cuda:cuda_driverloader_generated_cuda_driverloader_cuda.obj
 0002:000274f0       ??_C@_0BI@CNOELPBG@cuGraphRetainUserObject?$AA@ 00000001801014f0     cuda:cuda_driverloader_generated_cuda_driverloader_cuda.obj
 0002:00027510       ??_C@_0BJ@BKCCLNNO@cuGraphReleaseUserObject?$AA@ 0000000180101510     cuda:cuda_driverloader_generated_cuda_driverloader_cuda.obj
 0002:00027530       ??_C@_0P@EHPNHDEE@cuGraphAddNode?$AA@ 0000000180101530     cuda:cuda_driverloader_generated_cuda_driverloader_cuda.obj
 0002:00027548       ??_C@_0BF@EOMPKHBL@cuGraphNodeSetParams?$AA@ 0000000180101548     cuda:cuda_driverloader_generated_cuda_driverloader_cuda.obj
 0002:00027568       ??_C@_0BJ@CNFOLLJK@cuGraphExecNodeSetParams?$AA@ 0000000180101568     cuda:cuda_driverloader_generated_cuda_driverloader_cuda.obj
 0002:00027588       ??_C@_0BP@OBJFNGCM@cuGraphConditionalHandleCreate?$AA@ 0000000180101588     cuda:cuda_driverloader_generated_cuda_driverloader_cuda.obj
 0002:000275b0       ??_C@_0CM@DGEECBBK@cuOccupancyMaxActiveBlocksPerMul@ 00000001801015b0     cuda:cuda_driverloader_generated_cuda_driverloader_cuda.obj
 0002:000275e8       ??_C@_0DF@BKMNDMBA@cuOccupancyMaxActiveBlocksPerMul@ 00000001801015e8     cuda:cuda_driverloader_generated_cuda_driverloader_cuda.obj
 0002:00027628       ??_C@_0CB@JPLJACHK@cuOccupancyMaxPotentialBlockSize@ 0000000180101628     cuda:cuda_driverloader_generated_cuda_driverloader_cuda.obj
 0002:00027650       ??_C@_0CK@KONMDDO@cuOccupancyMaxPotentialBlockSize@ 0000000180101650     cuda:cuda_driverloader_generated_cuda_driverloader_cuda.obj
 0002:00027688       ??_C@_0CI@FDKEAAFF@cuOccupancyAvailableDynamicSMemP@ 0000000180101688     cuda:cuda_driverloader_generated_cuda_driverloader_cuda.obj
 0002:000276b8       ??_C@_0CD@PMOFLBMI@cuOccupancyMaxPotentialClusterSi@ 00000001801016b8     cuda:cuda_driverloader_generated_cuda_driverloader_cuda.obj
 0002:000276e8       ??_C@_0BN@HFFOMBGC@cuOccupancyMaxActiveClusters?$AA@ 00000001801016e8     cuda:cuda_driverloader_generated_cuda_driverloader_cuda.obj
 0002:00027710       ??_C@_0BB@IIDNGPGI@cuTexRefSetArray?$AA@ 0000000180101710     cuda:cuda_driverloader_generated_cuda_driverloader_cuda.obj
 0002:00027728       ??_C@_0BK@BIOLFBBA@cuTexRefSetMipmappedArray?$AA@ 0000000180101728     cuda:cuda_driverloader_generated_cuda_driverloader_cuda.obj
 0002:00027748       ??_C@_0BD@MOICKEGA@cuTexRefSetAddress?$AA@ 0000000180101748     cuda:cuda_driverloader_generated_cuda_driverloader_cuda.obj
 0002:00027760       ??_C@_0BF@HLMHJCL@cuTexRefSetAddress2D?$AA@ 0000000180101760     cuda:cuda_driverloader_generated_cuda_driverloader_cuda.obj
 0002:00027780       ??_C@_0BC@CKLOAKEM@cuTexRefSetFormat?$AA@ 0000000180101780     cuda:cuda_driverloader_generated_cuda_driverloader_cuda.obj
 0002:00027798       ??_C@_0BH@EEMJAHC@cuTexRefSetAddressMode?$AA@ 0000000180101798     cuda:cuda_driverloader_generated_cuda_driverloader_cuda.obj
 0002:000277b8       ??_C@_0BG@MBCEKLKK@cuTexRefSetFilterMode?$AA@ 00000001801017b8     cuda:cuda_driverloader_generated_cuda_driverloader_cuda.obj
 0002:000277d8       ??_C@_0BM@HONGGBBA@cuTexRefSetMipmapFilterMode?$AA@ 00000001801017d8     cuda:cuda_driverloader_generated_cuda_driverloader_cuda.obj
 0002:00027800       ??_C@_0BL@CBGCJJCF@cuTexRefSetMipmapLevelBias?$AA@ 0000000180101800     cuda:cuda_driverloader_generated_cuda_driverloader_cuda.obj
 0002:00027820       ??_C@_0BM@HBBOBNIH@cuTexRefSetMipmapLevelClamp?$AA@ 0000000180101820     cuda:cuda_driverloader_generated_cuda_driverloader_cuda.obj
 0002:00027848       ??_C@_0BJ@LIGKOCHO@cuTexRefSetMaxAnisotropy?$AA@ 0000000180101848     cuda:cuda_driverloader_generated_cuda_driverloader_cuda.obj
 0002:00027868       ??_C@_0BH@KHPGLLHG@cuTexRefSetBorderColor?$AA@ 0000000180101868     cuda:cuda_driverloader_generated_cuda_driverloader_cuda.obj
 0002:00027888       ??_C@_0BB@PGCGBKHK@cuTexRefSetFlags?$AA@ 0000000180101888     cuda:cuda_driverloader_generated_cuda_driverloader_cuda.obj
 0002:000278a0       ??_C@_0BD@NAKNBDCJ@cuTexRefGetAddress?$AA@ 00000001801018a0     cuda:cuda_driverloader_generated_cuda_driverloader_cuda.obj
 0002:000278b8       ??_C@_0BB@HJBBHMBF@cuTexRefGetArray?$AA@ 00000001801018b8     cuda:cuda_driverloader_generated_cuda_driverloader_cuda.obj
 0002:000278d0       ??_C@_0BK@DNOANKAO@cuTexRefGetMipmappedArray?$AA@ 00000001801018d0     cuda:cuda_driverloader_generated_cuda_driverloader_cuda.obj
 0002:000278f0       ??_C@_0BH@MKFCGKFO@cuTexRefGetAddressMode?$AA@ 00000001801018f0     cuda:cuda_driverloader_generated_cuda_driverloader_cuda.obj
 0002:00027910       ??_C@_0BG@LODKBINN@cuTexRefGetFilterMode?$AA@ 0000000180101910     cuda:cuda_driverloader_generated_cuda_driverloader_cuda.obj
 0002:00027930       ??_C@_0BC@EPLCLNO@cuTexRefGetFormat?$AA@ 0000000180101930     cuda:cuda_driverloader_generated_cuda_driverloader_cuda.obj
 0002:00027948       ??_C@_0BM@NAPNCBGM@cuTexRefGetMipmapFilterMode?$AA@ 0000000180101948     cuda:cuda_driverloader_generated_cuda_driverloader_cuda.obj
 0002:00027970       ??_C@_0BL@NLEIKPMN@cuTexRefGetMipmapLevelBias?$AA@ 0000000180101970     cuda:cuda_driverloader_generated_cuda_driverloader_cuda.obj
 0002:00027990       ??_C@_0BM@NPDFFNPL@cuTexRefGetMipmapLevelClamp?$AA@ 0000000180101990     cuda:cuda_driverloader_generated_cuda_driverloader_cuda.obj
 0002:000279b8       ??_C@_0BJ@NMDDFMMM@cuTexRefGetMaxAnisotropy?$AA@ 00000001801019b8     cuda:cuda_driverloader_generated_cuda_driverloader_cuda.obj
 0002:000279d8       ??_C@_0BH@GJOIEBFK@cuTexRefGetBorderColor?$AA@ 00000001801019d8     cuda:cuda_driverloader_generated_cuda_driverloader_cuda.obj
 0002:000279f8       ??_C@_0BB@HAKAJAH@cuTexRefGetFlags?$AA@ 00000001801019f8     cuda:cuda_driverloader_generated_cuda_driverloader_cuda.obj
 0002:00027a10       ??_C@_0P@DPCCDEFK@cuTexRefCreate?$AA@ 0000000180101a10     cuda:cuda_driverloader_generated_cuda_driverloader_cuda.obj
 0002:00027a28       ??_C@_0BA@IILDNAEG@cuTexRefDestroy?$AA@ 0000000180101a28     cuda:cuda_driverloader_generated_cuda_driverloader_cuda.obj
 0002:00027a40       ??_C@_0BC@KDOPKBPG@cuSurfRefSetArray?$AA@ 0000000180101a40     cuda:cuda_driverloader_generated_cuda_driverloader_cuda.obj
 0002:00027a58       ??_C@_0BC@FCMDLCIL@cuSurfRefGetArray?$AA@ 0000000180101a58     cuda:cuda_driverloader_generated_cuda_driverloader_cuda.obj
 0002:00027a70       ??_C@_0BC@INLCLEBG@cuTexObjectCreate?$AA@ 0000000180101a70     cuda:cuda_driverloader_generated_cuda_driverloader_cuda.obj
 0002:00027a88       ??_C@_0BD@PHGLENHN@cuTexObjectDestroy?$AA@ 0000000180101a88     cuda:cuda_driverloader_generated_cuda_driverloader_cuda.obj
 0002:00027aa0       ??_C@_0BL@CMCGAFNF@cuTexObjectGetResourceDesc?$AA@ 0000000180101aa0     cuda:cuda_driverloader_generated_cuda_driverloader_cuda.obj
 0002:00027ac0       ??_C@_0BK@HCHHAMIG@cuTexObjectGetTextureDesc?$AA@ 0000000180101ac0     cuda:cuda_driverloader_generated_cuda_driverloader_cuda.obj
 0002:00027ae0       ??_C@_0BP@BGHLOFJD@cuTexObjectGetResourceViewDesc?$AA@ 0000000180101ae0     cuda:cuda_driverloader_generated_cuda_driverloader_cuda.obj
 0002:00027b08       ??_C@_0BD@JKCONIJL@cuSurfObjectCreate?$AA@ 0000000180101b08     cuda:cuda_driverloader_generated_cuda_driverloader_cuda.obj
 0002:00027b20       ??_C@_0BE@GEHFCOIM@cuSurfObjectDestroy?$AA@ 0000000180101b20     cuda:cuda_driverloader_generated_cuda_driverloader_cuda.obj
 0002:00027b38       ??_C@_0BM@KMDHJFC@cuSurfObjectGetResourceDesc?$AA@ 0000000180101b38     cuda:cuda_driverloader_generated_cuda_driverloader_cuda.obj
 0002:00027b60       ??_C@_0BH@PKCCFNFB@cuTensorMapEncodeTiled?$AA@ 0000000180101b60     cuda:cuda_driverloader_generated_cuda_driverloader_cuda.obj
 0002:00027b80       ??_C@_0BI@OGFLBJBL@cuTensorMapEncodeIm2col?$AA@ 0000000180101b80     cuda:cuda_driverloader_generated_cuda_driverloader_cuda.obj
 0002:00027ba0       ??_C@_0BM@BPIANMPP@cuTensorMapEncodeIm2colWide?$AA@ 0000000180101ba0     cuda:cuda_driverloader_generated_cuda_driverloader_cuda.obj
 0002:00027bc8       ??_C@_0BK@HPNNOAEG@cuTensorMapReplaceAddress?$AA@ 0000000180101bc8     cuda:cuda_driverloader_generated_cuda_driverloader_cuda.obj
 0002:00027be8       ??_C@_0BG@NLBAKBOI@cuDeviceCanAccessPeer?$AA@ 0000000180101be8     cuda:cuda_driverloader_generated_cuda_driverloader_cuda.obj
 0002:00027c08       ??_C@_0BG@FJIDOCO@cuCtxEnablePeerAccess?$AA@ 0000000180101c08     cuda:cuda_driverloader_generated_cuda_driverloader_cuda.obj
 0002:00027c28       ??_C@_0BH@JPLBFDLI@cuCtxDisablePeerAccess?$AA@ 0000000180101c28     cuda:cuda_driverloader_generated_cuda_driverloader_cuda.obj
 0002:00027c48       ??_C@_0BI@MBAOCOML@cuDeviceGetP2PAttribute?$AA@ 0000000180101c48     cuda:cuda_driverloader_generated_cuda_driverloader_cuda.obj
 0002:00027c68       ??_C@_0CB@HPBHGBI@cuDeviceGetP2PAtomicCapabilities@ 0000000180101c68     cuda:cuda_driverloader_generated_cuda_driverloader_cuda.obj
 0002:00027c90       ??_C@_0BN@IPCKCOAC@cuGraphicsUnregisterResource?$AA@ 0000000180101c90     cuda:cuda_driverloader_generated_cuda_driverloader_cuda.obj
 0002:00027cb8       ??_C@_0CE@MHCLLDEH@cuGraphicsSubResourceGetMappedAr@ 0000000180101cb8     cuda:cuda_driverloader_generated_cuda_driverloader_cuda.obj
 0002:00027ce8       ??_C@_0CK@GOOLKJPE@cuGraphicsResourceGetMappedMipma@ 0000000180101ce8     cuda:cuda_driverloader_generated_cuda_driverloader_cuda.obj
 0002:00027d20       ??_C@_0CD@DAGJLMFB@cuGraphicsResourceGetMappedPoint@ 0000000180101d20     cuda:cuda_driverloader_generated_cuda_driverloader_cuda.obj
 0002:00027d50       ??_C@_0BO@NEGENPLL@cuGraphicsResourceSetMapFlags?$AA@ 0000000180101d50     cuda:cuda_driverloader_generated_cuda_driverloader_cuda.obj
 0002:00027d78       ??_C@_0BH@PNJEFODJ@cuGraphicsMapResources?$AA@ 0000000180101d78     cuda:cuda_driverloader_generated_cuda_driverloader_cuda.obj
 0002:00027d98       ??_C@_0BJ@PIJKGJLG@cuGraphicsUnmapResources?$AA@ 0000000180101d98     cuda:cuda_driverloader_generated_cuda_driverloader_cuda.obj
 0002:00027db8       ??_C@_0BB@JLEKBDDP@cuGetProcAddress?$AA@ 0000000180101db8     cuda:cuda_driverloader_generated_cuda_driverloader_cuda.obj
 0002:00027dd0       ??_C@_0BH@BECMFIFL@cuCoredumpGetAttribute?$AA@ 0000000180101dd0     cuda:cuda_driverloader_generated_cuda_driverloader_cuda.obj
 0002:00027df0       ??_C@_0BN@GLGLLJGK@cuCoredumpGetAttributeGlobal?$AA@ 0000000180101df0     cuda:cuda_driverloader_generated_cuda_driverloader_cuda.obj
 0002:00027e18       ??_C@_0BH@GAJCJEBH@cuCoredumpSetAttribute?$AA@ 0000000180101e18     cuda:cuda_driverloader_generated_cuda_driverloader_cuda.obj
 0002:00027e38       ??_C@_0BN@JBEBIPIC@cuCoredumpSetAttributeGlobal?$AA@ 0000000180101e38     cuda:cuda_driverloader_generated_cuda_driverloader_cuda.obj
 0002:00027e60       ??_C@_0BB@EFMLDKK@cuGetExportTable?$AA@ 0000000180101e60     cuda:cuda_driverloader_generated_cuda_driverloader_cuda.obj
 0002:00027e78       ??_C@_0BB@EFGAPAGH@cuGreenCtxCreate?$AA@ 0000000180101e78     cuda:cuda_driverloader_generated_cuda_driverloader_cuda.obj
 0002:00027e90       ??_C@_0BC@NAKBNOJD@cuGreenCtxDestroy?$AA@ 0000000180101e90     cuda:cuda_driverloader_generated_cuda_driverloader_cuda.obj
 0002:00027ea8       ??_C@_0BC@KLLDODON@cuCtxFromGreenCtx?$AA@ 0000000180101ea8     cuda:cuda_driverloader_generated_cuda_driverloader_cuda.obj
 0002:00027ec0       ??_C@_0BH@KPPLCJFO@cuDeviceGetDevResource?$AA@ 0000000180101ec0     cuda:cuda_driverloader_generated_cuda_driverloader_cuda.obj
 0002:00027ee0       ??_C@_0BE@FFOLAAPP@cuCtxGetDevResource?$AA@ 0000000180101ee0     cuda:cuda_driverloader_generated_cuda_driverloader_cuda.obj
