 NvCloth_x64

 Timestamp is 692ef366 (Tue Dec  2 23:10:46 2025)

 Preferred load address is 0000000180000000

 Start         Length     Name                   Class
 0001:00000000 000000b0H .text$di                CODE
 0001:000000b0 00066fc0H .text$mn                CODE
 0001:00067070 00000036H .text$mn$00             CODE
 0001:000670a6 00000092H .text$x                 CODE
 0002:00000000 000001b8H .idata$5                DATA
 0002:000001b8 00000038H .00cfg                  DATA
 0002:000001f0 00000008H .CRT$XCA                DATA
 0002:000001f8 00000020H .CRT$XCU                DATA
 0002:00000218 00000008H .CRT$XCZ                DATA
 0002:00000220 00000008H .CRT$XIA                DATA
 0002:00000228 00000008H .CRT$XIZ                DATA
 0002:00000230 00000008H .CRT$XPA                DATA
 0002:00000238 00000008H .CRT$XPZ                DATA
 0002:00000240 00000008H .CRT$XTA                DATA
 0002:00000248 00000018H .CRT$XTZ                DATA
 0002:00000250 00000000H .gehcont$y              DATA
 0002:00000250 00000000H .gfids$y                DATA
 0002:00000260 00006520H .rdata                  DATA
 0002:00006780 00000080H .rdata$CastGuardVftablesA DATA
 0002:00006800 00000080H .rdata$CastGuardVftablesC DATA
 0002:00006880 000001f4H .rdata$r                DATA
 0002:00006a74 00000100H .rdata$voltmd           DATA
 0002:00006b74 00000384H .rdata$zzzdbg           DATA
 0002:00006ef8 00000008H .rtc$IAA                DATA
 0002:00006f00 00000008H .rtc$IZZ                DATA
 0002:00006f08 00000008H .rtc$TAA                DATA
 0002:00006f10 00000008H .rtc$TZZ                DATA
 0002:00006f18 00007a40H .xdata                  DATA
 0002:0000e958 000000f8H .xdata$x                DATA
 0002:0000ea50 000008a0H .edata                  DATA
 0002:0000f2f0 00000078H .idata$2                DATA
 0002:0000f368 00000018H .idata$3                DATA
 0002:0000f380 000001b8H .idata$4                DATA
 0002:0000f538 0000046aH .idata$6                DATA
 0003:00000000 001d7b78H .data                   DATA
 0003:001d7b78 00000080H .data$r                 DATA
 0003:001d7bf8 00000028H .data$rs                DATA
 0003:001d7c20 000017e0H .bss                    DATA
 0004:00000000 000057d8H .pdata                  DATA
 0005:00000000 00000060H .rsrc$01                DATA
 0005:00000060 00000180H .rsrc$02                DATA

  Address         Publics by Value              Rva+Base               Lib:Object

 0000:00000000       __AbsoluteZero             0000000000000000     <absolute>
 0000:00000000       ___safe_se_handler_count   0000000000000000     <absolute>
 0000:00000000       ___safe_se_handler_table   0000000000000000     <absolute>
 0000:00000000       __arm64x_extra_rfe_table   0000000000000000     <absolute>
 0000:00000000       __arm64x_extra_rfe_table_size 0000000000000000     <absolute>
 0000:00000000       __arm64x_native_entrypoint 0000000000000000     <absolute>
 0000:00000000       __arm64x_redirection_metadata 0000000000000000     <absolute>
 0000:00000000       __arm64x_redirection_metadata_count 0000000000000000     <absolute>
 0000:00000000       __dynamic_value_reloc_table 0000000000000000     <absolute>
 0000:00000000       __enclave_config           0000000000000000     <absolute>
 0000:00000000       __guard_check_icall_a64n_fptr 0000000000000000     <absolute>
 0000:00000000       __guard_eh_cont_count      0000000000000000     <absolute>
 0000:00000000       __guard_eh_cont_table      0000000000000000     <absolute>
 0000:00000000       __guard_fids_count         0000000000000000     <absolute>
 0000:00000000       __guard_fids_table         0000000000000000     <absolute>
 0000:00000000       __guard_iat_count          0000000000000000     <absolute>
 0000:00000000       __guard_iat_table          0000000000000000     <absolute>
 0000:00000000       __guard_longjmp_count      0000000000000000     <absolute>
 0000:00000000       __guard_longjmp_table      0000000000000000     <absolute>
 0000:00000000       __hybrid_auxiliary_delayload_iat 0000000000000000     <absolute>
 0000:00000000       __hybrid_auxiliary_delayload_iat_copy 0000000000000000     <absolute>
 0000:00000000       __hybrid_auxiliary_iat     0000000000000000     <absolute>
 0000:00000000       __hybrid_auxiliary_iat_copy 0000000000000000     <absolute>
 0000:00000000       __hybrid_code_map          0000000000000000     <absolute>
 0000:00000000       __hybrid_code_map_count    0000000000000000     <absolute>
 0000:00000000       __hybrid_image_info_bitfield 0000000000000000     <absolute>
 0000:00000000       __x64_code_ranges_to_entry_points 0000000000000000     <absolute>
 0000:00000000       __x64_code_ranges_to_entry_points_count 0000000000000000     <absolute>
 0000:00000100       __guard_flags              0000000000000100     <absolute>
 0000:00000000       __ImageBase                0000000180000000     <linker-defined>
 0001:000000b0       ??2@YAPEAX_KPEAX@Z         00000001800010b0 f i CuCloth.obj
 0001:000000c0       ?selectMin@intrinsics@physx@@YAMMM@Z 00000001800010c0 f i CuCloth.obj
 0001:000000d0       ?selectMax@intrinsics@physx@@YAMMM@Z 00000001800010d0 f i CuCloth.obj
 0001:000000e0       ??0Allocator@ps@cloth@nv@@QEAA@PEBD@Z 00000001800010e0 f i CuCloth.obj
 0001:000000f0       ??4Allocator@ps@cloth@nv@@QEAAAEAV0123@AEBV0123@@Z 00000001800010f0 f i CuCloth.obj
 0001:00000100       ??4Allocator@ps@cloth@nv@@QEAAAEAV0123@$$QEAV0123@@Z 0000000180001100 f i CuCloth.obj
 0001:00000110       ??_FAllocator@ps@cloth@nv@@QEAAXXZ 0000000180001110 f i CuCloth.obj
 0001:00000120       ??0NonTrackingAllocator@ps@cloth@nv@@QEAA@PEBD@Z 0000000180001120 f i CuCloth.obj
 0001:00000130       ?allocate@NonTrackingAllocator@ps@cloth@nv@@QEAAPEAX_KPEBDH@Z 0000000180001130 f i CuCloth.obj
 0001:00000170       ?deallocate@NonTrackingAllocator@ps@cloth@nv@@QEAAXPEAX@Z 0000000180001170 f i CuCloth.obj
 0001:00000190       ??3UserAllocated@cloth@nv@@SAXPEAX@Z 0000000180001190 f i CuCloth.obj
 0001:000001b0       ??0MovingAverage@cloth@nv@@QEAA@I@Z 00000001800011b0 f i CuCloth.obj
 0001:00000200       ??4MovingAverage@cloth@nv@@QEAAAEAU012@AEBU012@@Z 0000000180001200 f i CuCloth.obj
 0001:00000290       ??1MovingAverage@cloth@nv@@QEAA@XZ 0000000180001290 f i CuCloth.obj
 0001:000002b0       ?size@MovingAverage@cloth@nv@@QEBAIXZ 00000001800012b0 f i CuCloth.obj
 0001:000002c0       ?resize@MovingAverage@cloth@nv@@QEAAXI@Z 00000001800012c0 f i CuCloth.obj
 0001:00000410       ?reset@MovingAverage@cloth@nv@@QEAAXXZ 0000000180001410 f i CuCloth.obj
 0001:00000420       ??0Simd4fScalarFactory@cloth@nv@@QEAA@AEBM@Z 0000000180001420 f i CuCloth.obj
 0001:00000430       ??0Simd4fTupleFactory@cloth@nv@@QEAA@IIII@Z 0000000180001430 f i CuCloth.obj
 0001:00000450       ?simd4f@cloth@nv@@YA?AUSimd4fScalarFactory@12@AEBM@Z 0000000180001450 f i CuCloth.obj
 0001:00000460       ??0Simd4iScalarFactory@cloth@nv@@QEAA@AEBH@Z 0000000180001460 f i CuCloth.obj
 0001:00000470       ?simd4i@cloth@nv@@YA?AUSimd4iScalarFactory@12@AEBH@Z 0000000180001470 f i CuCloth.obj
 0001:00000480       ??$PxMax@M@physx@@YAMMM@Z  0000000180001480 f i CuCloth.obj
 0001:00000490       ??$PxMin@M@physx@@YAMMM@Z  0000000180001490 f i CuCloth.obj
 0001:000004a0       ??0PxVec3@physx@@QEAA@XZ   00000001800014a0 f i CuCloth.obj
 0001:000004b0       ??0PxVec3@physx@@QEAA@W4PxZERO@1@@Z 00000001800014b0 f i CuCloth.obj
 0001:000004c0       ??0PxVec3@physx@@QEAA@M@Z  00000001800014c0 f i CuCloth.obj
 0001:000004e0       ??0PxVec3@physx@@QEAA@MMM@Z 00000001800014e0 f i CuCloth.obj
 0001:00000500       ??0PxVec3@physx@@QEAA@AEBV01@@Z 0000000180001500 f i CuCloth.obj
 0001:00000520       ??4PxVec3@physx@@QEAAAEAV01@AEBV01@@Z 0000000180001520 f i CuCloth.obj
 0001:00000540       ??8PxVec3@physx@@QEBA_NAEBV01@@Z 0000000180001540 f i CuCloth.obj
 0001:00000570       ?magnitudeSquared@PxVec3@physx@@QEBAMXZ 0000000180001570 f i CuCloth.obj
 0001:000005a0       ??GPxVec3@physx@@QEBA?AV01@AEBV01@@Z 00000001800015a0 f i CuCloth.obj
 0001:000005e0       ??YPxVec3@physx@@QEAAAEAV01@AEBV01@@Z 00000001800015e0 f i CuCloth.obj
 0001:00000610       ??0PxVec4@physx@@QEAA@XZ   0000000180001610 f i CuCloth.obj
 0001:00000620       ??0PxVec4@physx@@QEAA@M@Z  0000000180001620 f i CuCloth.obj
 0001:00000630       ??0PxVec4@physx@@QEAA@MMMM@Z 0000000180001630 f i CuCloth.obj
 0001:00000650       ??0PxVec4@physx@@QEAA@AEBV01@@Z 0000000180001650 f i CuCloth.obj
 0001:00000670       ??4PxVec4@physx@@QEAAAEAV01@AEBV01@@Z 0000000180001670 f i CuCloth.obj
 0001:00000690       ??GPxVec4@physx@@QEBA?AV01@XZ 0000000180001690 f i CuCloth.obj
 0001:000006b0       ??HPxVec4@physx@@QEBA?AV01@AEBV01@@Z 00000001800016b0 f i CuCloth.obj
 0001:000006d0       ??GPxVec4@physx@@QEBA?AV01@AEBV01@@Z 00000001800016d0 f i CuCloth.obj
 0001:000006f0       ??DPxVec4@physx@@QEBA?AV01@M@Z 00000001800016f0 f i CuCloth.obj
 0001:00000710       ?minimum@PxVec4@physx@@QEBA?AV12@AEBV12@@Z 0000000180001710 f i CuCloth.obj
 0001:00000760       ?maximum@PxVec4@physx@@QEBA?AV12@AEBV12@@Z 0000000180001760 f i CuCloth.obj
 0001:000007b0       ?array@cloth@nv@@YAAEAY03MAEAVPxVec4@physx@@@Z 00000001800017b0 f i CuCloth.obj
 0001:000007c0       ??0PxQuat@physx@@QEAA@XZ   00000001800017c0 f i CuCloth.obj
 0001:000007d0       ??0PxQuat@physx@@QEAA@W4PxIDENTITY@1@@Z 00000001800017d0 f i CuCloth.obj
 0001:000007f0       ??0PxQuat@physx@@QEAA@MMMM@Z 00000001800017f0 f i CuCloth.obj
 0001:00000810       ?magnitudeSquared@PxQuat@physx@@QEBAMXZ 0000000180001810 f i CuCloth.obj
 0001:00000840       ??4PxQuat@physx@@QEAAAEAV01@AEBV01@@Z 0000000180001840 f i CuCloth.obj
 0001:00000860       ??GPxQuat@physx@@QEBA?AV01@AEBV01@@Z 0000000180001860 f i CuCloth.obj
 0001:00000880       ??0PxTransform@physx@@QEAA@XZ 0000000180001880 f i CuCloth.obj
 0001:00000890       ??0PxTransform@physx@@QEAA@W4PxIDENTITY@1@@Z 0000000180001890 f i CuCloth.obj
 0001:000008b0       ??4PxTransform@physx@@QEAAAEAV01@$$QEAV01@@Z 00000001800018b0 f i CuCloth.obj
 0001:000008e0       ??0Cloth@cloth@nv@@IEAA@XZ 00000001800018e0 f i CuCloth.obj
 0001:000008f0       ??1Cloth@cloth@nv@@UEAA@XZ 00000001800018f0 f i CuCloth.obj
 0001:00000900       ??_ECloth@cloth@nv@@UEAAPEAXI@Z 0000000180001900 f i * CIL library *:* CIL module *
 0001:00000900       ??_GCloth@cloth@nv@@UEAAPEAXI@Z 0000000180001900 f i CuCloth.obj
 0001:00000950       ?incRefCount@Fabric@cloth@nv@@QEAAXXZ 0000000180001950 f i CuCloth.obj
 0001:00000960       ?decRefCount@Fabric@cloth@nv@@QEAA_NXZ 0000000180001960 f i CuCloth.obj
 0001:00000990       ?exp2@ps@cloth@nv@@YAMM@Z  0000000180001990 f i CuCloth.obj
 0001:000009a0       ?log2@ps@cloth@nv@@YAMM@Z  00000001800019a0 f i CuCloth.obj
 0001:000009c0       ?safeLog2@cloth@nv@@YAMM@Z 00000001800019c0 f i CuCloth.obj
 0001:000009f0       ?safeLog2@cloth@nv@@YA?AVPxVec3@physx@@AEBV34@@Z 00000001800019f0 f i CuCloth.obj
 0001:00000ac0       ?safeExp2@cloth@nv@@YAMM@Z 0000000180001ac0 f i CuCloth.obj
 0001:00000ae0       ?safeExp2@cloth@nv@@YA?AVPxVec3@physx@@AEBV34@@Z 0000000180001ae0 f i CuCloth.obj
 0001:00000ba0       ?updateIndex@cloth@nv@@YA_NAEAIIH@Z 0000000180001ba0 f i CuCloth.obj
 0001:00000bc0       ??0CuConstraints@cloth@nv@@QEAA@PEAUCUctx_st@@@Z 0000000180001bc0 f i CuCloth.obj
 0001:00000c00       ?pop@CuConstraints@cloth@nv@@QEAAXXZ 0000000180001c00 f i CuCloth.obj
 0001:00000c50       ??1?$CuHostVectorImpl@VPxVec4@physx@@$01@cloth@nv@@QEAA@XZ 0000000180001c50 f i CuCloth.obj
 0001:00000c90       ??4TripletSchedulerTestInterface@cloth@nv@@QEAAAEAU012@AEBU012@@Z 0000000180001c90 f i CuCloth.obj
 0001:00000ca0       ??_ECuCloth@cloth@nv@@UEAAPEAXI@Z 0000000180001ca0 f i * CIL library *:* CIL module *
 0001:00000ca0       ??_GCuCloth@cloth@nv@@UEAAPEAXI@Z 0000000180001ca0 f i CuCloth.obj
 0001:00000d00       ??1?$ClothImpl@VCuCloth@cloth@nv@@@cloth@nv@@UEAA@XZ 0000000180001d00 f i CuCloth.obj
 0001:00000d30       ??1CuConstraints@cloth@nv@@QEAA@XZ 0000000180001d30 f i CuCloth.obj
 0001:00000db0       ??1?$CuHostVectorImpl@UIndexPair@cloth@nv@@$01@cloth@nv@@QEAA@XZ 0000000180001db0 f i CuCloth.obj
 0001:00000df0       ??1?$CuHostVectorImpl@I$01@cloth@nv@@QEAA@XZ 0000000180001df0 f i CuCloth.obj
 0001:00000e30       ??1?$CuHostVectorImpl@VPxVec3@physx@@$01@cloth@nv@@QEAA@XZ 0000000180001e30 f i CuCloth.obj
 0001:00000e70       ??0CuConstraints@cloth@nv@@QEAA@AEBU012@@Z 0000000180001e70 f i CuCloth.obj
 0001:00000ec0       ??1TripletScheduler@cloth@nv@@QEAA@XZ 0000000180001ec0 f i CuCloth.obj
 0001:00000f40       ?__empty_global_delete@@YAXPEAX@Z 0000000180001f40 f i CuCloth.obj
 0001:00000f50       ?__empty_global_delete@@YAXPEAX_K@Z 0000000180001f50 f i CuCloth.obj
 0001:00000f60       ??$max@H@std@@YAAEBHAEBH0@Z 0000000180001f60 f i CuCloth.obj
 0001:00000f70       ??$min@I@std@@YAAEBIAEBI0@Z 0000000180001f70 f i CuCloth.obj
 0001:00000f80       ??$min@H@std@@YAAEBHAEBH0@Z 0000000180001f80 f i CuCloth.obj
 0001:00000f90       ??$PX_UNUSED@W4PxZERO@physx@@@@YAXAEBW4PxZERO@physx@@@Z 0000000180001f90 f i CuCloth.obj
 0001:00000fa0       ??$PX_UNUSED@W4PxIDENTITY@physx@@@@YAXAEBW4PxIDENTITY@physx@@@Z 0000000180001fa0 f i CuCloth.obj
 0001:00000fb0       ??$min@M@std@@YAAEBMAEBM0@Z 0000000180001fb0 f i CuCloth.obj
 0001:00000fc0       ??$initialize@VCuCloth@cloth@nv@@@cloth@nv@@YAXAEAVCuCloth@01@PEBVPxVec4@physx@@1@Z 0000000180001fc0 f i CuCloth.obj
 0001:000012c0       ??$copy@VCuCloth@cloth@nv@@V123@@cloth@nv@@YAXAEAVCuCloth@01@AEBV201@@Z 00000001800022c0 f i CuCloth.obj
 0001:000015a0       ??$max@I@std@@YAAEBIAEBI0@Z 00000001800025a0 f i CuCloth.obj
 0001:000015b0       ??$assign@PEAUCuPhaseConfig@cloth@nv@@@?$CuDeviceVector@UCuPhaseConfig@cloth@nv@@@cloth@nv@@QEAAXPEAUCuPhaseConfig@12@0@Z 00000001800025b0 f i CuCloth.obj
 0001:00001630       ??$min@PEBVPxVec3@physx@@@std@@YAAEBQEBVPxVec3@physx@@AEBQEBV12@0@Z 0000000180002630 f i CuCloth.obj
 0001:00001640       ??$getMappedParticles@VPxVec4@physx@@@?$ClothImpl@VCuCloth@cloth@nv@@@cloth@nv@@QEBA?AU?$MappedRange@VPxVec4@physx@@@12@PEAVPxVec4@physx@@@Z 0000000180002640 f i CuCloth.obj
 0001:000016c0       ??$getMappedParticles@$$CBVPxVec4@physx@@@?$ClothImpl@VCuCloth@cloth@nv@@@cloth@nv@@QEBA?AU?$MappedRange@$$CBVPxVec4@physx@@@12@PEBVPxVec4@physx@@@Z 00000001800026c0 f i CuCloth.obj
 0001:00001740       ??$assign@PEBI@?$CuDeviceVector@I@cloth@nv@@QEAAXPEBI0@Z 0000000180002740 f i CuCloth.obj
 0001:000017d0       ??$?0I@?$Vec4T@G@cloth@nv@@QEAA@AEBU?$Vec4T@I@12@@Z 00000001800027d0 f i CuCloth.obj
 0001:00001800       ??$?4VNonTrackingAllocator@ps@cloth@nv@@@?$CuDeviceVector@U?$Vec4T@G@cloth@nv@@@cloth@nv@@QEAAAEAV012@AEBV?$Array@U?$Vec4T@G@cloth@nv@@VNonTrackingAllocator@ps@23@@ps@12@@Z 0000000180002800 f i CuCloth.obj
 0001:00001870       ??$?4VNonTrackingAllocator@ps@cloth@nv@@@?$CuDeviceVector@I@cloth@nv@@QEAAAEAV012@AEBV?$Array@IVNonTrackingAllocator@ps@cloth@nv@@@ps@12@@Z 0000000180002870 f i CuCloth.obj
 0001:000018b0       ??$?4VNonTrackingAllocator@ps@cloth@nv@@@?$CuDeviceVector@VPxVec4@physx@@@cloth@nv@@QEAAAEAV012@AEBV?$Array@VPxVec4@physx@@VNonTrackingAllocator@ps@cloth@nv@@@ps@12@@Z 00000001800028b0 f i CuCloth.obj
 0001:000018e0       ??0?$Range@$$CBUPhaseConfig@cloth@nv@@@cloth@nv@@QEAA@PEBUPhaseConfig@12@0@Z 00000001800028e0 f i CuCloth.obj
 0001:000018f0       ?size@?$Range@$$CBUPhaseConfig@cloth@nv@@@cloth@nv@@QEBAIXZ 00000001800028f0 f i CuCloth.obj
 0001:00001910       ?empty@?$Range@$$CBUPhaseConfig@cloth@nv@@@cloth@nv@@QEBA_NXZ 0000000180002910 f i CuCloth.obj
 0001:00001920       ?popFront@?$Range@$$CBUPhaseConfig@cloth@nv@@@cloth@nv@@QEAAXXZ 0000000180002920 f i CuCloth.obj
 0001:00001930       ?begin@?$Range@$$CBUPhaseConfig@cloth@nv@@@cloth@nv@@QEBAPEBUPhaseConfig@23@XZ 0000000180002930 f i CuCloth.obj
 0001:00001940       ?end@?$Range@$$CBUPhaseConfig@cloth@nv@@@cloth@nv@@QEBAPEBUPhaseConfig@23@XZ 0000000180002940 f i CuCloth.obj
 0001:00001950       ?front@?$Range@$$CBUPhaseConfig@cloth@nv@@@cloth@nv@@QEBAAEBUPhaseConfig@23@XZ 0000000180002950 f i CuCloth.obj
 0001:00001960       ?size@?$Range@$$CBVPxVec4@physx@@@cloth@nv@@QEBAIXZ 0000000180002960 f i CuCloth.obj
 0001:00001970       ?begin@?$Range@$$CBVPxVec4@physx@@@cloth@nv@@QEBAPEBVPxVec4@physx@@XZ 0000000180002970 f i CuCloth.obj
 0001:00001980       ?end@?$Range@$$CBVPxVec4@physx@@@cloth@nv@@QEBAPEBVPxVec4@physx@@XZ 0000000180002980 f i CuCloth.obj
 0001:00001990       ?begin@?$Range@$$CBI@cloth@nv@@QEBAPEBIXZ 0000000180002990 f i CuCloth.obj
 0001:000019a0       ?end@?$Range@$$CBI@cloth@nv@@QEBAPEBIXZ 00000001800029a0 f i CuCloth.obj
 0001:000019b0       ??0?$Range@$$CBVPxVec3@physx@@@cloth@nv@@QEAA@PEBVPxVec3@physx@@0@Z 00000001800029b0 f i CuCloth.obj
 0001:000019c0       ?size@?$Range@$$CBVPxVec3@physx@@@cloth@nv@@QEBAIXZ 00000001800029c0 f i CuCloth.obj
 0001:000019e0       ?empty@?$Range@$$CBVPxVec3@physx@@@cloth@nv@@QEBA_NXZ 00000001800029e0 f i CuCloth.obj
 0001:000019f0       ?popFront@?$Range@$$CBVPxVec3@physx@@@cloth@nv@@QEAAXXZ 00000001800029f0 f i CuCloth.obj
 0001:00001a00       ?begin@?$Range@$$CBVPxVec3@physx@@@cloth@nv@@QEBAPEBVPxVec3@physx@@XZ 0000000180002a00 f i CuCloth.obj
 0001:00001a10       ?end@?$Range@$$CBVPxVec3@physx@@@cloth@nv@@QEBAPEBVPxVec3@physx@@XZ 0000000180002a10 f i CuCloth.obj
 0001:00001a20       ?front@?$Range@$$CBVPxVec3@physx@@@cloth@nv@@QEBAAEBVPxVec3@physx@@XZ 0000000180002a20 f i CuCloth.obj
 0001:00001a30       ?size@?$Range@$$BY03$$CBI@cloth@nv@@QEBAIXZ 0000000180002a30 f i CuCloth.obj
 0001:00001a40       ??0?$Range@VPxVec4@physx@@@cloth@nv@@QEAA@PEAVPxVec4@physx@@0@Z 0000000180002a40 f i CuCloth.obj
 0001:00001a50       ?resizeUninitialized@?$Array@VPxVec4@physx@@V?$CuHostAllocator@VPxVec4@physx@@$01@cloth@nv@@@ps@cloth@nv@@QEAAXI@Z 0000000180002a50 f i CuCloth.obj
 0001:00001a90       ?getFabric@?$ClothImpl@VCuCloth@cloth@nv@@@cloth@nv@@UEBAAEAVFabric@23@XZ 0000000180002a90 f i CuCloth.obj
 0001:00001aa0       ?getFactory@?$ClothImpl@VCuCloth@cloth@nv@@@cloth@nv@@UEBAAEAVFactory@23@XZ 0000000180002aa0 f i CuCloth.obj
 0001:00001ab0       ?setTranslation@?$ClothImpl@VCuCloth@cloth@nv@@@cloth@nv@@UEAAXAEBVPxVec3@physx@@@Z 0000000180002ab0 f i CuCloth.obj
 0001:00001b00       ?setRotation@?$ClothImpl@VCuCloth@cloth@nv@@@cloth@nv@@UEAAXAEBVPxQuat@physx@@@Z 0000000180002b00 f i CuCloth.obj
 0001:00001b90       ?getTranslation@?$ClothImpl@VCuCloth@cloth@nv@@@cloth@nv@@UEBAAEBVPxVec3@physx@@XZ 0000000180002b90 f i CuCloth.obj
 0001:00001ba0       ?getRotation@?$ClothImpl@VCuCloth@cloth@nv@@@cloth@nv@@UEBAAEBVPxQuat@physx@@XZ 0000000180002ba0 f i CuCloth.obj
 0001:00001bb0       ?clearInertia@?$ClothImpl@VCuCloth@cloth@nv@@@cloth@nv@@UEAAXXZ 0000000180002bb0 f i CuCloth.obj
 0001:00001c30       ?teleport@?$ClothImpl@VCuCloth@cloth@nv@@@cloth@nv@@UEAAXAEBVPxVec3@physx@@@Z 0000000180002c30 f i CuCloth.obj
 0001:00001cb0       ?teleportToLocation@?$ClothImpl@VCuCloth@cloth@nv@@@cloth@nv@@UEAAXAEBVPxVec3@physx@@AEBVPxQuat@5@@Z 0000000180002cb0 f i CuCloth.obj
 0001:00001d30       ?ignoreVelocityDiscontinuity@?$ClothImpl@VCuCloth@cloth@nv@@@cloth@nv@@UEAAXXZ 0000000180002d30 f i CuCloth.obj
 0001:00001d40       ?getPreviousIterationDt@?$ClothImpl@VCuCloth@cloth@nv@@@cloth@nv@@UEBAMXZ 0000000180002d40 f i CuCloth.obj
 0001:00001d50       ?setGravity@?$ClothImpl@VCuCloth@cloth@nv@@@cloth@nv@@UEAAXAEBVPxVec3@physx@@@Z 0000000180002d50 f i CuCloth.obj
 0001:00001d90       ?getGravity@?$ClothImpl@VCuCloth@cloth@nv@@@cloth@nv@@UEBA?AVPxVec3@physx@@XZ 0000000180002d90 f i CuCloth.obj
 0001:00001db0       ?setDamping@?$ClothImpl@VCuCloth@cloth@nv@@@cloth@nv@@UEAAXAEBVPxVec3@physx@@@Z 0000000180002db0 f i CuCloth.obj
 0001:00001eb0       ?getDamping@?$ClothImpl@VCuCloth@cloth@nv@@@cloth@nv@@UEBA?AVPxVec3@physx@@XZ 0000000180002eb0 f i CuCloth.obj
 0001:00001f00       ?setLinearDrag@?$ClothImpl@VCuCloth@cloth@nv@@@cloth@nv@@UEAAXAEBVPxVec3@physx@@@Z 0000000180002f00 f i CuCloth.obj
 0001:00002000       ?getLinearDrag@?$ClothImpl@VCuCloth@cloth@nv@@@cloth@nv@@UEBA?AVPxVec3@physx@@XZ 0000000180003000 f i CuCloth.obj
 0001:00002050       ?setAngularDrag@?$ClothImpl@VCuCloth@cloth@nv@@@cloth@nv@@UEAAXAEBVPxVec3@physx@@@Z 0000000180003050 f i CuCloth.obj
 0001:00002150       ?getAngularDrag@?$ClothImpl@VCuCloth@cloth@nv@@@cloth@nv@@UEBA?AVPxVec3@physx@@XZ 0000000180003150 f i CuCloth.obj
 0001:000021a0       ?setLinearInertia@?$ClothImpl@VCuCloth@cloth@nv@@@cloth@nv@@UEAAXAEBVPxVec3@physx@@@Z 00000001800031a0 f i CuCloth.obj
 0001:000021e0       ?getLinearInertia@?$ClothImpl@VCuCloth@cloth@nv@@@cloth@nv@@UEBA?AVPxVec3@physx@@XZ 00000001800031e0 f i CuCloth.obj
 0001:00002200       ?setAngularInertia@?$ClothImpl@VCuCloth@cloth@nv@@@cloth@nv@@UEAAXAEBVPxVec3@physx@@@Z 0000000180003200 f i CuCloth.obj
 0001:00002240       ?getAngularInertia@?$ClothImpl@VCuCloth@cloth@nv@@@cloth@nv@@UEBA?AVPxVec3@physx@@XZ 0000000180003240 f i CuCloth.obj
 0001:00002260       ?setCentrifugalInertia@?$ClothImpl@VCuCloth@cloth@nv@@@cloth@nv@@UEAAXAEBVPxVec3@physx@@@Z 0000000180003260 f i CuCloth.obj
 0001:000022a0       ?getCentrifugalInertia@?$ClothImpl@VCuCloth@cloth@nv@@@cloth@nv@@UEBA?AVPxVec3@physx@@XZ 00000001800032a0 f i CuCloth.obj
 0001:000022c0       ?setSolverFrequency@?$ClothImpl@VCuCloth@cloth@nv@@@cloth@nv@@UEAAXM@Z 00000001800032c0 f i CuCloth.obj
 0001:000022f0       ?getSolverFrequency@?$ClothImpl@VCuCloth@cloth@nv@@@cloth@nv@@UEBAMXZ 00000001800032f0 f i CuCloth.obj
 0001:00002300       ?setStiffnessFrequency@?$ClothImpl@VCuCloth@cloth@nv@@@cloth@nv@@UEAAXM@Z 0000000180003300 f i CuCloth.obj
 0001:00002320       ?getStiffnessFrequency@?$ClothImpl@VCuCloth@cloth@nv@@@cloth@nv@@UEBAMXZ 0000000180003320 f i CuCloth.obj
 0001:00002330       ?setAcceleationFilterWidth@?$ClothImpl@VCuCloth@cloth@nv@@@cloth@nv@@UEAAXI@Z 0000000180003330 f i CuCloth.obj
 0001:00002340       ?getAccelerationFilterWidth@?$ClothImpl@VCuCloth@cloth@nv@@@cloth@nv@@UEBAIXZ 0000000180003340 f i CuCloth.obj
 0001:00002350       ?setSpheres@?$ClothImpl@VCuCloth@cloth@nv@@@cloth@nv@@UEAAXU?$Range@$$CBVPxVec4@physx@@@23@0@Z 0000000180003350 f i CuCloth.obj
 0001:000024f0       ?setSpheres@?$ClothImpl@VCuCloth@cloth@nv@@@cloth@nv@@UEAAXU?$Range@$$CBVPxVec4@physx@@@23@II@Z 00000001800034f0 f i CuCloth.obj
 0001:00002b40       ?getNumSpheres@?$ClothImpl@VCuCloth@cloth@nv@@@cloth@nv@@UEBAIXZ 0000000180003b40 f i CuCloth.obj
 0001:00002b50       ?setCapsules@?$ClothImpl@VCuCloth@cloth@nv@@@cloth@nv@@UEAAXU?$Range@$$CBI@23@II@Z 0000000180003b50 f i CuCloth.obj
 0001:00002da0       ?getNumCapsules@?$ClothImpl@VCuCloth@cloth@nv@@@cloth@nv@@UEBAIXZ 0000000180003da0 f i CuCloth.obj
 0001:00002db0       ?setPlanes@?$ClothImpl@VCuCloth@cloth@nv@@@cloth@nv@@UEAAXU?$Range@$$CBVPxVec4@physx@@@23@0@Z 0000000180003db0 f i CuCloth.obj
 0001:00002f50       ?setPlanes@?$ClothImpl@VCuCloth@cloth@nv@@@cloth@nv@@UEAAXU?$Range@$$CBVPxVec4@physx@@@23@II@Z 0000000180003f50 f i CuCloth.obj
 0001:00003590       ?getNumPlanes@?$ClothImpl@VCuCloth@cloth@nv@@@cloth@nv@@UEBAIXZ 0000000180004590 f i CuCloth.obj
 0001:000035a0       ?setConvexes@?$ClothImpl@VCuCloth@cloth@nv@@@cloth@nv@@UEAAXU?$Range@$$CBI@23@II@Z 00000001800045a0 f i CuCloth.obj
 0001:00003750       ?getNumConvexes@?$ClothImpl@VCuCloth@cloth@nv@@@cloth@nv@@UEBAIXZ 0000000180004750 f i CuCloth.obj
 0001:00003760       ?setTriangles@?$ClothImpl@VCuCloth@cloth@nv@@@cloth@nv@@UEAAXU?$Range@$$CBVPxVec3@physx@@@23@0I@Z 0000000180004760 f i CuCloth.obj
 0001:00003a40       ?setTriangles@?$ClothImpl@VCuCloth@cloth@nv@@@cloth@nv@@UEAAXU?$Range@$$CBVPxVec3@physx@@@23@II@Z 0000000180004a40 f i CuCloth.obj
 0001:00003f00       ?getNumTriangles@?$ClothImpl@VCuCloth@cloth@nv@@@cloth@nv@@UEBAIXZ 0000000180004f00 f i CuCloth.obj
 0001:00003f10       ?isContinuousCollisionEnabled@?$ClothImpl@VCuCloth@cloth@nv@@@cloth@nv@@UEBA_NXZ 0000000180004f10 f i CuCloth.obj
 0001:00003f20       ?enableContinuousCollision@?$ClothImpl@VCuCloth@cloth@nv@@@cloth@nv@@UEAAX_N@Z 0000000180004f20 f i CuCloth.obj
 0001:00003f40       ?getCollisionMassScale@?$ClothImpl@VCuCloth@cloth@nv@@@cloth@nv@@UEBAMXZ 0000000180004f40 f i CuCloth.obj
 0001:00003f50       ?setCollisionMassScale@?$ClothImpl@VCuCloth@cloth@nv@@@cloth@nv@@UEAAXM@Z 0000000180004f50 f i CuCloth.obj
 0001:00003f80       ?setFriction@?$ClothImpl@VCuCloth@cloth@nv@@@cloth@nv@@UEAAXM@Z 0000000180004f80 f i CuCloth.obj
 0001:00003f90       ?getFriction@?$ClothImpl@VCuCloth@cloth@nv@@@cloth@nv@@UEBAMXZ 0000000180004f90 f i CuCloth.obj
 0001:00003fa0       ?getNumVirtualParticleWeights@?$ClothImpl@VCuCloth@cloth@nv@@@cloth@nv@@UEBAIXZ 0000000180004fa0 f i CuCloth.obj
 0001:00003fc0       ?setTetherConstraintScale@?$ClothImpl@VCuCloth@cloth@nv@@@cloth@nv@@UEAAXM@Z 0000000180004fc0 f i CuCloth.obj
 0001:00003ff0       ?getTetherConstraintScale@?$ClothImpl@VCuCloth@cloth@nv@@@cloth@nv@@UEBAMXZ 0000000180004ff0 f i CuCloth.obj
 0001:00004000       ?setTetherConstraintStiffness@?$ClothImpl@VCuCloth@cloth@nv@@@cloth@nv@@UEAAXM@Z 0000000180005000 f i CuCloth.obj
 0001:00004070       ?getTetherConstraintStiffness@?$ClothImpl@VCuCloth@cloth@nv@@@cloth@nv@@UEBAMXZ 0000000180005070 f i CuCloth.obj
 0001:000040c0       ?getMotionConstraints@?$ClothImpl@VCuCloth@cloth@nv@@@cloth@nv@@UEAA?AU?$Range@VPxVec4@physx@@@23@XZ 00000001800050c0 f i CuCloth.obj
 0001:00004100       ?clearMotionConstraints@?$ClothImpl@VCuCloth@cloth@nv@@@cloth@nv@@UEAAXXZ 0000000180005100 f i CuCloth.obj
 0001:00004130       ?getNumMotionConstraints@?$ClothImpl@VCuCloth@cloth@nv@@@cloth@nv@@UEBAIXZ 0000000180005130 f i CuCloth.obj
 0001:00004150       ?setMotionConstraintScaleBias@?$ClothImpl@VCuCloth@cloth@nv@@@cloth@nv@@UEAAXMM@Z 0000000180005150 f i CuCloth.obj
 0001:00004190       ?getMotionConstraintScale@?$ClothImpl@VCuCloth@cloth@nv@@@cloth@nv@@UEBAMXZ 0000000180005190 f i CuCloth.obj
 0001:000041a0       ?getMotionConstraintBias@?$ClothImpl@VCuCloth@cloth@nv@@@cloth@nv@@UEBAMXZ 00000001800051a0 f i CuCloth.obj
 0001:000041b0       ?setMotionConstraintStiffness@?$ClothImpl@VCuCloth@cloth@nv@@@cloth@nv@@UEAAXM@Z 00000001800051b0 f i CuCloth.obj
 0001:00004220       ?getMotionConstraintStiffness@?$ClothImpl@VCuCloth@cloth@nv@@@cloth@nv@@UEBAMXZ 0000000180005220 f i CuCloth.obj
 0001:00004270       ?getSeparationConstraints@?$ClothImpl@VCuCloth@cloth@nv@@@cloth@nv@@UEAA?AU?$Range@VPxVec4@physx@@@23@XZ 0000000180005270 f i CuCloth.obj
 0001:000042b0       ?clearSeparationConstraints@?$ClothImpl@VCuCloth@cloth@nv@@@cloth@nv@@UEAAXXZ 00000001800052b0 f i CuCloth.obj
 0001:000042e0       ?getNumSeparationConstraints@?$ClothImpl@VCuCloth@cloth@nv@@@cloth@nv@@UEBAIXZ 00000001800052e0 f i CuCloth.obj
 0001:00004300       ?clearInterpolation@?$ClothImpl@VCuCloth@cloth@nv@@@cloth@nv@@UEAAXXZ 0000000180005300 f i CuCloth.obj
 0001:000044c0       ?getNumParticleAccelerations@?$ClothImpl@VCuCloth@cloth@nv@@@cloth@nv@@UEBAIXZ 00000001800054c0 f i CuCloth.obj
 0001:000044e0       ?setWindVelocity@?$ClothImpl@VCuCloth@cloth@nv@@@cloth@nv@@UEAAXVPxVec3@physx@@@Z 00000001800054e0 f i CuCloth.obj
 0001:00004540       ?getWindVelocity@?$ClothImpl@VCuCloth@cloth@nv@@@cloth@nv@@UEBA?AVPxVec3@physx@@XZ 0000000180005540 f i CuCloth.obj
 0001:00004560       ?setDragCoefficient@?$ClothImpl@VCuCloth@cloth@nv@@@cloth@nv@@UEAAXM@Z 0000000180005560 f i CuCloth.obj
 0001:000045d0       ?getDragCoefficient@?$ClothImpl@VCuCloth@cloth@nv@@@cloth@nv@@UEBAMXZ 00000001800055d0 f i CuCloth.obj
 0001:00004620       ?setLiftCoefficient@?$ClothImpl@VCuCloth@cloth@nv@@@cloth@nv@@UEAAXM@Z 0000000180005620 f i CuCloth.obj
 0001:00004690       ?getLiftCoefficient@?$ClothImpl@VCuCloth@cloth@nv@@@cloth@nv@@UEBAMXZ 0000000180005690 f i CuCloth.obj
 0001:000046e0       ?setFluidDensity@?$ClothImpl@VCuCloth@cloth@nv@@@cloth@nv@@UEAAXM@Z 00000001800056e0 f i CuCloth.obj
 0001:00004710       ?getFluidDensity@?$ClothImpl@VCuCloth@cloth@nv@@@cloth@nv@@UEBAMXZ 0000000180005710 f i CuCloth.obj
 0001:00004720       ?setSelfCollisionDistance@?$ClothImpl@VCuCloth@cloth@nv@@@cloth@nv@@UEAAXM@Z 0000000180005720 f i CuCloth.obj
 0001:00004750       ?getSelfCollisionDistance@?$ClothImpl@VCuCloth@cloth@nv@@@cloth@nv@@UEBAMXZ 0000000180005750 f i CuCloth.obj
 0001:00004760       ?setSelfCollisionStiffness@?$ClothImpl@VCuCloth@cloth@nv@@@cloth@nv@@UEAAXM@Z 0000000180005760 f i CuCloth.obj
 0001:000047d0       ?getSelfCollisionStiffness@?$ClothImpl@VCuCloth@cloth@nv@@@cloth@nv@@UEBAMXZ 00000001800057d0 f i CuCloth.obj
 0001:00004820       ?getNumSelfCollisionIndices@?$ClothImpl@VCuCloth@cloth@nv@@@cloth@nv@@UEBAIXZ 0000000180005820 f i CuCloth.obj
 0001:00004840       ?setRestPositions@?$ClothImpl@VCuCloth@cloth@nv@@@cloth@nv@@UEAAXU?$Range@$$CBVPxVec4@physx@@@23@@Z 0000000180005840 f i CuCloth.obj
 0001:000048c0       ?getNumRestPositions@?$ClothImpl@VCuCloth@cloth@nv@@@cloth@nv@@UEBAIXZ 00000001800058c0 f i CuCloth.obj
 0001:000048e0       ?getBoundingBoxCenter@?$ClothImpl@VCuCloth@cloth@nv@@@cloth@nv@@UEBAAEBVPxVec3@physx@@XZ 00000001800058e0 f i CuCloth.obj
 0001:000048f0       ?getBoundingBoxScale@?$ClothImpl@VCuCloth@cloth@nv@@@cloth@nv@@UEBAAEBVPxVec3@physx@@XZ 00000001800058f0 f i CuCloth.obj
 0001:00004900       ?setSleepThreshold@?$ClothImpl@VCuCloth@cloth@nv@@@cloth@nv@@UEAAXM@Z 0000000180005900 f i CuCloth.obj
 0001:00004930       ?getSleepThreshold@?$ClothImpl@VCuCloth@cloth@nv@@@cloth@nv@@UEBAMXZ 0000000180005930 f i CuCloth.obj
 0001:00004940       ?setSleepTestInterval@?$ClothImpl@VCuCloth@cloth@nv@@@cloth@nv@@UEAAXI@Z 0000000180005940 f i CuCloth.obj
 0001:00004960       ?getSleepTestInterval@?$ClothImpl@VCuCloth@cloth@nv@@@cloth@nv@@UEBAIXZ 0000000180005960 f i CuCloth.obj
 0001:00004970       ?setSleepAfterCount@?$ClothImpl@VCuCloth@cloth@nv@@@cloth@nv@@UEAAXI@Z 0000000180005970 f i CuCloth.obj
 0001:00004990       ?getSleepAfterCount@?$ClothImpl@VCuCloth@cloth@nv@@@cloth@nv@@UEBAIXZ 0000000180005990 f i CuCloth.obj
 0001:000049a0       ?getSleepPassCount@?$ClothImpl@VCuCloth@cloth@nv@@@cloth@nv@@UEBAIXZ 00000001800059a0 f i CuCloth.obj
 0001:000049b0       ?isAsleep@?$ClothImpl@VCuCloth@cloth@nv@@@cloth@nv@@UEBA_NXZ 00000001800059b0 f i CuCloth.obj
 0001:000049c0       ?putToSleep@?$ClothImpl@VCuCloth@cloth@nv@@@cloth@nv@@UEAAXXZ 00000001800059c0 f i CuCloth.obj
 0001:000049d0       ?isSleeping@?$ClothImpl@VCuCloth@cloth@nv@@@cloth@nv@@UEBA_NXZ 00000001800059d0 f i CuCloth.obj
 0001:000049e0       ?wakeUp@?$ClothImpl@VCuCloth@cloth@nv@@@cloth@nv@@UEAAXXZ 00000001800059e0 f i CuCloth.obj
 0001:000049f0       ?setUserData@?$ClothImpl@VCuCloth@cloth@nv@@@cloth@nv@@UEAAXPEAX@Z 00000001800059f0 f i CuCloth.obj
 0001:00004a00       ?getUserData@?$ClothImpl@VCuCloth@cloth@nv@@@cloth@nv@@UEBAPEAXXZ 0000000180005a00 f i CuCloth.obj
 0001:00004a10       ?reserve@?$Array@VPxVec4@physx@@VNonTrackingAllocator@ps@cloth@nv@@@ps@cloth@nv@@QEAAXI@Z 0000000180005a10 f i CuCloth.obj
 0001:00004a20       ?pushBack@?$Array@VPxVec4@physx@@VNonTrackingAllocator@ps@cloth@nv@@@ps@cloth@nv@@QEAAAEAVPxVec4@physx@@AEBV56@@Z 0000000180005a20 f i CuCloth.obj
 0001:00004a80       ??1?$Array@VPxVec4@physx@@VNonTrackingAllocator@ps@cloth@nv@@@ps@cloth@nv@@QEAA@XZ 0000000180005a80 f i CuCloth.obj
 0001:00004ab0       ??0?$Array@VPxVec4@physx@@VNonTrackingAllocator@ps@cloth@nv@@@ps@cloth@nv@@QEAA@AEBVNonTrackingAllocator@123@@Z 0000000180005ab0 f i CuCloth.obj
 0001:00004ac0       ?reserve@?$Array@UCuPhaseConfig@cloth@nv@@VNonTrackingAllocator@ps@23@@ps@cloth@nv@@QEAAXI@Z 0000000180005ac0 f i CuCloth.obj
 0001:00004ad0       ?pushBack@?$Array@UCuPhaseConfig@cloth@nv@@VNonTrackingAllocator@ps@23@@ps@cloth@nv@@QEAAAEAUCuPhaseConfig@34@AEBU534@@Z 0000000180005ad0 f i CuCloth.obj
 0001:00004b30       ?end@?$Array@UCuPhaseConfig@cloth@nv@@VNonTrackingAllocator@ps@23@@ps@cloth@nv@@QEAAPEAUCuPhaseConfig@34@XZ 0000000180005b30 f i CuCloth.obj
 0001:00004b40       ?begin@?$Array@UCuPhaseConfig@cloth@nv@@VNonTrackingAllocator@ps@23@@ps@cloth@nv@@QEAAPEAUCuPhaseConfig@34@XZ 0000000180005b40 f i CuCloth.obj
 0001:00004b50       ??1?$Array@UCuPhaseConfig@cloth@nv@@VNonTrackingAllocator@ps@23@@ps@cloth@nv@@QEAA@XZ 0000000180005b50 f i CuCloth.obj
 0001:00004b80       ??0?$Array@UCuPhaseConfig@cloth@nv@@VNonTrackingAllocator@ps@23@@ps@cloth@nv@@QEAA@AEBVNonTrackingAllocator@123@@Z 0000000180005b80 f i CuCloth.obj
 0001:00004b90       ?reserve@?$Array@U?$Vec4T@G@cloth@nv@@VNonTrackingAllocator@ps@23@@ps@cloth@nv@@QEAAXI@Z 0000000180005b90 f i CuCloth.obj
 0001:00004ba0       ?pushBack@?$Array@U?$Vec4T@G@cloth@nv@@VNonTrackingAllocator@ps@23@@ps@cloth@nv@@QEAAAEAU?$Vec4T@G@34@AEBU534@@Z 0000000180005ba0 f i CuCloth.obj
 0001:00004be0       ??1?$Array@U?$Vec4T@G@cloth@nv@@VNonTrackingAllocator@ps@23@@ps@cloth@nv@@QEAA@XZ 0000000180005be0 f i CuCloth.obj
 0001:00004c10       ??0?$Array@U?$Vec4T@G@cloth@nv@@VNonTrackingAllocator@ps@23@@ps@cloth@nv@@QEAA@AEBVNonTrackingAllocator@123@@Z 0000000180005c10 f i CuCloth.obj
 0001:00004c20       ?end@?$Array@U?$Vec4T@I@cloth@nv@@VNonTrackingAllocator@ps@23@@ps@cloth@nv@@QEAAPEAU?$Vec4T@I@34@XZ 0000000180005c20 f i CuCloth.obj
 0001:00004c30       ?begin@?$Array@U?$Vec4T@I@cloth@nv@@VNonTrackingAllocator@ps@23@@ps@cloth@nv@@QEAAPEAU?$Vec4T@I@34@XZ 0000000180005c30 f i CuCloth.obj
 0001:00004c40       ??1?$Array@U?$Vec4T@I@cloth@nv@@VNonTrackingAllocator@ps@23@@ps@cloth@nv@@QEAA@XZ 0000000180005c40 f i CuCloth.obj
 0001:00004c70       ??A?$Array@V?$CuDevicePointer@$$CBG@cloth@nv@@VNonTrackingAllocator@ps@23@@ps@cloth@nv@@QEAAAEAV?$CuDevicePointer@$$CBG@23@I@Z 0000000180005c70 f i CuCloth.obj
 0001:00004c80       ??A?$Array@V?$CuDevicePointer@$$CBM@cloth@nv@@VNonTrackingAllocator@ps@23@@ps@cloth@nv@@QEAAAEAV?$CuDevicePointer@$$CBM@23@I@Z 0000000180005c80 f i CuCloth.obj
 0001:00004c90       ?get@?$CuDevicePointer@$$CBG@cloth@nv@@QEBAPEBGXZ 0000000180005c90 f i CuCloth.obj
 0001:00004ca0       ?get@?$CuDevicePointer@$$CBM@cloth@nv@@QEBAPEBMXZ 0000000180005ca0 f i CuCloth.obj
 0001:00004cb0       ??H?$CuDevicePointer@M@cloth@nv@@QEBA?AV012@AEB_J@Z 0000000180005cb0 f i CuCloth.obj
 0001:00004cd0       ?dev@?$CuDevicePointer@M@cloth@nv@@QEBA_KXZ 0000000180005cd0 f i CuCloth.obj
 0001:00004ce0       ?resize@?$CuDeviceVector@M@cloth@nv@@QEAAX_K@Z 0000000180005ce0 f i CuCloth.obj
 0001:00004e00       ?begin@?$CuDeviceVector@M@cloth@nv@@QEAA?AV?$CuDevicePointer@M@23@XZ 0000000180005e00 f i CuCloth.obj
 0001:00004e10       ?empty@?$CuDeviceVector@M@cloth@nv@@QEBA_NXZ 0000000180005e10 f i CuCloth.obj
 0001:00004e20       ??1?$CuDeviceVector@M@cloth@nv@@QEAA@XZ 0000000180005e20 f i CuCloth.obj
 0001:00004e50       ??0?$CuDeviceVector@M@cloth@nv@@QEAA@PEAUCUctx_st@@@Z 0000000180005e50 f i CuCloth.obj
 0001:00004e70       ?assign@?$Array@IVNonTrackingAllocator@ps@cloth@nv@@@ps@cloth@nv@@QEAAXPEBI0@Z 0000000180005e70 f i CuCloth.obj
 0001:00004ec0       ??A?$Array@IVNonTrackingAllocator@ps@cloth@nv@@@ps@cloth@nv@@QEAAAEAII@Z 0000000180005ec0 f i CuCloth.obj
 0001:00004ed0       ??1?$Array@IVNonTrackingAllocator@ps@cloth@nv@@@ps@cloth@nv@@QEAA@XZ 0000000180005ed0 f i CuCloth.obj
 0001:00004f00       ??0?$Array@IVNonTrackingAllocator@ps@cloth@nv@@@ps@cloth@nv@@QEAA@AEBVNonTrackingAllocator@123@@Z 0000000180005f00 f i CuCloth.obj
 0001:00004f10       ?size@?$CuDeviceVector@U?$Vec4T@G@cloth@nv@@@cloth@nv@@QEBA_KXZ 0000000180005f10 f i CuCloth.obj
 0001:00004f20       ??1?$CuDeviceVector@U?$Vec4T@G@cloth@nv@@@cloth@nv@@QEAA@XZ 0000000180005f20 f i CuCloth.obj
 0001:00004f50       ??0?$CuDeviceVector@U?$Vec4T@G@cloth@nv@@@cloth@nv@@QEAA@AEBV012@@Z 0000000180005f50 f i CuCloth.obj
 0001:00004fc0       ??0?$CuDeviceVector@U?$Vec4T@G@cloth@nv@@@cloth@nv@@QEAA@PEAUCUctx_st@@@Z 0000000180005fc0 f i CuCloth.obj
 0001:00004fe0       ?size@?$CuDeviceVector@I@cloth@nv@@QEBA_KXZ 0000000180005fe0 f i CuCloth.obj
 0001:00004ff0       ?empty@?$CuDeviceVector@I@cloth@nv@@QEBA_NXZ 0000000180005ff0 f i CuCloth.obj
 0001:00005000       ??1?$CuDeviceVector@I@cloth@nv@@QEAA@XZ 0000000180006000 f i CuCloth.obj
 0001:00005030       ??0?$CuDeviceVector@I@cloth@nv@@QEAA@AEBV012@@Z 0000000180006030 f i CuCloth.obj
 0001:000050c0       ??0?$CuDeviceVector@I@cloth@nv@@QEAA@PEAUCUctx_st@@@Z 00000001800060c0 f i CuCloth.obj
 0001:000050e0       ?size@?$Array@VPxVec3@physx@@V?$CuHostAllocator@VPxVec3@physx@@$01@cloth@nv@@@ps@cloth@nv@@QEBAIXZ 00000001800060e0 f i CuCloth.obj
 0001:000050f0       ??1?$Array@VPxVec3@physx@@V?$CuHostAllocator@VPxVec3@physx@@$01@cloth@nv@@@ps@cloth@nv@@QEAA@XZ 00000001800060f0 f i CuCloth.obj
 0001:00005130       ??0?$CuHostAllocator@VPxVec3@physx@@$01@cloth@nv@@QEAA@PEAUCUctx_st@@@Z 0000000180006130 f i CuCloth.obj
 0001:00005140       ?size@?$Array@IV?$CuHostAllocator@I$01@cloth@nv@@@ps@cloth@nv@@QEBAIXZ 0000000180006140 f i CuCloth.obj
 0001:00005150       ??1?$Array@IV?$CuHostAllocator@I$01@cloth@nv@@@ps@cloth@nv@@QEAA@XZ 0000000180006150 f i CuCloth.obj
 0001:00005190       ??0?$CuHostAllocator@I$01@cloth@nv@@QEAA@PEAUCUctx_st@@@Z 0000000180006190 f i CuCloth.obj
 0001:000051a0       ?size@?$Array@UIndexPair@cloth@nv@@V?$CuHostAllocator@UIndexPair@cloth@nv@@$01@23@@ps@cloth@nv@@QEBAIXZ 00000001800061a0 f i CuCloth.obj
 0001:000051b0       ??1?$Array@UIndexPair@cloth@nv@@V?$CuHostAllocator@UIndexPair@cloth@nv@@$01@23@@ps@cloth@nv@@QEAA@XZ 00000001800061b0 f i CuCloth.obj
 0001:000051f0       ??0?$CuHostAllocator@UIndexPair@cloth@nv@@$01@cloth@nv@@QEAA@PEAUCUctx_st@@@Z 00000001800061f0 f i CuCloth.obj
 0001:00005200       ?assign@?$Array@UPhaseConfig@cloth@nv@@VNonTrackingAllocator@ps@23@@ps@cloth@nv@@QEAAXPEBUPhaseConfig@34@0@Z 0000000180006200 f i CuCloth.obj
 0001:00005270       ?reserve@?$Array@UPhaseConfig@cloth@nv@@VNonTrackingAllocator@ps@23@@ps@cloth@nv@@QEAAXI@Z 0000000180006270 f i CuCloth.obj
 0001:00005280       ?pushBack@?$Array@UPhaseConfig@cloth@nv@@VNonTrackingAllocator@ps@23@@ps@cloth@nv@@QEAAAEAUPhaseConfig@34@AEBU534@@Z 0000000180006280 f i CuCloth.obj
 0001:000052d0       ?end@?$Array@UPhaseConfig@cloth@nv@@VNonTrackingAllocator@ps@23@@ps@cloth@nv@@QEAAPEAUPhaseConfig@34@XZ 00000001800062d0 f i CuCloth.obj
 0001:000052e0       ?begin@?$Array@UPhaseConfig@cloth@nv@@VNonTrackingAllocator@ps@23@@ps@cloth@nv@@QEAAPEAUPhaseConfig@34@XZ 00000001800062e0 f i CuCloth.obj
 0001:000052f0       ??1?$Array@UPhaseConfig@cloth@nv@@VNonTrackingAllocator@ps@23@@ps@cloth@nv@@QEAA@XZ 00000001800062f0 f i CuCloth.obj
 0001:00005320       ??0?$Array@UPhaseConfig@cloth@nv@@VNonTrackingAllocator@ps@23@@ps@cloth@nv@@QEAA@AEBV0123@AEBVNonTrackingAllocator@123@@Z 0000000180006320 f i CuCloth.obj
 0001:00005340       ??0?$Array@UPhaseConfig@cloth@nv@@VNonTrackingAllocator@ps@23@@ps@cloth@nv@@QEAA@AEBVNonTrackingAllocator@123@@Z 0000000180006340 f i CuCloth.obj
 0001:00005350       ?size@?$CuDeviceVector@UCuPhaseConfig@cloth@nv@@@cloth@nv@@QEBA_KXZ 0000000180006350 f i CuCloth.obj
 0001:00005370       ??1?$CuDeviceVector@UCuPhaseConfig@cloth@nv@@@cloth@nv@@QEAA@XZ 0000000180006370 f i CuCloth.obj
 0001:000053a0       ??0?$CuDeviceVector@UCuPhaseConfig@cloth@nv@@@cloth@nv@@QEAA@AEBV012@@Z 00000001800063a0 f i CuCloth.obj
 0001:00005440       ??0?$CuDeviceVector@UCuPhaseConfig@cloth@nv@@@cloth@nv@@QEAA@PEAUCUctx_st@@@Z 0000000180006440 f i CuCloth.obj
 0001:00005460       ??0?$CuHostVectorImpl@I$01@cloth@nv@@QEAA@AEBV?$CuHostAllocator@I$01@12@@Z 0000000180006460 f i CuCloth.obj
 0001:00005480       ??0?$CuHostVectorImpl@UIndexPair@cloth@nv@@$01@cloth@nv@@QEAA@AEBV012@AEBV?$CuHostAllocator@UIndexPair@cloth@nv@@$01@12@@Z 0000000180006480 f i CuCloth.obj
 0001:000054a0       ??0?$CuHostVectorImpl@UIndexPair@cloth@nv@@$01@cloth@nv@@QEAA@AEBV?$CuHostAllocator@UIndexPair@cloth@nv@@$01@12@@Z 00000001800064a0 f i CuCloth.obj
 0001:000054c0       ??0?$CuHostVectorImpl@VPxVec3@physx@@$01@cloth@nv@@QEAA@AEBV012@AEBV?$CuHostAllocator@VPxVec3@physx@@$01@12@@Z 00000001800064c0 f i CuCloth.obj
 0001:000054e0       ??0?$CuHostVectorImpl@VPxVec3@physx@@$01@cloth@nv@@QEAA@AEBV?$CuHostAllocator@VPxVec3@physx@@$01@12@@Z 00000001800064e0 f i CuCloth.obj
 0001:00005500       ??0?$ClothImpl@VCuCloth@cloth@nv@@@cloth@nv@@QEAA@XZ 0000000180006500 f i CuCloth.obj
 0001:00005560       ?capacity@?$Array@VPxVec4@physx@@V?$CuHostAllocator@VPxVec4@physx@@$01@cloth@nv@@@ps@cloth@nv@@QEBAIXZ 0000000180006560 f i CuCloth.obj
 0001:00005570       ?reserve@?$Array@VPxVec4@physx@@V?$CuHostAllocator@VPxVec4@physx@@$01@cloth@nv@@@ps@cloth@nv@@QEAAXI@Z 0000000180006570 f i CuCloth.obj
 0001:00005580       ?empty@?$Array@VPxVec4@physx@@V?$CuHostAllocator@VPxVec4@physx@@$01@cloth@nv@@@ps@cloth@nv@@QEBA_NXZ 0000000180006580 f i CuCloth.obj
 0001:00005590       ?size@?$Array@VPxVec4@physx@@V?$CuHostAllocator@VPxVec4@physx@@$01@cloth@nv@@@ps@cloth@nv@@QEBAIXZ 0000000180006590 f i CuCloth.obj
 0001:000055a0       ?front@?$Array@VPxVec4@physx@@V?$CuHostAllocator@VPxVec4@physx@@$01@cloth@nv@@@ps@cloth@nv@@QEAAAEAVPxVec4@physx@@XZ 00000001800065a0 f i CuCloth.obj
 0001:000055b0       ?end@?$Array@VPxVec4@physx@@V?$CuHostAllocator@VPxVec4@physx@@$01@cloth@nv@@@ps@cloth@nv@@QEAAPEAVPxVec4@physx@@XZ 00000001800065b0 f i CuCloth.obj
 0001:000055c0       ?begin@?$Array@VPxVec4@physx@@V?$CuHostAllocator@VPxVec4@physx@@$01@cloth@nv@@@ps@cloth@nv@@QEAAPEAVPxVec4@physx@@XZ 00000001800065c0 f i CuCloth.obj
 0001:000055d0       ?begin@?$Array@VPxVec4@physx@@V?$CuHostAllocator@VPxVec4@physx@@$01@cloth@nv@@@ps@cloth@nv@@QEBAPEBVPxVec4@physx@@XZ 00000001800065d0 f i CuCloth.obj
 0001:000055e0       ??1?$Array@VPxVec4@physx@@V?$CuHostAllocator@VPxVec4@physx@@$01@cloth@nv@@@ps@cloth@nv@@QEAA@XZ 00000001800065e0 f i CuCloth.obj
 0001:00005620       ??0?$CuHostAllocator@VPxVec4@physx@@$01@cloth@nv@@QEAA@PEAUCUctx_st@@@Z 0000000180006620 f i CuCloth.obj
 0001:00005630       ?swap@?$CuHostVectorImpl@VPxVec4@physx@@$01@cloth@nv@@QEAAXAEAV123@@Z 0000000180006630 f i CuCloth.obj
 0001:00005670       ??0?$CuHostVectorImpl@VPxVec4@physx@@$01@cloth@nv@@QEAA@AEBV012@AEBV?$CuHostAllocator@VPxVec4@physx@@$01@12@@Z 0000000180006670 f i CuCloth.obj
 0001:00005690       ??0?$CuHostVectorImpl@VPxVec4@physx@@$01@cloth@nv@@QEAA@AEBV?$CuHostAllocator@VPxVec4@physx@@$01@12@@Z 0000000180006690 f i CuCloth.obj
 0001:000056b0       ?dev@?$CuDevicePointer@VPxVec4@physx@@@cloth@nv@@QEBA_KXZ 00000001800066b0 f i CuCloth.obj
 0001:000056c0       ?get@?$CuDevicePointer@VPxVec4@physx@@@cloth@nv@@QEBAPEAVPxVec4@physx@@XZ 00000001800066c0 f i CuCloth.obj
 0001:000056d0       ?swap@?$CuDeviceVector@VPxVec4@physx@@@cloth@nv@@QEAAXAEAV123@@Z 00000001800066d0 f i CuCloth.obj
 0001:00005710       ?resize@?$CuDeviceVector@VPxVec4@physx@@@cloth@nv@@QEAAX_K@Z 0000000180006710 f i CuCloth.obj
 0001:00005760       ?reserve@?$CuDeviceVector@VPxVec4@physx@@@cloth@nv@@QEAAX_K@Z 0000000180006760 f i CuCloth.obj
 0001:00005840       ?push_back@?$CuDeviceVector@VPxVec4@physx@@@cloth@nv@@QEAAXPEBVPxVec4@physx@@0@Z 0000000180006840 f i CuCloth.obj
 0001:00005900       ?begin@?$CuDeviceVector@VPxVec4@physx@@@cloth@nv@@QEAA?AV?$CuDevicePointer@VPxVec4@physx@@@23@XZ 0000000180006900 f i CuCloth.obj
 0001:00005910       ?capacity@?$CuDeviceVector@VPxVec4@physx@@@cloth@nv@@QEBA_KXZ 0000000180006910 f i CuCloth.obj
 0001:00005920       ?empty@?$CuDeviceVector@VPxVec4@physx@@@cloth@nv@@QEBA_NXZ 0000000180006920 f i CuCloth.obj
 0001:00005930       ??1?$CuDeviceVector@VPxVec4@physx@@@cloth@nv@@QEAA@XZ 0000000180006930 f i CuCloth.obj
 0001:00005960       ??0?$CuDeviceVector@VPxVec4@physx@@@cloth@nv@@QEAA@AEBV012@@Z 0000000180006960 f i CuCloth.obj
 0001:000059f0       ??0?$CuDeviceVector@VPxVec4@physx@@@cloth@nv@@QEAA@PEAUCUctx_st@@@Z 00000001800069f0 f i CuCloth.obj
 0001:00005a10       ??1?$MappedRange@$$CBVPxVec4@physx@@@cloth@nv@@QEAA@XZ 0000000180006a10 f i CuCloth.obj
 0001:00005a30       ??1?$MappedRange@VPxVec4@physx@@@cloth@nv@@QEAA@XZ 0000000180006a30 f i CuCloth.obj
 0001:00005a50       ??4PxTransform@physx@@QEAAAEAV01@AEBV01@@Z 0000000180006a50 f i CuCloth.obj
 0001:00005a80       ??_E?$ClothImpl@VCuCloth@cloth@nv@@@cloth@nv@@UEAAPEAXI@Z 0000000180006a80 f i * CIL library *:* CIL module *
 0001:00005a80       ??_G?$ClothImpl@VCuCloth@cloth@nv@@@cloth@nv@@UEAAPEAXI@Z 0000000180006a80 f i CuCloth.obj
 0001:00005b00       ??$assign@PEBU?$Vec4T@G@cloth@nv@@@?$CuDeviceVector@U?$Vec4T@G@cloth@nv@@@cloth@nv@@QEAAXPEBU?$Vec4T@G@12@0@Z 0000000180006b00 f i CuCloth.obj
 0001:00005b70       ??$assign@PEBVPxVec4@physx@@@?$CuDeviceVector@VPxVec4@physx@@@cloth@nv@@QEAAXPEBVPxVec4@physx@@0@Z 0000000180006b70 f i CuCloth.obj
 0001:00005c00       ??$min@PEBVPxVec4@physx@@@std@@YAAEBQEBVPxVec4@physx@@AEBQEBV12@0@Z 0000000180006c00 f i CuCloth.obj
 0001:00005c10       ??$move@PEAVPxVec4@physx@@@cloth@nv@@YAXPEAVPxVec4@physx@@III@Z 0000000180006c10 f i CuCloth.obj
 0001:00005df0       ??$move@PEAUIndexPair@cloth@nv@@@cloth@nv@@YAXPEAUIndexPair@01@III@Z 0000000180006df0 f i CuCloth.obj
 0001:00005e60       ??$move@PEAI@cloth@nv@@YAXPEAIIII@Z 0000000180006e60 f i CuCloth.obj
 0001:00005ee0       ??$move@PEAVPxVec3@physx@@@cloth@nv@@YAXPEAVPxVec3@physx@@III@Z 0000000180006ee0 f i CuCloth.obj
 0001:00006070       ??$swap@VPxVec4@physx@@$01@ps@cloth@nv@@YAXAEAV?$CuHostVectorImpl@VPxVec4@physx@@$01@12@0@Z 0000000180007070 f i CuCloth.obj
 0001:000060b0       ??$?0M@?$CuDevicePointer@M@cloth@nv@@QEAA@PEAM@Z 00000001800070b0 f i CuCloth.obj
 0001:000060c0       ??$max@_K@std@@YAAEB_KAEB_K0@Z 00000001800070c0 f i CuCloth.obj
 0001:000060d0       ??$?8M@?$CuDevicePointer@M@cloth@nv@@QEBA_NAEBV012@@Z 00000001800070d0 f i CuCloth.obj
 0001:000060e0       ??$?8I@?$CuDevicePointer@I@cloth@nv@@QEBA_NAEBV012@@Z 00000001800070e0 f i CuCloth.obj
 0001:000060f0       ??$copy@VNonTrackingAllocator@ps@cloth@nv@@@?$Array@UPhaseConfig@cloth@nv@@VNonTrackingAllocator@ps@23@@ps@cloth@nv@@IEAAXAEBV0123@@Z 00000001800070f0 f i CuCloth.obj
 0001:000061a0       ??$swap@_K@ps@cloth@nv@@YAXAEA_K0@Z 00000001800071a0 f i CuCloth.obj
 0001:000061b0       ??$swap@V?$CuDevicePointer@VPxVec4@physx@@@cloth@nv@@$0A@@std@@YAXAEAV?$CuDevicePointer@VPxVec4@physx@@@cloth@nv@@0@Z 00000001800071b0 f i CuCloth.obj
 0001:000061c0       ??$?0VPxVec4@physx@@@?$CuDevicePointer@VPxVec4@physx@@@cloth@nv@@QEAA@PEAVPxVec4@physx@@@Z 00000001800071c0 f i CuCloth.obj
 0001:000061d0       ??$?8VPxVec4@physx@@@?$CuDevicePointer@VPxVec4@physx@@@cloth@nv@@QEBA_NAEBV012@@Z 00000001800071d0 f i CuCloth.obj
 0001:000061e0       ??0?$Range@$$CBVPxVec4@physx@@@cloth@nv@@QEAA@PEBVPxVec4@physx@@0@Z 00000001800071e0 f i CuCloth.obj
 0001:000061f0       ??A?$Range@$$CBVPxVec4@physx@@@cloth@nv@@QEBAAEBVPxVec4@physx@@I@Z 00000001800071f0 f i CuCloth.obj
 0001:00006200       ?size@?$Range@$$CBI@cloth@nv@@QEBAIXZ 0000000180007200 f i CuCloth.obj
 0001:00006210       ??A?$Range@$$CBI@cloth@nv@@QEBAAEBII@Z 0000000180007210 f i CuCloth.obj
 0001:00006220       ??A?$Range@$$CBVPxVec3@physx@@@cloth@nv@@QEBAAEBVPxVec3@physx@@I@Z 0000000180007220 f i CuCloth.obj
 0001:00006230       ?resize@?$Array@VPxVec4@physx@@V?$CuHostAllocator@VPxVec4@physx@@$01@cloth@nv@@@ps@cloth@nv@@QEAAXIAEBVPxVec4@physx@@@Z 0000000180007230 f i CuCloth.obj
 0001:00006340       ?resizeUninitialized@?$Array@UPhaseConfig@cloth@nv@@VNonTrackingAllocator@ps@23@@ps@cloth@nv@@QEAAXI@Z 0000000180007340 f i CuCloth.obj
 0001:00006380       ?growAndPushBack@?$Array@UPhaseConfig@cloth@nv@@VNonTrackingAllocator@ps@23@@ps@cloth@nv@@IEAAAEAUPhaseConfig@34@AEBU534@@Z 0000000180007380 f i CuCloth.obj
 0001:00006490       ?resize@?$Array@UIndexPair@cloth@nv@@V?$CuHostAllocator@UIndexPair@cloth@nv@@$01@23@@ps@cloth@nv@@QEAAXIAEBUIndexPair@34@@Z 0000000180007490 f i CuCloth.obj
 0001:00006550       ?resize@?$Array@IV?$CuHostAllocator@I$01@cloth@nv@@@ps@cloth@nv@@QEAAXIAEBI@Z 0000000180007550 f i CuCloth.obj
 0001:00006610       ?resize@?$Array@VPxVec3@physx@@V?$CuHostAllocator@VPxVec3@physx@@$01@cloth@nv@@@ps@cloth@nv@@QEAAXIAEBVPxVec3@physx@@@Z 0000000180007610 f i CuCloth.obj
 0001:00006700       ?resizeUninitialized@?$Array@IVNonTrackingAllocator@ps@cloth@nv@@@ps@cloth@nv@@QEAAXI@Z 0000000180007700 f i CuCloth.obj
 0001:00006740       ?growAndPushBack@?$Array@U?$Vec4T@G@cloth@nv@@VNonTrackingAllocator@ps@23@@ps@cloth@nv@@IEAAAEAU?$Vec4T@G@34@AEBU534@@Z 0000000180007740 f i CuCloth.obj
 0001:00006830       ?growAndPushBack@?$Array@UCuPhaseConfig@cloth@nv@@VNonTrackingAllocator@ps@23@@ps@cloth@nv@@IEAAAEAUCuPhaseConfig@34@AEBU534@@Z 0000000180007830 f i CuCloth.obj
 0001:00006960       ?growAndPushBack@?$Array@VPxVec4@physx@@VNonTrackingAllocator@ps@cloth@nv@@@ps@cloth@nv@@IEAAAEAVPxVec4@physx@@AEBV56@@Z 0000000180007960 f i CuCloth.obj
 0001:00006a50       ?grow@?$Array@VPxVec4@physx@@VNonTrackingAllocator@ps@cloth@nv@@@ps@cloth@nv@@IEAAXI@Z 0000000180007a50 f i CuCloth.obj
 0001:00006a60       ?destroy@?$Array@VPxVec4@physx@@VNonTrackingAllocator@ps@cloth@nv@@@ps@cloth@nv@@KAXPEAVPxVec4@physx@@0@Z 0000000180007a60 f i CuCloth.obj
 0001:00006a70       ?deallocate@?$Array@VPxVec4@physx@@VNonTrackingAllocator@ps@cloth@nv@@@ps@cloth@nv@@IEAAXPEAX@Z 0000000180007a70 f i CuCloth.obj
 0001:00006a90       ?isInUserMemory@?$Array@VPxVec4@physx@@VNonTrackingAllocator@ps@cloth@nv@@@ps@cloth@nv@@QEBAIXZ 0000000180007a90 f i CuCloth.obj
 0001:00006aa0       ?capacity@?$Array@VPxVec4@physx@@VNonTrackingAllocator@ps@cloth@nv@@@ps@cloth@nv@@QEBAIXZ 0000000180007aa0 f i CuCloth.obj
 0001:00006ab0       ?empty@?$Array@VPxVec4@physx@@VNonTrackingAllocator@ps@cloth@nv@@@ps@cloth@nv@@QEBA_NXZ 0000000180007ab0 f i CuCloth.obj
 0001:00006ac0       ?size@?$Array@VPxVec4@physx@@VNonTrackingAllocator@ps@cloth@nv@@@ps@cloth@nv@@QEBAIXZ 0000000180007ac0 f i CuCloth.obj
 0001:00006ad0       ?front@?$Array@VPxVec4@physx@@VNonTrackingAllocator@ps@cloth@nv@@@ps@cloth@nv@@QEBAAEBVPxVec4@physx@@XZ 0000000180007ad0 f i CuCloth.obj
 0001:00006ae0       ?grow@?$Array@UCuPhaseConfig@cloth@nv@@VNonTrackingAllocator@ps@23@@ps@cloth@nv@@IEAAXI@Z 0000000180007ae0 f i CuCloth.obj
 0001:00006af0       ?destroy@?$Array@UCuPhaseConfig@cloth@nv@@VNonTrackingAllocator@ps@23@@ps@cloth@nv@@KAXPEAUCuPhaseConfig@34@0@Z 0000000180007af0 f i CuCloth.obj
 0001:00006b00       ?deallocate@?$Array@UCuPhaseConfig@cloth@nv@@VNonTrackingAllocator@ps@23@@ps@cloth@nv@@IEAAXPEAX@Z 0000000180007b00 f i CuCloth.obj
 0001:00006b20       ?isInUserMemory@?$Array@UCuPhaseConfig@cloth@nv@@VNonTrackingAllocator@ps@23@@ps@cloth@nv@@QEBAIXZ 0000000180007b20 f i CuCloth.obj
 0001:00006b30       ?capacity@?$Array@UCuPhaseConfig@cloth@nv@@VNonTrackingAllocator@ps@23@@ps@cloth@nv@@QEBAIXZ 0000000180007b30 f i CuCloth.obj
 0001:00006b40       ?grow@?$Array@U?$Vec4T@G@cloth@nv@@VNonTrackingAllocator@ps@23@@ps@cloth@nv@@IEAAXI@Z 0000000180007b40 f i CuCloth.obj
 0001:00006b50       ?destroy@?$Array@U?$Vec4T@G@cloth@nv@@VNonTrackingAllocator@ps@23@@ps@cloth@nv@@KAXPEAU?$Vec4T@G@34@0@Z 0000000180007b50 f i CuCloth.obj
 0001:00006b60       ?deallocate@?$Array@U?$Vec4T@G@cloth@nv@@VNonTrackingAllocator@ps@23@@ps@cloth@nv@@IEAAXPEAX@Z 0000000180007b60 f i CuCloth.obj
 0001:00006b80       ?isInUserMemory@?$Array@U?$Vec4T@G@cloth@nv@@VNonTrackingAllocator@ps@23@@ps@cloth@nv@@QEBAIXZ 0000000180007b80 f i CuCloth.obj
 0001:00006b90       ?capacity@?$Array@U?$Vec4T@G@cloth@nv@@VNonTrackingAllocator@ps@23@@ps@cloth@nv@@QEBAIXZ 0000000180007b90 f i CuCloth.obj
 0001:00006ba0       ?empty@?$Array@U?$Vec4T@G@cloth@nv@@VNonTrackingAllocator@ps@23@@ps@cloth@nv@@QEBA_NXZ 0000000180007ba0 f i CuCloth.obj
 0001:00006bb0       ?size@?$Array@U?$Vec4T@G@cloth@nv@@VNonTrackingAllocator@ps@23@@ps@cloth@nv@@QEBAIXZ 0000000180007bb0 f i CuCloth.obj
 0001:00006bc0       ?front@?$Array@U?$Vec4T@G@cloth@nv@@VNonTrackingAllocator@ps@23@@ps@cloth@nv@@QEBAAEBU?$Vec4T@G@34@XZ 0000000180007bc0 f i CuCloth.obj
 0001:00006bd0       ?destroy@?$Array@U?$Vec4T@I@cloth@nv@@VNonTrackingAllocator@ps@23@@ps@cloth@nv@@KAXPEAU?$Vec4T@I@34@0@Z 0000000180007bd0 f i CuCloth.obj
 0001:00006be0       ?deallocate@?$Array@U?$Vec4T@I@cloth@nv@@VNonTrackingAllocator@ps@23@@ps@cloth@nv@@IEAAXPEAX@Z 0000000180007be0 f i CuCloth.obj
 0001:00006c00       ?isInUserMemory@?$Array@U?$Vec4T@I@cloth@nv@@VNonTrackingAllocator@ps@23@@ps@cloth@nv@@QEBAIXZ 0000000180007c00 f i CuCloth.obj
 0001:00006c10       ?capacity@?$Array@U?$Vec4T@I@cloth@nv@@VNonTrackingAllocator@ps@23@@ps@cloth@nv@@QEBAIXZ 0000000180007c10 f i CuCloth.obj
 0001:00006c20       ??0?$CuDevicePointer@M@cloth@nv@@QEAA@AEBV012@@Z 0000000180007c20 f i CuCloth.obj
 0001:00006c30       ??0?$CuDevicePointer@M@cloth@nv@@QEAA@XZ 0000000180007c30 f i CuCloth.obj
 0001:00006c40       ?reserve@?$CuDeviceVector@M@cloth@nv@@QEAAX_K@Z 0000000180007c40 f i CuCloth.obj
 0001:00006d20       ?capacity@?$CuDeviceVector@M@cloth@nv@@QEBA_KXZ 0000000180007d20 f i CuCloth.obj
 0001:00006d30       ?destroy@?$Array@IVNonTrackingAllocator@ps@cloth@nv@@@ps@cloth@nv@@KAXPEAI0@Z 0000000180007d30 f i CuCloth.obj
 0001:00006d40       ?copy@?$Array@IVNonTrackingAllocator@ps@cloth@nv@@@ps@cloth@nv@@KAXPEAI0PEBI@Z 0000000180007d40 f i CuCloth.obj
 0001:00006d60       ?deallocate@?$Array@IVNonTrackingAllocator@ps@cloth@nv@@@ps@cloth@nv@@IEAAXPEAX@Z 0000000180007d60 f i CuCloth.obj
 0001:00006d80       ?isInUserMemory@?$Array@IVNonTrackingAllocator@ps@cloth@nv@@@ps@cloth@nv@@QEBAIXZ 0000000180007d80 f i CuCloth.obj
 0001:00006d90       ?capacity@?$Array@IVNonTrackingAllocator@ps@cloth@nv@@@ps@cloth@nv@@QEBAIXZ 0000000180007d90 f i CuCloth.obj
 0001:00006da0       ?empty@?$Array@IVNonTrackingAllocator@ps@cloth@nv@@@ps@cloth@nv@@QEBA_NXZ 0000000180007da0 f i CuCloth.obj
 0001:00006db0       ?size@?$Array@IVNonTrackingAllocator@ps@cloth@nv@@@ps@cloth@nv@@QEBAIXZ 0000000180007db0 f i CuCloth.obj
 0001:00006dc0       ?front@?$Array@IVNonTrackingAllocator@ps@cloth@nv@@@ps@cloth@nv@@QEBAAEBIXZ 0000000180007dc0 f i CuCloth.obj
 0001:00006dd0       ?end@?$Array@IVNonTrackingAllocator@ps@cloth@nv@@@ps@cloth@nv@@QEAAPEAIXZ 0000000180007dd0 f i CuCloth.obj
 0001:00006de0       ?begin@?$Array@IVNonTrackingAllocator@ps@cloth@nv@@@ps@cloth@nv@@QEAAPEAIXZ 0000000180007de0 f i CuCloth.obj
 0001:00006df0       ??G?$CuDevicePointer@U?$Vec4T@G@cloth@nv@@@cloth@nv@@QEBA_JAEBV012@@Z 0000000180007df0 f i CuCloth.obj
 0001:00006e00       ?dev@?$CuDevicePointer@U?$Vec4T@G@cloth@nv@@@cloth@nv@@QEBA_KXZ 0000000180007e00 f i CuCloth.obj
 0001:00006e10       ??0?$CuDevicePointer@U?$Vec4T@G@cloth@nv@@@cloth@nv@@QEAA@XZ 0000000180007e10 f i CuCloth.obj
 0001:00006e20       ??4?$CuDeviceVector@U?$Vec4T@G@cloth@nv@@@cloth@nv@@QEAAAEAV012@AEBV012@@Z 0000000180007e20 f i CuCloth.obj
 0001:00006e80       ??G?$CuDevicePointer@I@cloth@nv@@QEBA_JAEBV012@@Z 0000000180007e80 f i CuCloth.obj
 0001:00006e90       ?dev@?$CuDevicePointer@I@cloth@nv@@QEBA_KXZ 0000000180007e90 f i CuCloth.obj
 0001:00006ea0       ??0?$CuDevicePointer@I@cloth@nv@@QEAA@XZ 0000000180007ea0 f i CuCloth.obj
 0001:00006eb0       ?resize@?$CuDeviceVector@I@cloth@nv@@QEAAX_K@Z 0000000180007eb0 f i CuCloth.obj
 0001:00006f00       ??4?$CuDeviceVector@I@cloth@nv@@QEAAAEAV012@AEBV012@@Z 0000000180007f00 f i CuCloth.obj
 0001:00006f90       ?destroy@?$Array@VPxVec3@physx@@V?$CuHostAllocator@VPxVec3@physx@@$01@cloth@nv@@@ps@cloth@nv@@KAXPEAVPxVec3@physx@@0@Z 0000000180007f90 f i CuCloth.obj
 0001:00006fa0       ?deallocate@?$Array@VPxVec3@physx@@V?$CuHostAllocator@VPxVec3@physx@@$01@cloth@nv@@@ps@cloth@nv@@IEAAXPEAX@Z 0000000180007fa0 f i CuCloth.obj
 0001:00006fd0       ?isInUserMemory@?$Array@VPxVec3@physx@@V?$CuHostAllocator@VPxVec3@physx@@$01@cloth@nv@@@ps@cloth@nv@@QEBAIXZ 0000000180007fd0 f i CuCloth.obj
 0001:00006fe0       ?assign@?$Array@VPxVec3@physx@@V?$CuHostAllocator@VPxVec3@physx@@$01@cloth@nv@@@ps@cloth@nv@@QEAAXPEBVPxVec3@physx@@0@Z 0000000180007fe0 f i CuCloth.obj
 0001:00007030       ?capacity@?$Array@VPxVec3@physx@@V?$CuHostAllocator@VPxVec3@physx@@$01@cloth@nv@@@ps@cloth@nv@@QEBAIXZ 0000000180008030 f i CuCloth.obj
 0001:00007040       ?reserve@?$Array@VPxVec3@physx@@V?$CuHostAllocator@VPxVec3@physx@@$01@cloth@nv@@@ps@cloth@nv@@QEAAXI@Z 0000000180008040 f i CuCloth.obj
 0001:00007050       ?pushBack@?$Array@VPxVec3@physx@@V?$CuHostAllocator@VPxVec3@physx@@$01@cloth@nv@@@ps@cloth@nv@@QEAAAEAVPxVec3@physx@@AEBV56@@Z 0000000180008050 f i CuCloth.obj
 0001:000070b0       ?begin@?$Array@VPxVec3@physx@@V?$CuHostAllocator@VPxVec3@physx@@$01@cloth@nv@@@ps@cloth@nv@@QEAAPEAVPxVec3@physx@@XZ 00000001800080b0 f i CuCloth.obj
 0001:000070c0       ??A?$Array@VPxVec3@physx@@V?$CuHostAllocator@VPxVec3@physx@@$01@cloth@nv@@@ps@cloth@nv@@QEAAAEAVPxVec3@physx@@I@Z 00000001800080c0 f i CuCloth.obj
 0001:000070d0       ??0?$Array@VPxVec3@physx@@V?$CuHostAllocator@VPxVec3@physx@@$01@cloth@nv@@@ps@cloth@nv@@QEAA@AEBV0123@AEBV?$CuHostAllocator@VPxVec3@physx@@$01@23@@Z 00000001800080d0 f i CuCloth.obj
 0001:000070f0       ??0?$Array@VPxVec3@physx@@V?$CuHostAllocator@VPxVec3@physx@@$01@cloth@nv@@@ps@cloth@nv@@QEAA@AEBV?$CuHostAllocator@VPxVec3@physx@@$01@23@@Z 00000001800080f0 f i CuCloth.obj
 0001:00007110       ?destroy@?$Array@IV?$CuHostAllocator@I$01@cloth@nv@@@ps@cloth@nv@@KAXPEAI0@Z 0000000180008110 f i CuCloth.obj
 0001:00007120       ?deallocate@?$Array@IV?$CuHostAllocator@I$01@cloth@nv@@@ps@cloth@nv@@IEAAXPEAX@Z 0000000180008120 f i CuCloth.obj
 0001:00007150       ?isInUserMemory@?$Array@IV?$CuHostAllocator@I$01@cloth@nv@@@ps@cloth@nv@@QEBAIXZ 0000000180008150 f i CuCloth.obj
 0001:00007160       ?capacity@?$Array@IV?$CuHostAllocator@I$01@cloth@nv@@@ps@cloth@nv@@QEBAIXZ 0000000180008160 f i CuCloth.obj
 0001:00007170       ?reserve@?$Array@IV?$CuHostAllocator@I$01@cloth@nv@@@ps@cloth@nv@@QEAAXI@Z 0000000180008170 f i CuCloth.obj
 0001:00007180       ?replaceWithLast@?$Array@IV?$CuHostAllocator@I$01@cloth@nv@@@ps@cloth@nv@@QEAAXPEAI@Z 0000000180008180 f i CuCloth.obj
 0001:000071a0       ?end@?$Array@IV?$CuHostAllocator@I$01@cloth@nv@@@ps@cloth@nv@@QEAAPEAIXZ 00000001800081a0 f i CuCloth.obj
 0001:000071b0       ?begin@?$Array@IV?$CuHostAllocator@I$01@cloth@nv@@@ps@cloth@nv@@QEAAPEAIXZ 00000001800081b0 f i CuCloth.obj
 0001:000071c0       ??A?$Array@IV?$CuHostAllocator@I$01@cloth@nv@@@ps@cloth@nv@@QEAAAEAII@Z 00000001800081c0 f i CuCloth.obj
 0001:000071d0       ??0?$Array@IV?$CuHostAllocator@I$01@cloth@nv@@@ps@cloth@nv@@QEAA@AEBV?$CuHostAllocator@I$01@23@@Z 00000001800081d0 f i CuCloth.obj
 0001:000071f0       ?destroy@?$Array@UIndexPair@cloth@nv@@V?$CuHostAllocator@UIndexPair@cloth@nv@@$01@23@@ps@cloth@nv@@KAXPEAUIndexPair@34@0@Z 00000001800081f0 f i CuCloth.obj
 0001:00007200       ?deallocate@?$Array@UIndexPair@cloth@nv@@V?$CuHostAllocator@UIndexPair@cloth@nv@@$01@23@@ps@cloth@nv@@IEAAXPEAX@Z 0000000180008200 f i CuCloth.obj
 0001:00007230       ?isInUserMemory@?$Array@UIndexPair@cloth@nv@@V?$CuHostAllocator@UIndexPair@cloth@nv@@$01@23@@ps@cloth@nv@@QEBAIXZ 0000000180008230 f i CuCloth.obj
 0001:00007240       ?capacity@?$Array@UIndexPair@cloth@nv@@V?$CuHostAllocator@UIndexPair@cloth@nv@@$01@23@@ps@cloth@nv@@QEBAIXZ 0000000180008240 f i CuCloth.obj
 0001:00007250       ?reserve@?$Array@UIndexPair@cloth@nv@@V?$CuHostAllocator@UIndexPair@cloth@nv@@$01@23@@ps@cloth@nv@@QEAAXI@Z 0000000180008250 f i CuCloth.obj
 0001:00007260       ?replaceWithLast@?$Array@UIndexPair@cloth@nv@@V?$CuHostAllocator@UIndexPair@cloth@nv@@$01@23@@ps@cloth@nv@@QEAAXPEAUIndexPair@34@@Z 0000000180008260 f i CuCloth.obj
 0001:00007280       ?end@?$Array@UIndexPair@cloth@nv@@V?$CuHostAllocator@UIndexPair@cloth@nv@@$01@23@@ps@cloth@nv@@QEAAPEAUIndexPair@34@XZ 0000000180008280 f i CuCloth.obj
 0001:00007290       ?begin@?$Array@UIndexPair@cloth@nv@@V?$CuHostAllocator@UIndexPair@cloth@nv@@$01@23@@ps@cloth@nv@@QEAAPEAUIndexPair@34@XZ 0000000180008290 f i CuCloth.obj
 0001:000072a0       ??A?$Array@UIndexPair@cloth@nv@@V?$CuHostAllocator@UIndexPair@cloth@nv@@$01@23@@ps@cloth@nv@@QEAAAEAUIndexPair@23@I@Z 00000001800082a0 f i CuCloth.obj
 0001:000072b0       ??0?$Array@UIndexPair@cloth@nv@@V?$CuHostAllocator@UIndexPair@cloth@nv@@$01@23@@ps@cloth@nv@@QEAA@AEBV0123@AEBV?$CuHostAllocator@UIndexPair@cloth@nv@@$01@23@@Z 00000001800082b0 f i CuCloth.obj
 0001:000072d0       ??0?$Array@UIndexPair@cloth@nv@@V?$CuHostAllocator@UIndexPair@cloth@nv@@$01@23@@ps@cloth@nv@@QEAA@AEBV?$CuHostAllocator@UIndexPair@cloth@nv@@$01@23@@Z 00000001800082d0 f i CuCloth.obj
 0001:000072f0       ?grow@?$Array@UPhaseConfig@cloth@nv@@VNonTrackingAllocator@ps@23@@ps@cloth@nv@@IEAAXI@Z 00000001800082f0 f i CuCloth.obj
 0001:00007300       ?destroy@?$Array@UPhaseConfig@cloth@nv@@VNonTrackingAllocator@ps@23@@ps@cloth@nv@@KAXPEAUPhaseConfig@34@0@Z 0000000180008300 f i CuCloth.obj
 0001:00007310       ?copy@?$Array@UPhaseConfig@cloth@nv@@VNonTrackingAllocator@ps@23@@ps@cloth@nv@@KAXPEAUPhaseConfig@34@0PEBU534@@Z 0000000180008310 f i CuCloth.obj
 0001:00007340       ?deallocate@?$Array@UPhaseConfig@cloth@nv@@VNonTrackingAllocator@ps@23@@ps@cloth@nv@@IEAAXPEAX@Z 0000000180008340 f i CuCloth.obj
 0001:00007360       ?isInUserMemory@?$Array@UPhaseConfig@cloth@nv@@VNonTrackingAllocator@ps@23@@ps@cloth@nv@@QEBAIXZ 0000000180008360 f i CuCloth.obj
 0001:00007370       ?capacity@?$Array@UPhaseConfig@cloth@nv@@VNonTrackingAllocator@ps@23@@ps@cloth@nv@@QEBAIXZ 0000000180008370 f i CuCloth.obj
 0001:00007380       ??G?$CuDevicePointer@UCuPhaseConfig@cloth@nv@@@cloth@nv@@QEBA_JAEBV012@@Z 0000000180008380 f i CuCloth.obj
 0001:000073a0       ?dev@?$CuDevicePointer@UCuPhaseConfig@cloth@nv@@@cloth@nv@@QEBA_KXZ 00000001800083a0 f i CuCloth.obj
 0001:000073b0       ??0?$CuDevicePointer@UCuPhaseConfig@cloth@nv@@@cloth@nv@@QEAA@XZ 00000001800083b0 f i CuCloth.obj
 0001:000073c0       ?resize@?$CuDeviceVector@UCuPhaseConfig@cloth@nv@@@cloth@nv@@QEAAX_K@Z 00000001800083c0 f i CuCloth.obj
 0001:000074e0       ??4?$CuDeviceVector@UCuPhaseConfig@cloth@nv@@@cloth@nv@@QEAAAEAV012@AEBV012@@Z 00000001800084e0 f i CuCloth.obj
 0001:00007560       ?getChildCloth@?$ClothImpl@VCuCloth@cloth@nv@@@cloth@nv@@QEBAPEBVCuCloth@23@XZ 0000000180008560 f i CuCloth.obj
 0001:00007570       ?getChildCloth@?$ClothImpl@VCuCloth@cloth@nv@@@cloth@nv@@QEAAPEAVCuCloth@23@XZ 0000000180008570 f i CuCloth.obj
 0001:00007580       ?grow@?$Array@VPxVec4@physx@@V?$CuHostAllocator@VPxVec4@physx@@$01@cloth@nv@@@ps@cloth@nv@@IEAAXI@Z 0000000180008580 f i CuCloth.obj
 0001:00007590       ?destroy@?$Array@VPxVec4@physx@@V?$CuHostAllocator@VPxVec4@physx@@$01@cloth@nv@@@ps@cloth@nv@@KAXPEAVPxVec4@physx@@0@Z 0000000180008590 f i CuCloth.obj
 0001:000075a0       ?deallocate@?$Array@VPxVec4@physx@@V?$CuHostAllocator@VPxVec4@physx@@$01@cloth@nv@@@ps@cloth@nv@@IEAAXPEAX@Z 00000001800085a0 f i CuCloth.obj
 0001:000075d0       ?isInUserMemory@?$Array@VPxVec4@physx@@V?$CuHostAllocator@VPxVec4@physx@@$01@cloth@nv@@@ps@cloth@nv@@QEBAIXZ 00000001800085d0 f i CuCloth.obj
 0001:000075e0       ?assign@?$Array@VPxVec4@physx@@V?$CuHostAllocator@VPxVec4@physx@@$01@cloth@nv@@@ps@cloth@nv@@QEAAXPEBVPxVec4@physx@@0@Z 00000001800085e0 f i CuCloth.obj
 0001:00007620       ?swap@?$Array@VPxVec4@physx@@V?$CuHostAllocator@VPxVec4@physx@@$01@cloth@nv@@@ps@cloth@nv@@QEAAXAEAV1234@@Z 0000000180008620 f i CuCloth.obj
 0001:00007650       ?pushBack@?$Array@VPxVec4@physx@@V?$CuHostAllocator@VPxVec4@physx@@$01@cloth@nv@@@ps@cloth@nv@@QEAAAEAVPxVec4@physx@@AEBV56@@Z 0000000180008650 f i CuCloth.obj
 0001:000076b0       ??A?$Array@VPxVec4@physx@@V?$CuHostAllocator@VPxVec4@physx@@$01@cloth@nv@@@ps@cloth@nv@@QEAAAEAVPxVec4@physx@@I@Z 00000001800086b0 f i CuCloth.obj
 0001:000076c0       ??0?$Array@VPxVec4@physx@@V?$CuHostAllocator@VPxVec4@physx@@$01@cloth@nv@@@ps@cloth@nv@@QEAA@AEBV0123@AEBV?$CuHostAllocator@VPxVec4@physx@@$01@23@@Z 00000001800086c0 f i CuCloth.obj
 0001:000076e0       ??0?$Array@VPxVec4@physx@@V?$CuHostAllocator@VPxVec4@physx@@$01@cloth@nv@@@ps@cloth@nv@@QEAA@AEBV?$CuHostAllocator@VPxVec4@physx@@$01@23@@Z 00000001800086e0 f i CuCloth.obj
 0001:00007700       ??G?$CuDevicePointer@VPxVec4@physx@@@cloth@nv@@QEBA_JAEBV012@@Z 0000000180008700 f i CuCloth.obj
 0001:00007710       ??Y?$CuDevicePointer@VPxVec4@physx@@@cloth@nv@@QEAAAEAV012@_J@Z 0000000180008710 f i CuCloth.obj
 0001:00007720       ??H?$CuDevicePointer@VPxVec4@physx@@@cloth@nv@@QEBA?AV012@AEB_J@Z 0000000180008720 f i CuCloth.obj
 0001:00007740       ??0?$CuDevicePointer@VPxVec4@physx@@@cloth@nv@@QEAA@AEBV012@@Z 0000000180008740 f i CuCloth.obj
 0001:00007750       ??0?$CuDevicePointer@VPxVec4@physx@@@cloth@nv@@QEAA@XZ 0000000180008750 f i CuCloth.obj
 0001:00007760       ?size@?$CuDeviceVector@VPxVec4@physx@@@cloth@nv@@QEBA_KXZ 0000000180008760 f i CuCloth.obj
 0001:00007770       ??4?$CuDeviceVector@VPxVec4@physx@@@cloth@nv@@QEAAAEAV012@AEBV012@@Z 0000000180008770 f i CuCloth.obj
 0001:00007800       ??0?$MappedRange@$$CBVPxVec4@physx@@@cloth@nv@@QEAA@PEBVPxVec4@physx@@0AEBVCloth@12@P8512@EBAXXZ2@Z 0000000180008800 f i CuCloth.obj
 0001:00007830       ??0?$MappedRange@VPxVec4@physx@@@cloth@nv@@QEAA@PEAVPxVec4@physx@@0AEBVCloth@12@P8512@EBAXXZ2@Z 0000000180008830 f i CuCloth.obj
 0001:00007860       ??$move@AEAV?$CuDevicePointer@VPxVec4@physx@@@cloth@nv@@@std@@YA$$QEAV?$CuDevicePointer@VPxVec4@physx@@@cloth@nv@@AEAV123@@Z 0000000180008860 f i CuCloth.obj
 0001:00007870       ??$copy@V?$CuHostAllocator@VPxVec3@physx@@$01@cloth@nv@@@?$Array@VPxVec3@physx@@V?$CuHostAllocator@VPxVec3@physx@@$01@cloth@nv@@@ps@cloth@nv@@IEAAXAEBV0123@@Z 0000000180008870 f i CuCloth.obj
 0001:000078d0       ??$copy@V?$CuHostAllocator@UIndexPair@cloth@nv@@$01@cloth@nv@@@?$Array@UIndexPair@cloth@nv@@V?$CuHostAllocator@UIndexPair@cloth@nv@@$01@23@@ps@cloth@nv@@IEAAXAEBV0123@@Z 00000001800088d0 f i CuCloth.obj
 0001:00007950       ??$swap@PEAVPxVec4@physx@@@ps@cloth@nv@@YAXAEAPEAVPxVec4@physx@@0@Z 0000000180008950 f i CuCloth.obj
 0001:00007960       ??$swap@I@ps@cloth@nv@@YAXAEAI0@Z 0000000180008960 f i CuCloth.obj
 0001:00007970       ??$copy@V?$CuHostAllocator@VPxVec4@physx@@$01@cloth@nv@@@?$Array@VPxVec4@physx@@V?$CuHostAllocator@VPxVec4@physx@@$01@cloth@nv@@@ps@cloth@nv@@IEAAXAEBV0123@@Z 0000000180008970 f i CuCloth.obj
 0001:000079d0       ?growAndPushBack@?$Array@VPxVec4@physx@@V?$CuHostAllocator@VPxVec4@physx@@$01@cloth@nv@@@ps@cloth@nv@@IEAAAEAVPxVec4@physx@@AEBV56@@Z 00000001800089d0 f i CuCloth.obj
 0001:00007aa0       ?recreate@?$Array@VPxVec4@physx@@V?$CuHostAllocator@VPxVec4@physx@@$01@cloth@nv@@@ps@cloth@nv@@IEAAXI@Z 0000000180008aa0 f i CuCloth.obj
 0001:00007b10       ?recreate@?$Array@UPhaseConfig@cloth@nv@@VNonTrackingAllocator@ps@23@@ps@cloth@nv@@IEAAXI@Z 0000000180008b10 f i CuCloth.obj
 0001:00007bd0       ?resizeUninitialized@?$Array@VPxVec3@physx@@V?$CuHostAllocator@VPxVec3@physx@@$01@cloth@nv@@@ps@cloth@nv@@QEAAXI@Z 0000000180008bd0 f i CuCloth.obj
 0001:00007c10       ?growAndPushBack@?$Array@VPxVec3@physx@@V?$CuHostAllocator@VPxVec3@physx@@$01@cloth@nv@@@ps@cloth@nv@@IEAAAEAVPxVec3@physx@@AEBV56@@Z 0000000180008c10 f i CuCloth.obj
 0001:00007cd0       ?recreate@?$Array@U?$Vec4T@G@cloth@nv@@VNonTrackingAllocator@ps@23@@ps@cloth@nv@@IEAAXI@Z 0000000180008cd0 f i CuCloth.obj
 0001:00007d80       ?recreate@?$Array@UCuPhaseConfig@cloth@nv@@VNonTrackingAllocator@ps@23@@ps@cloth@nv@@IEAAXI@Z 0000000180008d80 f i CuCloth.obj
 0001:00007e50       ?recreate@?$Array@VPxVec4@physx@@VNonTrackingAllocator@ps@cloth@nv@@@ps@cloth@nv@@IEAAXI@Z 0000000180008e50 f i CuCloth.obj
 0001:00007ef0       ?capacityIncrement@?$Array@VPxVec4@physx@@VNonTrackingAllocator@ps@cloth@nv@@@ps@cloth@nv@@IEBAIXZ 0000000180008ef0 f i CuCloth.obj
 0001:00007f10       ?copy@?$Array@VPxVec4@physx@@VNonTrackingAllocator@ps@cloth@nv@@@ps@cloth@nv@@KAXPEAVPxVec4@physx@@0PEBV56@@Z 0000000180008f10 f i CuCloth.obj
 0001:00008000       ?allocate@?$Array@VPxVec4@physx@@VNonTrackingAllocator@ps@cloth@nv@@@ps@cloth@nv@@IEAAPEAVPxVec4@physx@@I@Z 0000000180009000 f i CuCloth.obj
 0001:00008050       ?capacityIncrement@?$Array@UCuPhaseConfig@cloth@nv@@VNonTrackingAllocator@ps@23@@ps@cloth@nv@@IEBAIXZ 0000000180009050 f i CuCloth.obj
 0001:00008070       ?copy@?$Array@UCuPhaseConfig@cloth@nv@@VNonTrackingAllocator@ps@23@@ps@cloth@nv@@KAXPEAUCuPhaseConfig@34@0PEBU534@@Z 0000000180009070 f i CuCloth.obj
 0001:000080b0       ?allocate@?$Array@UCuPhaseConfig@cloth@nv@@VNonTrackingAllocator@ps@23@@ps@cloth@nv@@IEAAPEAUCuPhaseConfig@34@I@Z 00000001800090b0 f i CuCloth.obj
 0001:00008100       ?capacityIncrement@?$Array@U?$Vec4T@G@cloth@nv@@VNonTrackingAllocator@ps@23@@ps@cloth@nv@@IEBAIXZ 0000000180009100 f i CuCloth.obj
 0001:00008120       ?copy@?$Array@U?$Vec4T@G@cloth@nv@@VNonTrackingAllocator@ps@23@@ps@cloth@nv@@KAXPEAU?$Vec4T@G@34@0PEBU534@@Z 0000000180009120 f i CuCloth.obj
 0001:00008150       ?allocate@?$Array@U?$Vec4T@G@cloth@nv@@VNonTrackingAllocator@ps@23@@ps@cloth@nv@@IEAAPEAU?$Vec4T@G@34@I@Z 0000000180009150 f i CuCloth.obj
 0001:000081a0       ??G?$CuDevicePointer@M@cloth@nv@@QEBA_JAEBV012@@Z 00000001800091a0 f i CuCloth.obj
 0001:000081b0       ?get@?$CuDevicePointer@M@cloth@nv@@QEBAPEAMXZ 00000001800091b0 f i CuCloth.obj
 0001:000081c0       ?size@?$CuDeviceVector@M@cloth@nv@@QEBA_KXZ 00000001800091c0 f i CuCloth.obj
 0001:000081d0       ?reserve@?$Array@IVNonTrackingAllocator@ps@cloth@nv@@@ps@cloth@nv@@QEAAXI@Z 00000001800091d0 f i CuCloth.obj
 0001:000081e0       ?resize@?$CuDeviceVector@U?$Vec4T@G@cloth@nv@@@cloth@nv@@QEAAX_K@Z 00000001800091e0 f i CuCloth.obj
 0001:00008300       ??H?$CuDevicePointer@I@cloth@nv@@QEBA?AV012@AEB_J@Z 0000000180009300 f i CuCloth.obj
 0001:00008320       ?reserve@?$CuDeviceVector@I@cloth@nv@@QEAAX_K@Z 0000000180009320 f i CuCloth.obj
 0001:00008400       ?capacity@?$CuDeviceVector@I@cloth@nv@@QEBA_KXZ 0000000180009400 f i CuCloth.obj
 0001:00008410       ?grow@?$Array@VPxVec3@physx@@V?$CuHostAllocator@VPxVec3@physx@@$01@cloth@nv@@@ps@cloth@nv@@IEAAXI@Z 0000000180009410 f i CuCloth.obj
 0001:00008420       ?copy@?$Array@VPxVec3@physx@@V?$CuHostAllocator@VPxVec3@physx@@$01@cloth@nv@@@ps@cloth@nv@@KAXPEAVPxVec3@physx@@0PEBV56@@Z 0000000180009420 f i CuCloth.obj
 0001:000084e0       ?create@?$Array@VPxVec3@physx@@V?$CuHostAllocator@VPxVec3@physx@@$01@cloth@nv@@@ps@cloth@nv@@KAXPEAVPxVec3@physx@@0AEBV56@@Z 00000001800094e0 f i CuCloth.obj
 0001:00008580       ?end@?$Array@VPxVec3@physx@@V?$CuHostAllocator@VPxVec3@physx@@$01@cloth@nv@@@ps@cloth@nv@@QEAAPEAVPxVec3@physx@@XZ 0000000180009580 f i CuCloth.obj
 0001:00008590       ?deallocate@?$CuHostAllocator@VPxVec3@physx@@$01@cloth@nv@@QEAAXPEAX@Z 0000000180009590 f i CuCloth.obj
 0001:000085c0       ?grow@?$Array@IV?$CuHostAllocator@I$01@cloth@nv@@@ps@cloth@nv@@IEAAXI@Z 00000001800095c0 f i CuCloth.obj
 0001:000085d0       ?create@?$Array@IV?$CuHostAllocator@I$01@cloth@nv@@@ps@cloth@nv@@KAXPEAI0AEBI@Z 00000001800095d0 f i CuCloth.obj
 0001:00008660       ?replaceWithLast@?$Array@IV?$CuHostAllocator@I$01@cloth@nv@@@ps@cloth@nv@@QEAAXI@Z 0000000180009660 f i CuCloth.obj
 0001:00008680       ?deallocate@?$CuHostAllocator@I$01@cloth@nv@@QEAAXPEAX@Z 0000000180009680 f i CuCloth.obj
 0001:000086b0       ?grow@?$Array@UIndexPair@cloth@nv@@V?$CuHostAllocator@UIndexPair@cloth@nv@@$01@23@@ps@cloth@nv@@IEAAXI@Z 00000001800096b0 f i CuCloth.obj
 0001:000086c0       ?create@?$Array@UIndexPair@cloth@nv@@V?$CuHostAllocator@UIndexPair@cloth@nv@@$01@23@@ps@cloth@nv@@KAXPEAUIndexPair@34@0AEBU534@@Z 00000001800096c0 f i CuCloth.obj
 0001:00008750       ?replaceWithLast@?$Array@UIndexPair@cloth@nv@@V?$CuHostAllocator@UIndexPair@cloth@nv@@$01@23@@ps@cloth@nv@@QEAAXI@Z 0000000180009750 f i CuCloth.obj
 0001:00008770       ?deallocate@?$CuHostAllocator@UIndexPair@cloth@nv@@$01@cloth@nv@@QEAAXPEAX@Z 0000000180009770 f i CuCloth.obj
 0001:000087a0       ?capacityIncrement@?$Array@UPhaseConfig@cloth@nv@@VNonTrackingAllocator@ps@23@@ps@cloth@nv@@IEBAIXZ 00000001800097a0 f i CuCloth.obj
 0001:000087c0       ?allocate@?$Array@UPhaseConfig@cloth@nv@@VNonTrackingAllocator@ps@23@@ps@cloth@nv@@IEAAPEAUPhaseConfig@34@I@Z 00000001800097c0 f i CuCloth.obj
 0001:00008810       ?empty@?$Array@UPhaseConfig@cloth@nv@@VNonTrackingAllocator@ps@23@@ps@cloth@nv@@QEBA_NXZ 0000000180009810 f i CuCloth.obj
 0001:00008820       ?size@?$Array@UPhaseConfig@cloth@nv@@VNonTrackingAllocator@ps@23@@ps@cloth@nv@@QEBAIXZ 0000000180009820 f i CuCloth.obj
 0001:00008830       ?begin@?$Array@UPhaseConfig@cloth@nv@@VNonTrackingAllocator@ps@23@@ps@cloth@nv@@QEBAPEBUPhaseConfig@34@XZ 0000000180009830 f i CuCloth.obj
 0001:00008840       ??H?$CuDevicePointer@UCuPhaseConfig@cloth@nv@@@cloth@nv@@QEBA?AV012@AEB_J@Z 0000000180009840 f i CuCloth.obj
 0001:00008860       ?reserve@?$CuDeviceVector@UCuPhaseConfig@cloth@nv@@@cloth@nv@@QEAAX_K@Z 0000000180009860 f i CuCloth.obj
 0001:00008970       ?capacity@?$CuDeviceVector@UCuPhaseConfig@cloth@nv@@@cloth@nv@@QEBA_KXZ 0000000180009970 f i CuCloth.obj
 0001:00008990       ?copy@?$Array@VPxVec4@physx@@V?$CuHostAllocator@VPxVec4@physx@@$01@cloth@nv@@@ps@cloth@nv@@KAXPEAVPxVec4@physx@@0PEBV56@@Z 0000000180009990 f i CuCloth.obj
 0001:00008a80       ?create@?$Array@VPxVec4@physx@@V?$CuHostAllocator@VPxVec4@physx@@$01@cloth@nv@@@ps@cloth@nv@@KAXPEAVPxVec4@physx@@0AEBV56@@Z 0000000180009a80 f i CuCloth.obj
 0001:00008b60       ?deallocate@?$CuHostAllocator@VPxVec4@physx@@$01@cloth@nv@@QEAAXPEAX@Z 0000000180009b60 f i CuCloth.obj
 0001:00008b90       ??$?0I@?$CuDevicePointer@I@cloth@nv@@QEAA@PEAI@Z 0000000180009b90 f i CuCloth.obj
 0001:00008ba0       ??$?0UCuPhaseConfig@cloth@nv@@@?$CuDevicePointer@UCuPhaseConfig@cloth@nv@@@cloth@nv@@QEAA@PEAUCuPhaseConfig@12@@Z 0000000180009ba0 f i CuCloth.obj
 0001:00008bb0       ?recreate@?$Array@UIndexPair@cloth@nv@@V?$CuHostAllocator@UIndexPair@cloth@nv@@$01@23@@ps@cloth@nv@@IEAAXI@Z 0000000180009bb0 f i CuCloth.obj
 0001:00008c30       ?recreate@?$Array@IV?$CuHostAllocator@I$01@cloth@nv@@@ps@cloth@nv@@IEAAXI@Z 0000000180009c30 f i CuCloth.obj
 0001:00008d10       ?recreate@?$Array@VPxVec3@physx@@V?$CuHostAllocator@VPxVec3@physx@@$01@cloth@nv@@@ps@cloth@nv@@IEAAXI@Z 0000000180009d10 f i CuCloth.obj
 0001:00008d80       ?grow@?$Array@IVNonTrackingAllocator@ps@cloth@nv@@@ps@cloth@nv@@IEAAXI@Z 0000000180009d80 f i CuCloth.obj
 0001:00008d90       ??H?$CuDevicePointer@U?$Vec4T@G@cloth@nv@@@cloth@nv@@QEBA?AV012@AEB_J@Z 0000000180009d90 f i CuCloth.obj
 0001:00008db0       ?reserve@?$CuDeviceVector@U?$Vec4T@G@cloth@nv@@@cloth@nv@@QEAAX_K@Z 0000000180009db0 f i CuCloth.obj
 0001:00008e90       ?capacity@?$CuDeviceVector@U?$Vec4T@G@cloth@nv@@@cloth@nv@@QEBA_KXZ 0000000180009e90 f i CuCloth.obj
 0001:00008ea0       ?capacityIncrement@?$Array@VPxVec3@physx@@V?$CuHostAllocator@VPxVec3@physx@@$01@cloth@nv@@@ps@cloth@nv@@IEBAIXZ 0000000180009ea0 f i CuCloth.obj
 0001:00008ec0       ?allocate@?$Array@VPxVec3@physx@@V?$CuHostAllocator@VPxVec3@physx@@$01@cloth@nv@@@ps@cloth@nv@@IEAAPEAVPxVec3@physx@@I@Z 0000000180009ec0 f i CuCloth.obj
 0001:00008f40       ?empty@?$Array@VPxVec3@physx@@V?$CuHostAllocator@VPxVec3@physx@@$01@cloth@nv@@@ps@cloth@nv@@QEBA_NXZ 0000000180009f40 f i CuCloth.obj
 0001:00008f50       ?begin@?$Array@VPxVec3@physx@@V?$CuHostAllocator@VPxVec3@physx@@$01@cloth@nv@@@ps@cloth@nv@@QEBAPEBVPxVec3@physx@@XZ 0000000180009f50 f i CuCloth.obj
 0001:00008f60       ?copy@?$Array@UIndexPair@cloth@nv@@V?$CuHostAllocator@UIndexPair@cloth@nv@@$01@23@@ps@cloth@nv@@KAXPEAUIndexPair@34@0PEBU534@@Z 0000000180009f60 f i CuCloth.obj
 0001:00008f90       ?allocate@?$Array@UIndexPair@cloth@nv@@V?$CuHostAllocator@UIndexPair@cloth@nv@@$01@23@@ps@cloth@nv@@IEAAPEAUIndexPair@34@I@Z 0000000180009f90 f i CuCloth.obj
 0001:00009010       ?empty@?$Array@UIndexPair@cloth@nv@@V?$CuHostAllocator@UIndexPair@cloth@nv@@$01@23@@ps@cloth@nv@@QEBA_NXZ 000000018000a010 f i CuCloth.obj
 0001:00009020       ?begin@?$Array@UIndexPair@cloth@nv@@V?$CuHostAllocator@UIndexPair@cloth@nv@@$01@23@@ps@cloth@nv@@QEBAPEBUIndexPair@34@XZ 000000018000a020 f i CuCloth.obj
 0001:00009030       ?capacityIncrement@?$Array@VPxVec4@physx@@V?$CuHostAllocator@VPxVec4@physx@@$01@cloth@nv@@@ps@cloth@nv@@IEBAIXZ 000000018000a030 f i CuCloth.obj
 0001:00009050       ?allocate@?$Array@VPxVec4@physx@@V?$CuHostAllocator@VPxVec4@physx@@$01@cloth@nv@@@ps@cloth@nv@@IEAAPEAVPxVec4@physx@@I@Z 000000018000a050 f i CuCloth.obj
 0001:000090d0       ??$?0U?$Vec4T@G@cloth@nv@@@?$CuDevicePointer@U?$Vec4T@G@cloth@nv@@@cloth@nv@@QEAA@PEAU?$Vec4T@G@12@@Z 000000018000a0d0 f i CuCloth.obj
 0001:000090e0       ?recreate@?$Array@IVNonTrackingAllocator@ps@cloth@nv@@@ps@cloth@nv@@IEAAXI@Z 000000018000a0e0 f i CuCloth.obj
 0001:00009190       ?allocate@?$CuHostAllocator@VPxVec3@physx@@$01@cloth@nv@@QEAAPEAVPxVec3@physx@@_KPEBDH@Z 000000018000a190 f i CuCloth.obj
 0001:00009210       ?copy@?$Array@IV?$CuHostAllocator@I$01@cloth@nv@@@ps@cloth@nv@@KAXPEAI0PEBI@Z 000000018000a210 f i CuCloth.obj
 0001:00009230       ?allocate@?$Array@IV?$CuHostAllocator@I$01@cloth@nv@@@ps@cloth@nv@@IEAAPEAII@Z 000000018000a230 f i CuCloth.obj
 0001:000092b0       ?allocate@?$CuHostAllocator@UIndexPair@cloth@nv@@$01@cloth@nv@@QEAAPEAUIndexPair@23@_KPEBDH@Z 000000018000a2b0 f i CuCloth.obj
 0001:00009330       ?allocate@?$CuHostAllocator@VPxVec4@physx@@$01@cloth@nv@@QEAAPEAVPxVec4@physx@@_KPEBDH@Z 000000018000a330 f i CuCloth.obj
 0001:000093a0       ?allocate@?$Array@IVNonTrackingAllocator@ps@cloth@nv@@@ps@cloth@nv@@IEAAPEAII@Z 000000018000a3a0 f i CuCloth.obj
 0001:000093f0       ?allocate@?$CuHostAllocator@I$01@cloth@nv@@QEAAPEAI_KPEBDH@Z 000000018000a3f0 f i CuCloth.obj
 0001:00009464       ??_9Cloth@cloth@nv@@$BDA@AA 000000018000a464 f i CuCloth.obj
 0001:0000946c       ??_9Cloth@cloth@nv@@$BCI@AA 000000018000a46c f i CuCloth.obj
 0001:00009480       ??2UserAllocated@cloth@nv@@SAPEAX_KPEBDHUNvClothOverload@12@@Z 000000018000a480 f i CuClothClone.obj
 0001:000094b0       ??0SwContextLock@cloth@nv@@QEAA@AEBVSwFactory@12@@Z 000000018000a4b0 f i CuClothClone.obj
 0001:000094c0       ?getPhaseConfigs@cloth@nv@@YA?AU?$Range@$$CBUPhaseConfig@cloth@nv@@@12@AEBVSwCloth@12@@Z 000000018000a4c0 f i CuClothClone.obj
 0001:00009500       ?setPhaseConfigs@cloth@nv@@YAXAEAVSwCloth@12@U?$Range@$$CBUPhaseConfig@cloth@nv@@@12@@Z 000000018000a500 f i CuClothClone.obj
 0001:00009580       ?getParticleAccelerations@cloth@nv@@YA?AU?$Range@$$CBVPxVec4@physx@@@12@AEBVSwCloth@12@@Z 000000018000a580 f i CuClothClone.obj
 0001:000095c0       ?getSelfCollisionIndices@cloth@nv@@YA?AU?$Range@$$CBI@12@AEBVSwCloth@12@@Z 000000018000a5c0 f i CuClothClone.obj
 0001:00009600       ??$PX_UNUSED@UNvClothOverload@cloth@nv@@@@YAXAEBUNvClothOverload@cloth@nv@@@Z 000000018000a600 f i CuClothClone.obj
 0001:00009610       ??$makeRange@UPhaseConfig@cloth@nv@@VNonTrackingAllocator@ps@23@@cloth@nv@@YA?AU?$Range@$$CBUPhaseConfig@cloth@nv@@@01@AEBV?$Array@UPhaseConfig@cloth@nv@@VNonTrackingAllocator@ps@23@@ps@01@@Z 000000018000a610 f i CuClothClone.obj
 0001:00009650       ??$makeRange@VPxVec4@physx@@VNonTrackingAllocator@ps@cloth@nv@@@cloth@nv@@YA?AU?$Range@$$CBVPxVec4@physx@@@01@AEBV?$Array@VPxVec4@physx@@VNonTrackingAllocator@ps@cloth@nv@@@ps@01@@Z 000000018000a650 f i CuClothClone.obj
 0001:00009680       ??$makeRange@IVNonTrackingAllocator@ps@cloth@nv@@@cloth@nv@@YA?AU?$Range@$$CBI@01@AEBV?$Array@IVNonTrackingAllocator@ps@cloth@nv@@@ps@01@@Z 000000018000a680 f i CuClothClone.obj
 0001:000096b0       ??$makeRange@VPxVec4@physx@@V?$CuHostAllocator@VPxVec4@physx@@$01@cloth@nv@@@cloth@nv@@YA?AU?$Range@$$CBVPxVec4@physx@@@01@AEBV?$Array@VPxVec4@physx@@V?$CuHostAllocator@VPxVec4@physx@@$01@cloth@nv@@@ps@01@@Z 000000018000a6b0 f i CuClothClone.obj
 0001:000096f0       ??$convertCloth@VSwFactory@cloth@nv@@VCuCloth@23@@cloth@nv@@YAPEAVSwCloth@01@AEAVSwFactory@01@AEBVCuCloth@01@@Z 000000018000a6f0 f i CuClothClone.obj
 0001:00009f00       ??$convertCloth@VCuFactory@cloth@nv@@VCuCloth@23@@cloth@nv@@YAPEAVCuCloth@01@AEAVCuFactory@01@AEBV201@@Z 000000018000af00 f i CuClothClone.obj
 0001:0000a720       ??$convertCloth@VCuFactory@cloth@nv@@VSwCloth@23@@cloth@nv@@YAPEAVCuCloth@01@AEAVCuFactory@01@AEBVSwCloth@01@@Z 000000018000b720 f i CuClothClone.obj
 0001:0000af00       ?resize@?$Array@VPxVec4@physx@@VNonTrackingAllocator@ps@cloth@nv@@@ps@cloth@nv@@QEAAXIAEBVPxVec4@physx@@@Z 000000018000bf00 f i CuClothClone.obj
 0001:0000b010       ??$makeRange@VPxVec4@physx@@VNonTrackingAllocator@ps@cloth@nv@@@cloth@nv@@YA?AU?$Range@VPxVec4@physx@@@01@AEAV?$Array@VPxVec4@physx@@VNonTrackingAllocator@ps@cloth@nv@@@ps@01@@Z 000000018000c010 f i CuClothClone.obj
 0001:0000b040       ??$makeRange@IVNonTrackingAllocator@ps@cloth@nv@@@cloth@nv@@YA?AU?$Range@I@01@AEAV?$Array@IVNonTrackingAllocator@ps@cloth@nv@@@ps@01@@Z 000000018000c040 f i CuClothClone.obj
 0001:0000b070       ??$convertFabric@VCuFabric@cloth@nv@@VSwFactory@23@@cloth@nv@@YAPEAVSwFabric@01@AEBVCuFabric@01@AEAVSwFactory@01@@Z 000000018000c070 f i CuClothClone.obj
 0001:0000b5f0       ??$copy@VSwCloth@cloth@nv@@VCuCloth@23@@cloth@nv@@YAXAEAVSwCloth@01@AEBVCuCloth@01@@Z 000000018000c5f0 f i CuClothClone.obj
 0001:0000b8d0       ??$?0VPxVec4@physx@@@?$Range@$$CBVPxVec4@physx@@@cloth@nv@@QEAA@AEBU?$Range@VPxVec4@physx@@@12@@Z 000000018000c8d0 f i CuClothClone.obj
 0001:0000b8f0       ??$?0I@?$Range@$$CBI@cloth@nv@@QEAA@AEBU?$Range@I@12@@Z 000000018000c8f0 f i CuClothClone.obj
 0001:0000b910       ??$?0VPxVec3@physx@@@?$Range@$$CBVPxVec3@physx@@@cloth@nv@@QEAA@AEBU?$Range@VPxVec3@physx@@@12@@Z 000000018000c910 f i CuClothClone.obj
 0001:0000b930       ??$array@I@cloth@nv@@YAAEAY03IAEAU?$Vec4T@I@01@@Z 000000018000c930 f i CuClothClone.obj
 0001:0000b940       ??$?0$$BY03I@?$Range@$$BY03$$CBI@cloth@nv@@QEAA@AEBU?$Range@$$BY03I@12@@Z 000000018000c940 f i CuClothClone.obj
 0001:0000b960       ??$convertFabric@VCuFabric@cloth@nv@@VCuFactory@23@@cloth@nv@@YAPEAVCuFabric@01@AEBV201@AEAVCuFactory@01@@Z 000000018000c960 f i CuClothClone.obj
 0001:0000bee0       ??$convertFabric@VSwFabric@cloth@nv@@VCuFactory@23@@cloth@nv@@YAPEAVCuFabric@01@AEBVSwFabric@01@AEAVCuFactory@01@@Z 000000018000cee0 f i CuClothClone.obj
 0001:0000c460       ??$copy@VCuCloth@cloth@nv@@VSwCloth@23@@cloth@nv@@YAXAEAVCuCloth@01@AEBVSwCloth@01@@Z 000000018000d460 f i CuClothClone.obj
 0001:0000c740       ??0?$Range@$$CBI@cloth@nv@@QEAA@PEBI0@Z 000000018000d740 f i CuClothClone.obj
 0001:0000c750       ?begin@?$Range@VPxVec4@physx@@@cloth@nv@@QEBAPEAVPxVec4@physx@@XZ 000000018000d750 f i CuClothClone.obj
 0001:0000c760       ??0?$Range@VPxVec3@physx@@@cloth@nv@@QEAA@PEAVPxVec3@physx@@0@Z 000000018000d760 f i CuClothClone.obj
 0001:0000c770       ??0?$Range@$$BY03I@cloth@nv@@QEAA@PEAY03I0@Z 000000018000d770 f i CuClothClone.obj
 0001:0000c780       ?resize@?$Array@IVNonTrackingAllocator@ps@cloth@nv@@@ps@cloth@nv@@QEAAXIAEBI@Z 000000018000d780 f i CuClothClone.obj
 0001:0000c840       ?resize@?$Array@VPxVec3@physx@@VNonTrackingAllocator@ps@cloth@nv@@@ps@cloth@nv@@QEAAXIAEBVPxVec3@physx@@@Z 000000018000d840 f i CuClothClone.obj
 0001:0000c930       ?empty@?$Array@U?$Vec4T@I@cloth@nv@@VNonTrackingAllocator@ps@23@@ps@cloth@nv@@QEBA_NXZ 000000018000d930 f i CuClothClone.obj
 0001:0000c940       ?size@?$Array@U?$Vec4T@I@cloth@nv@@VNonTrackingAllocator@ps@23@@ps@cloth@nv@@QEBAIXZ 000000018000d940 f i CuClothClone.obj
 0001:0000c950       ?front@?$Array@U?$Vec4T@I@cloth@nv@@VNonTrackingAllocator@ps@23@@ps@cloth@nv@@QEAAAEAU?$Vec4T@I@34@XZ 000000018000d950 f i CuClothClone.obj
 0001:0000c960       ??0?$Array@U?$Vec4T@I@cloth@nv@@VNonTrackingAllocator@ps@23@@ps@cloth@nv@@QEAA@IAEBU?$Vec4T@I@23@AEBVNonTrackingAllocator@123@@Z 000000018000d960 f i CuClothClone.obj
 0001:0000c980       ?capacity@?$Array@VPxVec3@physx@@VNonTrackingAllocator@ps@cloth@nv@@@ps@cloth@nv@@QEBAIXZ 000000018000d980 f i CuClothClone.obj
 0001:0000c990       ?reserve@?$Array@VPxVec3@physx@@VNonTrackingAllocator@ps@cloth@nv@@@ps@cloth@nv@@QEAAXI@Z 000000018000d990 f i CuClothClone.obj
 0001:0000c9a0       ?empty@?$Array@VPxVec3@physx@@VNonTrackingAllocator@ps@cloth@nv@@@ps@cloth@nv@@QEBA_NXZ 000000018000d9a0 f i CuClothClone.obj
 0001:0000c9b0       ?size@?$Array@VPxVec3@physx@@VNonTrackingAllocator@ps@cloth@nv@@@ps@cloth@nv@@QEBAIXZ 000000018000d9b0 f i CuClothClone.obj
 0001:0000c9c0       ?front@?$Array@VPxVec3@physx@@VNonTrackingAllocator@ps@cloth@nv@@@ps@cloth@nv@@QEAAAEAVPxVec3@physx@@XZ 000000018000d9c0 f i CuClothClone.obj
 0001:0000c9d0       ??1?$Array@VPxVec3@physx@@VNonTrackingAllocator@ps@cloth@nv@@@ps@cloth@nv@@QEAA@XZ 000000018000d9d0 f i CuClothClone.obj
 0001:0000ca00       ??0?$Array@VPxVec3@physx@@VNonTrackingAllocator@ps@cloth@nv@@@ps@cloth@nv@@QEAA@IAEBVPxVec3@physx@@AEBVNonTrackingAllocator@123@@Z 000000018000da00 f i CuClothClone.obj
 0001:0000ca20       ?create@?$Array@VPxVec4@physx@@VNonTrackingAllocator@ps@cloth@nv@@@ps@cloth@nv@@KAXPEAVPxVec4@physx@@0AEBV56@@Z 000000018000da20 f i CuClothClone.obj
 0001:0000cb00       ?front@?$Array@VPxVec4@physx@@VNonTrackingAllocator@ps@cloth@nv@@@ps@cloth@nv@@QEAAAEAVPxVec4@physx@@XZ 000000018000db00 f i CuClothClone.obj
 0001:0000cb10       ?begin@?$Array@VPxVec4@physx@@VNonTrackingAllocator@ps@cloth@nv@@@ps@cloth@nv@@QEAAPEAVPxVec4@physx@@XZ 000000018000db10 f i CuClothClone.obj
 0001:0000cb20       ?begin@?$Array@VPxVec4@physx@@VNonTrackingAllocator@ps@cloth@nv@@@ps@cloth@nv@@QEBAPEBVPxVec4@physx@@XZ 000000018000db20 f i CuClothClone.obj
 0001:0000cb30       ??0?$Array@VPxVec4@physx@@VNonTrackingAllocator@ps@cloth@nv@@@ps@cloth@nv@@QEAA@IAEBVPxVec4@physx@@AEBVNonTrackingAllocator@123@@Z 000000018000db30 f i CuClothClone.obj
 0001:0000cb50       ??0?$Vec4T@I@cloth@nv@@QEAA@XZ 000000018000db50 f i CuClothClone.obj
 0001:0000cb60       ?begin@?$Array@IVNonTrackingAllocator@ps@cloth@nv@@@ps@cloth@nv@@QEBAPEBIXZ 000000018000db60 f i CuClothClone.obj
 0001:0000cb70       ??0?$Array@IVNonTrackingAllocator@ps@cloth@nv@@@ps@cloth@nv@@QEAA@IAEBIAEBVNonTrackingAllocator@123@@Z 000000018000db70 f i CuClothClone.obj
 0001:0000cb90       ??$makeRange@MVNonTrackingAllocator@ps@cloth@nv@@@cloth@nv@@YA?AU?$Range@M@01@AEAV?$Array@MVNonTrackingAllocator@ps@cloth@nv@@@ps@01@@Z 000000018000db90 f i CuClothClone.obj
 0001:0000cbc0       ??$?0M@?$Range@$$CBM@cloth@nv@@QEAA@AEBU?$Range@M@12@@Z 000000018000dbc0 f i CuClothClone.obj
 0001:0000cbe0       ??0?$Range@I@cloth@nv@@QEAA@PEAI0@Z 000000018000dbe0 f i CuClothClone.obj
 0001:0000cbf0       ?begin@?$Range@I@cloth@nv@@QEBAPEAIXZ 000000018000dbf0 f i CuClothClone.obj
 0001:0000cc00       ?end@?$Range@I@cloth@nv@@QEBAPEAIXZ 000000018000dc00 f i CuClothClone.obj
 0001:0000cc10       ?end@?$Range@VPxVec4@physx@@@cloth@nv@@QEBAPEAVPxVec4@physx@@XZ 000000018000dc10 f i CuClothClone.obj
 0001:0000cc20       ?begin@?$Range@VPxVec3@physx@@@cloth@nv@@QEBAPEAVPxVec3@physx@@XZ 000000018000dc20 f i CuClothClone.obj
 0001:0000cc30       ?end@?$Range@VPxVec3@physx@@@cloth@nv@@QEBAPEAVPxVec3@physx@@XZ 000000018000dc30 f i CuClothClone.obj
 0001:0000cc40       ?begin@?$Range@$$BY03I@cloth@nv@@QEBAPEAY03IXZ 000000018000dc40 f i CuClothClone.obj
 0001:0000cc50       ?end@?$Range@$$BY03I@cloth@nv@@QEBAPEAY03IXZ 000000018000dc50 f i CuClothClone.obj
 0001:0000cc60       ?resize@?$Array@U?$Vec4T@I@cloth@nv@@VNonTrackingAllocator@ps@23@@ps@cloth@nv@@QEAAXIAEBU?$Vec4T@I@34@@Z 000000018000dc60 f i CuClothClone.obj
 0001:0000cce0       ??1?$Array@MVNonTrackingAllocator@ps@cloth@nv@@@ps@cloth@nv@@QEAA@XZ 000000018000dce0 f i CuClothClone.obj
 0001:0000cd10       ??0?$Array@MVNonTrackingAllocator@ps@cloth@nv@@@ps@cloth@nv@@QEAA@IAEBMAEBVNonTrackingAllocator@123@@Z 000000018000dd10 f i CuClothClone.obj
 0001:0000cd30       ?end@?$Array@PEAVCuFabric@cloth@nv@@VNonTrackingAllocator@ps@23@@ps@cloth@nv@@QEAAPEAPEAVCuFabric@34@XZ 000000018000dd30 f i CuClothClone.obj
 0001:0000cd40       ?begin@?$Array@PEAVCuFabric@cloth@nv@@VNonTrackingAllocator@ps@23@@ps@cloth@nv@@QEAAPEAPEAVCuFabric@34@XZ 000000018000dd40 f i CuClothClone.obj
 0001:0000cd50       ?grow@?$Array@VPxVec3@physx@@VNonTrackingAllocator@ps@cloth@nv@@@ps@cloth@nv@@IEAAXI@Z 000000018000dd50 f i CuClothClone.obj
 0001:0000cd60       ?destroy@?$Array@VPxVec3@physx@@VNonTrackingAllocator@ps@cloth@nv@@@ps@cloth@nv@@KAXPEAVPxVec3@physx@@0@Z 000000018000dd60 f i CuClothClone.obj
 0001:0000cd70       ?copy@?$Array@VPxVec3@physx@@VNonTrackingAllocator@ps@cloth@nv@@@ps@cloth@nv@@KAXPEAVPxVec3@physx@@0PEBV56@@Z 000000018000dd70 f i CuClothClone.obj
 0001:0000ce30       ?create@?$Array@VPxVec3@physx@@VNonTrackingAllocator@ps@cloth@nv@@@ps@cloth@nv@@KAXPEAVPxVec3@physx@@0AEBV56@@Z 000000018000de30 f i CuClothClone.obj
 0001:0000ced0       ?deallocate@?$Array@VPxVec3@physx@@VNonTrackingAllocator@ps@cloth@nv@@@ps@cloth@nv@@IEAAXPEAX@Z 000000018000ded0 f i CuClothClone.obj
 0001:0000cef0       ?isInUserMemory@?$Array@VPxVec3@physx@@VNonTrackingAllocator@ps@cloth@nv@@@ps@cloth@nv@@QEBAIXZ 000000018000def0 f i CuClothClone.obj
 0001:0000cf00       ?create@?$Array@IVNonTrackingAllocator@ps@cloth@nv@@@ps@cloth@nv@@KAXPEAI0AEBI@Z 000000018000df00 f i CuClothClone.obj
 0001:0000cf90       ?end@?$Array@PEAVSwFabric@cloth@nv@@VNonTrackingAllocator@ps@23@@ps@cloth@nv@@QEAAPEAPEAVSwFabric@34@XZ 000000018000df90 f i CuClothClone.obj
 0001:0000cfa0       ?begin@?$Array@PEAVSwFabric@cloth@nv@@VNonTrackingAllocator@ps@23@@ps@cloth@nv@@QEAAPEAPEAVSwFabric@34@XZ 000000018000dfa0 f i CuClothClone.obj
 0001:0000cfb0       ??0?$Range@M@cloth@nv@@QEAA@PEAM0@Z 000000018000dfb0 f i CuClothClone.obj
 0001:0000cfc0       ?begin@?$Range@M@cloth@nv@@QEBAPEAMXZ 000000018000dfc0 f i CuClothClone.obj
 0001:0000cfd0       ?end@?$Range@M@cloth@nv@@QEBAPEAMXZ 000000018000dfd0 f i CuClothClone.obj
 0001:0000cfe0       ?recreate@?$Array@VPxVec3@physx@@VNonTrackingAllocator@ps@cloth@nv@@@ps@cloth@nv@@IEAAXI@Z 000000018000dfe0 f i CuClothClone.obj
 0001:0000d080       ?resize@?$Array@MVNonTrackingAllocator@ps@cloth@nv@@@ps@cloth@nv@@QEAAXIAEBM@Z 000000018000e080 f i CuClothClone.obj
 0001:0000d180       ?destroy@?$Array@MVNonTrackingAllocator@ps@cloth@nv@@@ps@cloth@nv@@KAXPEAM0@Z 000000018000e180 f i CuClothClone.obj
 0001:0000d190       ?deallocate@?$Array@MVNonTrackingAllocator@ps@cloth@nv@@@ps@cloth@nv@@IEAAXPEAX@Z 000000018000e190 f i CuClothClone.obj
 0001:0000d1b0       ?isInUserMemory@?$Array@MVNonTrackingAllocator@ps@cloth@nv@@@ps@cloth@nv@@QEBAIXZ 000000018000e1b0 f i CuClothClone.obj
 0001:0000d1c0       ?capacity@?$Array@MVNonTrackingAllocator@ps@cloth@nv@@@ps@cloth@nv@@QEBAIXZ 000000018000e1c0 f i CuClothClone.obj
 0001:0000d1d0       ?empty@?$Array@MVNonTrackingAllocator@ps@cloth@nv@@@ps@cloth@nv@@QEBA_NXZ 000000018000e1d0 f i CuClothClone.obj
 0001:0000d1e0       ?size@?$Array@MVNonTrackingAllocator@ps@cloth@nv@@@ps@cloth@nv@@QEBAIXZ 000000018000e1e0 f i CuClothClone.obj
 0001:0000d1f0       ?begin@?$Array@MVNonTrackingAllocator@ps@cloth@nv@@@ps@cloth@nv@@QEAAPEAMXZ 000000018000e1f0 f i CuClothClone.obj
 0001:0000d200       ?create@?$Array@U?$Vec4T@I@cloth@nv@@VNonTrackingAllocator@ps@23@@ps@cloth@nv@@KAXPEAU?$Vec4T@I@34@0AEBU534@@Z 000000018000e200 f i CuClothClone.obj
 0001:0000d230       ?reserve@?$Array@U?$Vec4T@I@cloth@nv@@VNonTrackingAllocator@ps@23@@ps@cloth@nv@@QEAAXI@Z 000000018000e230 f i CuClothClone.obj
 0001:0000d240       ?allocate@?$Array@VPxVec3@physx@@VNonTrackingAllocator@ps@cloth@nv@@@ps@cloth@nv@@IEAAPEAVPxVec3@physx@@I@Z 000000018000e240 f i CuClothClone.obj
 0001:0000d290       ?create@?$Array@MVNonTrackingAllocator@ps@cloth@nv@@@ps@cloth@nv@@KAXPEAM0AEBM@Z 000000018000e290 f i CuClothClone.obj
 0001:0000d370       ?reserve@?$Array@MVNonTrackingAllocator@ps@cloth@nv@@@ps@cloth@nv@@QEAAXI@Z 000000018000e370 f i CuClothClone.obj
 0001:0000d380       ?grow@?$Array@U?$Vec4T@I@cloth@nv@@VNonTrackingAllocator@ps@23@@ps@cloth@nv@@IEAAXI@Z 000000018000e380 f i CuClothClone.obj
 0001:0000d390       ?recreate@?$Array@U?$Vec4T@I@cloth@nv@@VNonTrackingAllocator@ps@23@@ps@cloth@nv@@IEAAXI@Z 000000018000e390 f i CuClothClone.obj
 0001:0000d440       ?grow@?$Array@MVNonTrackingAllocator@ps@cloth@nv@@@ps@cloth@nv@@IEAAXI@Z 000000018000e440 f i CuClothClone.obj
 0001:0000d450       ?recreate@?$Array@MVNonTrackingAllocator@ps@cloth@nv@@@ps@cloth@nv@@IEAAXI@Z 000000018000e450 f i CuClothClone.obj
 0001:0000d530       ?copy@?$Array@U?$Vec4T@I@cloth@nv@@VNonTrackingAllocator@ps@23@@ps@cloth@nv@@KAXPEAU?$Vec4T@I@34@0PEBU534@@Z 000000018000e530 f i CuClothClone.obj
 0001:0000d560       ?allocate@?$Array@U?$Vec4T@I@cloth@nv@@VNonTrackingAllocator@ps@23@@ps@cloth@nv@@IEAAPEAU?$Vec4T@I@34@I@Z 000000018000e560 f i CuClothClone.obj
 0001:0000d5b0       ?copy@?$Array@MVNonTrackingAllocator@ps@cloth@nv@@@ps@cloth@nv@@KAXPEAM0PEBM@Z 000000018000e5b0 f i CuClothClone.obj
 0001:0000d610       ?allocate@?$Array@MVNonTrackingAllocator@ps@cloth@nv@@@ps@cloth@nv@@IEAAPEAMI@Z 000000018000e610 f i CuClothClone.obj
 0001:0000d660       ??0Simd4fTupleFactory@cloth@nv@@QEAA@MMMM@Z 000000018000e660 f i CuClothData.obj
 0001:0000d680       ?simd4f@cloth@nv@@YA?AUSimd4fTupleFactory@12@MMMM@Z 000000018000e680 f i CuClothData.obj
 0001:0000d6a0       ??BSimd4fOneFactory@cloth@nv@@QEBA?AT__m128@@XZ 000000018000e6a0 f i CuClothData.obj
 0001:0000d6b0       ??BSimd4fScalarFactory@cloth@nv@@QEBA?AT__m128@@XZ 000000018000e6b0 f i CuClothData.obj
 0001:0000d6c0       ??BSimd4fTupleFactory@cloth@nv@@QEBA?AT__m128@@XZ 000000018000e6c0 f i CuClothData.obj
 0001:0000d6d0       ??Hcloth@nv@@YA?AT__m128@@AEBT2@0@Z 000000018000e6d0 f i CuClothData.obj
 0001:0000d6e0       ??Gcloth@nv@@YA?AT__m128@@AEBT2@@Z 000000018000e6e0 f i CuClothData.obj
 0001:0000d6f0       ??Gcloth@nv@@YA?AT__m128@@AEBT2@0@Z 000000018000e6f0 f i CuClothData.obj
 0001:0000d700       ??Dcloth@nv@@YA?AT__m128@@AEBT2@0@Z 000000018000e700 f i CuClothData.obj
 0001:0000d710       ?array@cloth@nv@@YAAEAY03MAEAT__m128@@@Z 000000018000e710 f i CuClothData.obj
 0001:0000d720       ?array@cloth@nv@@YAAEAY03$$CBMAEBT__m128@@@Z 000000018000e720 f i CuClothData.obj
 0001:0000d730       ?max@cloth@nv@@YA?AT__m128@@AEBT3@0@Z 000000018000e730 f i CuClothData.obj
 0001:0000d740       ?min@cloth@nv@@YA?AT__m128@@AEBT3@0@Z 000000018000e740 f i CuClothData.obj
 0001:0000d750       ?recip@cloth@nv@@YA?AT__m128@@AEBT3@@Z 000000018000e750 f i CuClothData.obj
 0001:0000d760       ?exp2@cloth@nv@@YA?AT__m128@@AEBT3@@Z 000000018000e760 f i CuClothData.obj
 0001:0000d800       ?array@cloth@nv@@YAAEAY02MAEAVPxVec3@physx@@@Z 000000018000e800 f i CuClothData.obj
 0001:0000d810       ??$getDevicePointer@VPxVec4@physx@@$01@cloth@nv@@YAPEAVPxVec4@physx@@AEAV?$CuHostVectorImpl@VPxVec4@physx@@$01@01@@Z 000000018000e810 f i CuClothData.obj
 0001:0000d820       ??$getDevicePointer@UIndexPair@cloth@nv@@$01@cloth@nv@@YAPEAUIndexPair@01@AEAV?$CuHostVectorImpl@UIndexPair@cloth@nv@@$01@01@@Z 000000018000e820 f i CuClothData.obj
 0001:0000d830       ??$getDevicePointer@I$01@cloth@nv@@YAPEAIAEAV?$CuHostVectorImpl@I$01@01@@Z 000000018000e830 f i CuClothData.obj
 0001:0000d840       ??$array@G@cloth@nv@@YAAEAY03GAEAU?$Vec4T@G@01@@Z 000000018000e840 f i CuClothData.obj
 0001:0000d850       ??$getDevicePointer@VPxVec3@physx@@$01@cloth@nv@@YAPEAVPxVec3@physx@@AEAV?$CuHostVectorImpl@VPxVec3@physx@@$01@01@@Z 000000018000e850 f i CuClothData.obj
 0001:0000d860       ?get@?$CuDevicePointer@UCuTether@cloth@nv@@@cloth@nv@@QEBAPEAUCuTether@23@XZ 000000018000e860 f i CuClothData.obj
 0001:0000d870       ?begin@?$CuDeviceVector@UCuTether@cloth@nv@@@cloth@nv@@QEAA?AV?$CuDevicePointer@UCuTether@cloth@nv@@@23@XZ 000000018000e870 f i CuClothData.obj
 0001:0000d880       ?size@?$CuDeviceVector@UCuTether@cloth@nv@@@cloth@nv@@QEBA_KXZ 000000018000e880 f i CuClothData.obj
 0001:0000d890       ?get@?$CuDevicePointer@G@cloth@nv@@QEBAPEAGXZ 000000018000e890 f i CuClothData.obj
 0001:0000d8a0       ?begin@?$CuDeviceVector@G@cloth@nv@@QEAA?AV?$CuDevicePointer@G@23@XZ 000000018000e8a0 f i CuClothData.obj
 0001:0000d8b0       ?size@?$CuDeviceVector@G@cloth@nv@@QEBA_KXZ 000000018000e8b0 f i CuClothData.obj
 0001:0000d8c0       ?get@?$CuDevicePointer@U?$Vec4T@G@cloth@nv@@@cloth@nv@@QEBAPEAU?$Vec4T@G@23@XZ 000000018000e8c0 f i CuClothData.obj
 0001:0000d8d0       ?begin@?$CuDeviceVector@U?$Vec4T@G@cloth@nv@@@cloth@nv@@QEAA?AV?$CuDevicePointer@U?$Vec4T@G@cloth@nv@@@23@XZ 000000018000e8d0 f i CuClothData.obj
 0001:0000d8e0       ?get@?$CuDevicePointer@I@cloth@nv@@QEBAPEAIXZ 000000018000e8e0 f i CuClothData.obj
 0001:0000d8f0       ?begin@?$CuDeviceVector@I@cloth@nv@@QEAA?AV?$CuDevicePointer@I@23@XZ 000000018000e8f0 f i CuClothData.obj
 0001:0000d900       ?get@?$CuDevicePointer@UCuPhaseConfig@cloth@nv@@@cloth@nv@@QEBAPEAUCuPhaseConfig@23@XZ 000000018000e900 f i CuClothData.obj
 0001:0000d910       ?begin@?$CuDeviceVector@UCuPhaseConfig@cloth@nv@@@cloth@nv@@QEAA?AV?$CuDevicePointer@UCuPhaseConfig@cloth@nv@@@23@XZ 000000018000e910 f i CuClothData.obj
 0001:0000d920       ??G?$CuDevicePointer@UCuTether@cloth@nv@@@cloth@nv@@QEBA_JAEBV012@@Z 000000018000e920 f i CuClothData.obj
 0001:0000d930       ??0?$CuDevicePointer@UCuTether@cloth@nv@@@cloth@nv@@QEAA@AEBV012@@Z 000000018000e930 f i CuClothData.obj
 0001:0000d940       ??G?$CuDevicePointer@G@cloth@nv@@QEBA_JAEBV012@@Z 000000018000e940 f i CuClothData.obj
 0001:0000d950       ??0?$CuDevicePointer@G@cloth@nv@@QEAA@AEBV012@@Z 000000018000e950 f i CuClothData.obj
 0001:0000d960       ??0?$CuDevicePointer@U?$Vec4T@G@cloth@nv@@@cloth@nv@@QEAA@AEBV012@@Z 000000018000e960 f i CuClothData.obj
 0001:0000d970       ??0?$CuDevicePointer@I@cloth@nv@@QEAA@AEBV012@@Z 000000018000e970 f i CuClothData.obj
 0001:0000d980       ?getAllocator@?$Array@VPxVec3@physx@@V?$CuHostAllocator@VPxVec3@physx@@$01@cloth@nv@@@ps@cloth@nv@@QEAAAEAV?$CuHostAllocator@VPxVec3@physx@@$01@34@XZ 000000018000e980 f i CuClothData.obj
 0001:0000d990       ?getAllocator@?$Array@IV?$CuHostAllocator@I$01@cloth@nv@@@ps@cloth@nv@@QEAAAEAV?$CuHostAllocator@I$01@34@XZ 000000018000e990 f i CuClothData.obj
 0001:0000d9a0       ?empty@?$Array@IV?$CuHostAllocator@I$01@cloth@nv@@@ps@cloth@nv@@QEBA_NXZ 000000018000e9a0 f i CuClothData.obj
 0001:0000d9b0       ?getAllocator@?$Array@UIndexPair@cloth@nv@@V?$CuHostAllocator@UIndexPair@cloth@nv@@$01@23@@ps@cloth@nv@@QEAAAEAV?$CuHostAllocator@UIndexPair@cloth@nv@@$01@34@XZ 000000018000e9b0 f i CuClothData.obj
 0001:0000d9c0       ??0?$CuDevicePointer@UCuPhaseConfig@cloth@nv@@@cloth@nv@@QEAA@AEBV012@@Z 000000018000e9c0 f i CuClothData.obj
 0001:0000d9d0       ?getAllocator@?$Array@VPxVec4@physx@@V?$CuHostAllocator@VPxVec4@physx@@$01@cloth@nv@@@ps@cloth@nv@@QEAAAEAV?$CuHostAllocator@VPxVec4@physx@@$01@34@XZ 000000018000e9d0 f i CuClothData.obj
 0001:0000d9e0       ??0Fabric@cloth@nv@@IEAA@XZ 000000018000e9e0 f i CuFabric.obj
 0001:0000da00       ??1Fabric@cloth@nv@@MEAA@XZ 000000018000ea00 f i CuFabric.obj
 0001:0000da10       ??_EFabric@cloth@nv@@MEAAPEAXI@Z 000000018000ea10 f i * CIL library *:* CIL module *
 0001:0000da10       ??_GFabric@cloth@nv@@MEAAPEAXI@Z 000000018000ea10 f i CuFabric.obj
 0001:0000da60       ??_ECuFabric@cloth@nv@@UEAAPEAXI@Z 000000018000ea60 f i * CIL library *:* CIL module *
 0001:0000da60       ??_GCuFabric@cloth@nv@@UEAAPEAXI@Z 000000018000ea60 f i CuFabric.obj
 0001:0000dac0       ??$assign@PEAG@?$CuDeviceVector@G@cloth@nv@@QEAAXPEAG0@Z 000000018000eac0 f i CuFabric.obj
 0001:0000dc00       ??$maxElement@M@ps@cloth@nv@@YAPEBMPEBM0@Z 000000018000ec00 f i CuFabric.obj
 0001:0000dca0       ??$assign@PEAUCuTether@cloth@nv@@@?$CuDeviceVector@UCuTether@cloth@nv@@@cloth@nv@@QEAAXPEAUCuTether@12@0@Z 000000018000eca0 f i CuFabric.obj
 0001:0000dde0       ??$PxMax@H@physx@@YAHHH@Z  000000018000ede0 f i CuFabric.obj
 0001:0000ddf0       ??$?4VNonTrackingAllocator@ps@cloth@nv@@@?$CuDeviceVector@M@cloth@nv@@QEAAAEAV012@AEBV?$Array@MVNonTrackingAllocator@ps@cloth@nv@@@ps@12@@Z 000000018000edf0 f i CuFabric.obj
 0001:0000de60       ?empty@?$Range@$$CBI@cloth@nv@@QEBA_NXZ 000000018000ee60 f i CuFabric.obj
 0001:0000de70       ?popFront@?$Range@$$CBI@cloth@nv@@QEAAXXZ 000000018000ee70 f i CuFabric.obj
 0001:0000de80       ?front@?$Range@$$CBI@cloth@nv@@QEBAAEBIXZ 000000018000ee80 f i CuFabric.obj
 0001:0000de90       ?size@?$Range@$$CBM@cloth@nv@@QEBAIXZ 000000018000ee90 f i CuFabric.obj
 0001:0000dea0       ?empty@?$Range@$$CBM@cloth@nv@@QEBA_NXZ 000000018000eea0 f i CuFabric.obj
 0001:0000deb0       ?popFront@?$Range@$$CBM@cloth@nv@@QEAAXXZ 000000018000eeb0 f i CuFabric.obj
 0001:0000dec0       ?begin@?$Range@$$CBM@cloth@nv@@QEBAPEBMXZ 000000018000eec0 f i CuFabric.obj
 0001:0000ded0       ?end@?$Range@$$CBM@cloth@nv@@QEBAPEBMXZ 000000018000eed0 f i CuFabric.obj
 0001:0000dee0       ?front@?$Range@$$CBM@cloth@nv@@QEBAAEBMXZ 000000018000eee0 f i CuFabric.obj
 0001:0000def0       ?resizeUninitialized@?$Array@GVNonTrackingAllocator@ps@cloth@nv@@@ps@cloth@nv@@QEAAXI@Z 000000018000eef0 f i CuFabric.obj
 0001:0000df30       ?end@?$Array@MVNonTrackingAllocator@ps@cloth@nv@@@ps@cloth@nv@@QEAAPEAMXZ 000000018000ef30 f i CuFabric.obj
 0001:0000df40       ?reserve@?$Array@UCuTether@cloth@nv@@VNonTrackingAllocator@ps@23@@ps@cloth@nv@@QEAAXI@Z 000000018000ef40 f i CuFabric.obj
 0001:0000df50       ?pushBack@?$Array@UCuTether@cloth@nv@@VNonTrackingAllocator@ps@23@@ps@cloth@nv@@QEAAAEAUCuTether@34@AEBU534@@Z 000000018000ef50 f i CuFabric.obj
 0001:0000df90       ?end@?$Array@UCuTether@cloth@nv@@VNonTrackingAllocator@ps@23@@ps@cloth@nv@@QEAAPEAUCuTether@34@XZ 000000018000ef90 f i CuFabric.obj
 0001:0000dfa0       ?begin@?$Array@UCuTether@cloth@nv@@VNonTrackingAllocator@ps@23@@ps@cloth@nv@@QEAAPEAUCuTether@34@XZ 000000018000efa0 f i CuFabric.obj
 0001:0000dfb0       ??1?$Array@UCuTether@cloth@nv@@VNonTrackingAllocator@ps@23@@ps@cloth@nv@@QEAA@XZ 000000018000efb0 f i CuFabric.obj
 0001:0000dfe0       ??0?$Array@UCuTether@cloth@nv@@VNonTrackingAllocator@ps@23@@ps@cloth@nv@@QEAA@AEBVNonTrackingAllocator@123@@Z 000000018000efe0 f i CuFabric.obj
 0001:0000dff0       ?end@?$Array@GVNonTrackingAllocator@ps@cloth@nv@@@ps@cloth@nv@@QEAAPEAGXZ 000000018000eff0 f i CuFabric.obj
 0001:0000e000       ?begin@?$Array@GVNonTrackingAllocator@ps@cloth@nv@@@ps@cloth@nv@@QEAAPEAGXZ 000000018000f000 f i CuFabric.obj
 0001:0000e010       ??1?$Array@GVNonTrackingAllocator@ps@cloth@nv@@@ps@cloth@nv@@QEAA@XZ 000000018000f010 f i CuFabric.obj
 0001:0000e040       ??0?$Array@GVNonTrackingAllocator@ps@cloth@nv@@@ps@cloth@nv@@QEAA@AEBVNonTrackingAllocator@123@@Z 000000018000f040 f i CuFabric.obj
 0001:0000e050       ?replaceWithLast@?$Array@PEAVCuFabric@cloth@nv@@VNonTrackingAllocator@ps@23@@ps@cloth@nv@@QEAAXPEAPEAVCuFabric@34@@Z 000000018000f050 f i CuFabric.obj
 0001:0000e070       ?pushBack@?$Array@PEAVCuFabric@cloth@nv@@VNonTrackingAllocator@ps@23@@ps@cloth@nv@@QEAAAEAPEAVCuFabric@34@AEBQEAV534@@Z 000000018000f070 f i CuFabric.obj
 0001:0000e0b0       ?find@?$Array@PEAVCuFabric@cloth@nv@@VNonTrackingAllocator@ps@23@@ps@cloth@nv@@QEAAPEAPEAVCuFabric@34@AEBQEAV534@@Z 000000018000f0b0 f i CuFabric.obj
 0001:0000e0e0       ?pushBack@?$Array@V?$CuDevicePointer@$$CBG@cloth@nv@@VNonTrackingAllocator@ps@23@@ps@cloth@nv@@QEAAAEAV?$CuDevicePointer@$$CBG@34@AEBV534@@Z 000000018000f0e0 f i CuFabric.obj
 0001:0000e120       ??1?$Array@V?$CuDevicePointer@$$CBG@cloth@nv@@VNonTrackingAllocator@ps@23@@ps@cloth@nv@@QEAA@XZ 000000018000f120 f i CuFabric.obj
 0001:0000e150       ??0?$Array@V?$CuDevicePointer@$$CBG@cloth@nv@@VNonTrackingAllocator@ps@23@@ps@cloth@nv@@QEAA@AEBVNonTrackingAllocator@123@@Z 000000018000f150 f i CuFabric.obj
 0001:0000e160       ?pushBack@?$Array@V?$CuDevicePointer@$$CBM@cloth@nv@@VNonTrackingAllocator@ps@23@@ps@cloth@nv@@QEAAAEAV?$CuDevicePointer@$$CBM@34@AEBV534@@Z 000000018000f160 f i CuFabric.obj
 0001:0000e1a0       ??1?$Array@V?$CuDevicePointer@$$CBM@cloth@nv@@VNonTrackingAllocator@ps@23@@ps@cloth@nv@@QEAA@XZ 000000018000f1a0 f i CuFabric.obj
 0001:0000e1d0       ??0?$Array@V?$CuDevicePointer@$$CBM@cloth@nv@@VNonTrackingAllocator@ps@23@@ps@cloth@nv@@QEAA@AEBVNonTrackingAllocator@123@@Z 000000018000f1d0 f i CuFabric.obj
 0001:0000e1e0       ?pushBack@?$Array@IVNonTrackingAllocator@ps@cloth@nv@@@ps@cloth@nv@@QEAAAEAIAEBI@Z 000000018000f1e0 f i CuFabric.obj
 0001:0000e220       ??1?$CuDeviceVector@UCuTether@cloth@nv@@@cloth@nv@@QEAA@XZ 000000018000f220 f i CuFabric.obj
 0001:0000e250       ??0?$CuDeviceVector@UCuTether@cloth@nv@@@cloth@nv@@QEAA@PEAUCUctx_st@@@Z 000000018000f250 f i CuFabric.obj
 0001:0000e270       ??H?$CuDevicePointer@$$CBG@cloth@nv@@QEBA?AV012@AEB_J@Z 000000018000f270 f i CuFabric.obj
 0001:0000e290       ??0?$CuDevicePointer@$$CBG@cloth@nv@@QEAA@AEBV?$CuDevicePointer@G@12@@Z 000000018000f290 f i CuFabric.obj
 0001:0000e2a0       ??1?$CuDeviceVector@G@cloth@nv@@QEAA@XZ 000000018000f2a0 f i CuFabric.obj
 0001:0000e2d0       ??0?$CuDeviceVector@G@cloth@nv@@QEAA@PEAUCUctx_st@@@Z 000000018000f2d0 f i CuFabric.obj
 0001:0000e2f0       ??H?$CuDevicePointer@$$CBM@cloth@nv@@QEBA?AV012@AEB_J@Z 000000018000f2f0 f i CuFabric.obj
 0001:0000e310       ??0?$CuDevicePointer@$$CBM@cloth@nv@@QEAA@AEBV?$CuDevicePointer@M@12@@Z 000000018000f310 f i CuFabric.obj
 0001:0000e320       ??0?$CuDevicePointer@$$CBM@cloth@nv@@QEAA@XZ 000000018000f320 f i CuFabric.obj
 0001:0000e330       ?end@?$CuDeviceVector@M@cloth@nv@@QEAA?AV?$CuDevicePointer@M@23@XZ 000000018000f330 f i CuFabric.obj
 0001:0000e340       ??0?$CuDeviceVector@M@cloth@nv@@QEAA@PEAUCUctx_st@@PEBM1@Z 000000018000f340 f i CuFabric.obj
 0001:0000e3c0       ?push_back@?$CuDeviceVector@I@cloth@nv@@QEAAXPEBI0@Z 000000018000f3c0 f i CuFabric.obj
 0001:0000e480       ?push_back@?$CuDeviceVector@I@cloth@nv@@QEAAXAEBI@Z 000000018000f480 f i CuFabric.obj
 0001:0000e4f0       ??0?$CuDeviceVector@I@cloth@nv@@QEAA@PEAUCUctx_st@@PEBI1@Z 000000018000f4f0 f i CuFabric.obj
 0001:0000e530       ??$assign@PEBM@?$CuDeviceVector@M@cloth@nv@@QEAAXPEBM0@Z 000000018000f530 f i CuFabric.obj
 0001:0000e5a0       ??$?0$$CBG@?$CuDevicePointer@$$CBG@cloth@nv@@QEAA@PEBG@Z 000000018000f5a0 f i CuFabric.obj
 0001:0000e5b0       ??$?0$$CBM@?$CuDevicePointer@$$CBM@cloth@nv@@QEAA@PEBM@Z 000000018000f5b0 f i CuFabric.obj
 0001:0000e5c0       ?growAndPushBack@?$Array@IVNonTrackingAllocator@ps@cloth@nv@@@ps@cloth@nv@@IEAAAEAIAEBI@Z 000000018000f5c0 f i CuFabric.obj
 0001:0000e6a0       ?growAndPushBack@?$Array@V?$CuDevicePointer@$$CBM@cloth@nv@@VNonTrackingAllocator@ps@23@@ps@cloth@nv@@IEAAAEAV?$CuDevicePointer@$$CBM@34@AEBV534@@Z 000000018000f6a0 f i CuFabric.obj
 0001:0000e790       ?growAndPushBack@?$Array@V?$CuDevicePointer@$$CBG@cloth@nv@@VNonTrackingAllocator@ps@23@@ps@cloth@nv@@IEAAAEAV?$CuDevicePointer@$$CBG@34@AEBV534@@Z 000000018000f790 f i CuFabric.obj
 0001:0000e880       ?growAndPushBack@?$Array@PEAVCuFabric@cloth@nv@@VNonTrackingAllocator@ps@23@@ps@cloth@nv@@IEAAAEAPEAVCuFabric@34@AEBQEAV534@@Z 000000018000f880 f i CuFabric.obj
 0001:0000e970       ?growAndPushBack@?$Array@UCuTether@cloth@nv@@VNonTrackingAllocator@ps@23@@ps@cloth@nv@@IEAAAEAUCuTether@34@AEBU534@@Z 000000018000f970 f i CuFabric.obj
 0001:0000ea50       ?front@?$Array@MVNonTrackingAllocator@ps@cloth@nv@@@ps@cloth@nv@@QEBAAEBMXZ 000000018000fa50 f i CuFabric.obj
 0001:0000ea60       ?grow@?$Array@UCuTether@cloth@nv@@VNonTrackingAllocator@ps@23@@ps@cloth@nv@@IEAAXI@Z 000000018000fa60 f i CuFabric.obj
 0001:0000ea70       ?destroy@?$Array@UCuTether@cloth@nv@@VNonTrackingAllocator@ps@23@@ps@cloth@nv@@KAXPEAUCuTether@34@0@Z 000000018000fa70 f i CuFabric.obj
 0001:0000ea80       ?deallocate@?$Array@UCuTether@cloth@nv@@VNonTrackingAllocator@ps@23@@ps@cloth@nv@@IEAAXPEAX@Z 000000018000fa80 f i CuFabric.obj
 0001:0000eaa0       ?isInUserMemory@?$Array@UCuTether@cloth@nv@@VNonTrackingAllocator@ps@23@@ps@cloth@nv@@QEBAIXZ 000000018000faa0 f i CuFabric.obj
 0001:0000eab0       ?capacity@?$Array@UCuTether@cloth@nv@@VNonTrackingAllocator@ps@23@@ps@cloth@nv@@QEBAIXZ 000000018000fab0 f i CuFabric.obj
 0001:0000eac0       ?destroy@?$Array@GVNonTrackingAllocator@ps@cloth@nv@@@ps@cloth@nv@@KAXPEAG0@Z 000000018000fac0 f i CuFabric.obj
 0001:0000ead0       ?deallocate@?$Array@GVNonTrackingAllocator@ps@cloth@nv@@@ps@cloth@nv@@IEAAXPEAX@Z 000000018000fad0 f i CuFabric.obj
 0001:0000eaf0       ?isInUserMemory@?$Array@GVNonTrackingAllocator@ps@cloth@nv@@@ps@cloth@nv@@QEBAIXZ 000000018000faf0 f i CuFabric.obj
 0001:0000eb00       ?capacity@?$Array@GVNonTrackingAllocator@ps@cloth@nv@@@ps@cloth@nv@@QEBAIXZ 000000018000fb00 f i CuFabric.obj
 0001:0000eb10       ?reserve@?$Array@GVNonTrackingAllocator@ps@cloth@nv@@@ps@cloth@nv@@QEAAXI@Z 000000018000fb10 f i CuFabric.obj
 0001:0000eb20       ?capacity@?$Array@PEAVCuFabric@cloth@nv@@VNonTrackingAllocator@ps@23@@ps@cloth@nv@@QEBAIXZ 000000018000fb20 f i CuFabric.obj
 0001:0000eb30       ?replaceWithLast@?$Array@PEAVCuFabric@cloth@nv@@VNonTrackingAllocator@ps@23@@ps@cloth@nv@@QEAAXI@Z 000000018000fb30 f i CuFabric.obj
 0001:0000eb50       ?destroy@?$Array@V?$CuDevicePointer@$$CBG@cloth@nv@@VNonTrackingAllocator@ps@23@@ps@cloth@nv@@KAXPEAV?$CuDevicePointer@$$CBG@34@0@Z 000000018000fb50 f i CuFabric.obj
 0001:0000eb60       ?deallocate@?$Array@V?$CuDevicePointer@$$CBG@cloth@nv@@VNonTrackingAllocator@ps@23@@ps@cloth@nv@@IEAAXPEAX@Z 000000018000fb60 f i CuFabric.obj
 0001:0000eb80       ?isInUserMemory@?$Array@V?$CuDevicePointer@$$CBG@cloth@nv@@VNonTrackingAllocator@ps@23@@ps@cloth@nv@@QEBAIXZ 000000018000fb80 f i CuFabric.obj
 0001:0000eb90       ?capacity@?$Array@V?$CuDevicePointer@$$CBG@cloth@nv@@VNonTrackingAllocator@ps@23@@ps@cloth@nv@@QEBAIXZ 000000018000fb90 f i CuFabric.obj
 0001:0000eba0       ?destroy@?$Array@V?$CuDevicePointer@$$CBM@cloth@nv@@VNonTrackingAllocator@ps@23@@ps@cloth@nv@@KAXPEAV?$CuDevicePointer@$$CBM@34@0@Z 000000018000fba0 f i CuFabric.obj
 0001:0000ebb0       ?deallocate@?$Array@V?$CuDevicePointer@$$CBM@cloth@nv@@VNonTrackingAllocator@ps@23@@ps@cloth@nv@@IEAAXPEAX@Z 000000018000fbb0 f i CuFabric.obj
 0001:0000ebd0       ?isInUserMemory@?$Array@V?$CuDevicePointer@$$CBM@cloth@nv@@VNonTrackingAllocator@ps@23@@ps@cloth@nv@@QEBAIXZ 000000018000fbd0 f i CuFabric.obj
 0001:0000ebe0       ?capacity@?$Array@V?$CuDevicePointer@$$CBM@cloth@nv@@VNonTrackingAllocator@ps@23@@ps@cloth@nv@@QEBAIXZ 000000018000fbe0 f i CuFabric.obj
 0001:0000ebf0       ?dev@?$CuDevicePointer@UCuTether@cloth@nv@@@cloth@nv@@QEBA_KXZ 000000018000fbf0 f i CuFabric.obj
 0001:0000ec00       ??0?$CuDevicePointer@UCuTether@cloth@nv@@@cloth@nv@@QEAA@XZ 000000018000fc00 f i CuFabric.obj
 0001:0000ec10       ?resize@?$CuDeviceVector@UCuTether@cloth@nv@@@cloth@nv@@QEAAX_K@Z 000000018000fc10 f i CuFabric.obj
 0001:0000ed30       ?dev@?$CuDevicePointer@G@cloth@nv@@QEBA_KXZ 000000018000fd30 f i CuFabric.obj
 0001:0000ed40       ??0?$CuDevicePointer@G@cloth@nv@@QEAA@XZ 000000018000fd40 f i CuFabric.obj
 0001:0000ed50       ?resize@?$CuDeviceVector@G@cloth@nv@@QEAAX_K@Z 000000018000fd50 f i CuFabric.obj
 0001:0000ee70       ??4?$CuDeviceReference@I@cloth@nv@@QEAAAEAV012@AEBI@Z 000000018000fe70 f i CuFabric.obj
 0001:0000eeb0       ??D?$CuDevicePointer@I@cloth@nv@@QEBA?AV?$CuDeviceReference@I@12@XZ 000000018000feb0 f i CuFabric.obj
 0001:0000eec0       ??Y?$CuDevicePointer@I@cloth@nv@@QEAAAEAV012@_J@Z 000000018000fec0 f i CuFabric.obj
 0001:0000eed0       ??E?$CuDevicePointer@I@cloth@nv@@QEAA?AV012@H@Z 000000018000fed0 f i CuFabric.obj
 0001:0000eef0       ??A?$CuDevicePointer@I@cloth@nv@@QEBA?AV?$CuDeviceReference@I@12@AEB_J@Z 000000018000fef0 f i CuFabric.obj
 0001:0000ef10       ?recreate@?$Array@UCuTether@cloth@nv@@VNonTrackingAllocator@ps@23@@ps@cloth@nv@@IEAAXI@Z 000000018000ff10 f i CuFabric.obj
 0001:0000efc0       ?capacityIncrement@?$Array@UCuTether@cloth@nv@@VNonTrackingAllocator@ps@23@@ps@cloth@nv@@IEBAIXZ 000000018000ffc0 f i CuFabric.obj
 0001:0000efe0       ?copy@?$Array@UCuTether@cloth@nv@@VNonTrackingAllocator@ps@23@@ps@cloth@nv@@KAXPEAUCuTether@34@0PEBU534@@Z 000000018000ffe0 f i CuFabric.obj
 0001:0000f000       ?allocate@?$Array@UCuTether@cloth@nv@@VNonTrackingAllocator@ps@23@@ps@cloth@nv@@IEAAPEAUCuTether@34@I@Z 0000000180010000 f i CuFabric.obj
 0001:0000f050       ?grow@?$Array@GVNonTrackingAllocator@ps@cloth@nv@@@ps@cloth@nv@@IEAAXI@Z 0000000180010050 f i CuFabric.obj
 0001:0000f060       ?capacityIncrement@?$Array@PEAVCuFabric@cloth@nv@@VNonTrackingAllocator@ps@23@@ps@cloth@nv@@IEBAIXZ 0000000180010060 f i CuFabric.obj
 0001:0000f080       ?destroy@?$Array@PEAVCuFabric@cloth@nv@@VNonTrackingAllocator@ps@23@@ps@cloth@nv@@KAXPEAPEAVCuFabric@34@0@Z 0000000180010080 f i CuFabric.obj
 0001:0000f090       ?copy@?$Array@PEAVCuFabric@cloth@nv@@VNonTrackingAllocator@ps@23@@ps@cloth@nv@@KAXPEAPEAVCuFabric@34@0PEBQEAV534@@Z 0000000180010090 f i CuFabric.obj
 0001:0000f0c0       ?deallocate@?$Array@PEAVCuFabric@cloth@nv@@VNonTrackingAllocator@ps@23@@ps@cloth@nv@@IEAAXPEAX@Z 00000001800100c0 f i CuFabric.obj
 0001:0000f0e0       ?allocate@?$Array@PEAVCuFabric@cloth@nv@@VNonTrackingAllocator@ps@23@@ps@cloth@nv@@IEAAPEAPEAVCuFabric@34@I@Z 00000001800100e0 f i CuFabric.obj
 0001:0000f130       ?isInUserMemory@?$Array@PEAVCuFabric@cloth@nv@@VNonTrackingAllocator@ps@23@@ps@cloth@nv@@QEBAIXZ 0000000180010130 f i CuFabric.obj
 0001:0000f140       ?capacityIncrement@?$Array@V?$CuDevicePointer@$$CBG@cloth@nv@@VNonTrackingAllocator@ps@23@@ps@cloth@nv@@IEBAIXZ 0000000180010140 f i CuFabric.obj
 0001:0000f160       ?copy@?$Array@V?$CuDevicePointer@$$CBG@cloth@nv@@VNonTrackingAllocator@ps@23@@ps@cloth@nv@@KAXPEAV?$CuDevicePointer@$$CBG@34@0PEBV534@@Z 0000000180010160 f i CuFabric.obj
 0001:0000f190       ?allocate@?$Array@V?$CuDevicePointer@$$CBG@cloth@nv@@VNonTrackingAllocator@ps@23@@ps@cloth@nv@@IEAAPEAV?$CuDevicePointer@$$CBG@34@I@Z 0000000180010190 f i CuFabric.obj
 0001:0000f1e0       ?capacityIncrement@?$Array@V?$CuDevicePointer@$$CBM@cloth@nv@@VNonTrackingAllocator@ps@23@@ps@cloth@nv@@IEBAIXZ 00000001800101e0 f i CuFabric.obj
 0001:0000f200       ?copy@?$Array@V?$CuDevicePointer@$$CBM@cloth@nv@@VNonTrackingAllocator@ps@23@@ps@cloth@nv@@KAXPEAV?$CuDevicePointer@$$CBM@34@0PEBV534@@Z 0000000180010200 f i CuFabric.obj
 0001:0000f230       ?allocate@?$Array@V?$CuDevicePointer@$$CBM@cloth@nv@@VNonTrackingAllocator@ps@23@@ps@cloth@nv@@IEAAPEAV?$CuDevicePointer@$$CBM@34@I@Z 0000000180010230 f i CuFabric.obj
 0001:0000f280       ?capacityIncrement@?$Array@IVNonTrackingAllocator@ps@cloth@nv@@@ps@cloth@nv@@IEBAIXZ 0000000180010280 f i CuFabric.obj
 0001:0000f2a0       ??H?$CuDevicePointer@UCuTether@cloth@nv@@@cloth@nv@@QEBA?AV012@AEB_J@Z 00000001800102a0 f i CuFabric.obj
 0001:0000f2c0       ?reserve@?$CuDeviceVector@UCuTether@cloth@nv@@@cloth@nv@@QEAAX_K@Z 00000001800102c0 f i CuFabric.obj
 0001:0000f3a0       ?capacity@?$CuDeviceVector@UCuTether@cloth@nv@@@cloth@nv@@QEBA_KXZ 00000001800103a0 f i CuFabric.obj
 0001:0000f3b0       ??H?$CuDevicePointer@G@cloth@nv@@QEBA?AV012@AEB_J@Z 00000001800103b0 f i CuFabric.obj
 0001:0000f3d0       ?reserve@?$CuDeviceVector@G@cloth@nv@@QEAAX_K@Z 00000001800103d0 f i CuFabric.obj
 0001:0000f4b0       ?capacity@?$CuDeviceVector@G@cloth@nv@@QEBA_KXZ 00000001800104b0 f i CuFabric.obj
 0001:0000f4c0       ??E?$CuDevicePointer@I@cloth@nv@@QEAAAEAV012@XZ 00000001800104c0 f i CuFabric.obj
 0001:0000f4d0       ??$?0I@?$CuDeviceReference@I@cloth@nv@@AEAA@V?$CuDevicePointer@I@12@@Z 00000001800104d0 f i CuFabric.obj
 0001:0000f4e0       ??$?0UCuTether@cloth@nv@@@?$CuDevicePointer@UCuTether@cloth@nv@@@cloth@nv@@QEAA@PEAUCuTether@12@@Z 00000001800104e0 f i CuFabric.obj
 0001:0000f4f0       ??$?0G@?$CuDevicePointer@G@cloth@nv@@QEAA@PEAG@Z 00000001800104f0 f i CuFabric.obj
 0001:0000f500       ?recreate@?$Array@GVNonTrackingAllocator@ps@cloth@nv@@@ps@cloth@nv@@IEAAXI@Z 0000000180010500 f i CuFabric.obj
 0001:0000f5b0       ?copy@?$Array@GVNonTrackingAllocator@ps@cloth@nv@@@ps@cloth@nv@@KAXPEAG0PEBG@Z 00000001800105b0 f i CuFabric.obj
 0001:0000f5e0       ?allocate@?$Array@GVNonTrackingAllocator@ps@cloth@nv@@@ps@cloth@nv@@IEAAPEAGI@Z 00000001800105e0 f i CuFabric.obj
 0001:0000f620       ??0Factory@cloth@nv@@IEAA@XZ 0000000180010620 f i CuFactory.obj
 0001:0000f630       ??1Factory@cloth@nv@@MEAA@XZ 0000000180010630 f i CuFactory.obj
 0001:0000f640       ??_EFactory@cloth@nv@@MEAAPEAXI@Z 0000000180010640 f i * CIL library *:* CIL module *
 0001:0000f640       ??_GFactory@cloth@nv@@MEAAPEAXI@Z 0000000180010640 f i CuFactory.obj
 0001:0000f690       ?getPlatform@CuFactory@cloth@nv@@UEBA?AW4Platform@23@XZ 0000000180010690 f i CuFactory.obj
 0001:0000f6a0       ??_ECuFactory@cloth@nv@@UEAAPEAXI@Z 00000001800106a0 f i * CIL library *:* CIL module *
 0001:0000f6a0       ??_GCuFactory@cloth@nv@@UEAAPEAXI@Z 00000001800106a0 f i CuFactory.obj
 0001:0000f730       ??$?0G@?$Vec4T@I@cloth@nv@@QEAA@AEBU?$Vec4T@G@12@@Z 0000000180010730 f i CuFactory.obj
 0001:0000f750       ?size@?$Range@I@cloth@nv@@QEBAIXZ 0000000180010750 f i CuFactory.obj
 0001:0000f760       ?empty@?$Range@I@cloth@nv@@QEBA_NXZ 0000000180010760 f i CuFactory.obj
 0001:0000f770       ?popFront@?$Range@I@cloth@nv@@QEAAXXZ 0000000180010770 f i CuFactory.obj
 0001:0000f780       ?front@?$Range@I@cloth@nv@@QEBAAEAIXZ 0000000180010780 f i CuFactory.obj
 0001:0000f790       ??A?$Range@I@cloth@nv@@QEBAAEAII@Z 0000000180010790 f i CuFactory.obj
 0001:0000f7a0       ?empty@?$Range@M@cloth@nv@@QEBA_NXZ 00000001800107a0 f i CuFactory.obj
 0001:0000f7b0       ?popFront@?$Range@M@cloth@nv@@QEAAXXZ 00000001800107b0 f i CuFactory.obj
 0001:0000f7c0       ?front@?$Range@M@cloth@nv@@QEBAAEAMXZ 00000001800107c0 f i CuFactory.obj
 0001:0000f7d0       ?empty@?$Range@VPxVec4@physx@@@cloth@nv@@QEBA_NXZ 00000001800107d0 f i CuFactory.obj
 0001:0000f7e0       ?size@?$Range@VPxVec3@physx@@@cloth@nv@@QEBAIXZ 00000001800107e0 f i CuFactory.obj
 0001:0000f800       ?empty@?$Range@VPxVec3@physx@@@cloth@nv@@QEBA_NXZ 0000000180010800 f i CuFactory.obj
 0001:0000f810       ?size@?$Range@$$BY03I@cloth@nv@@QEBAIXZ 0000000180010810 f i CuFactory.obj
 0001:0000f820       ?front@?$Array@U?$Vec4T@G@cloth@nv@@VNonTrackingAllocator@ps@23@@ps@cloth@nv@@QEAAAEAU?$Vec4T@G@34@XZ 0000000180010820 f i CuFactory.obj
 0001:0000f830       ?begin@?$Array@U?$Vec4T@G@cloth@nv@@VNonTrackingAllocator@ps@23@@ps@cloth@nv@@QEAAPEAU?$Vec4T@G@34@XZ 0000000180010830 f i CuFactory.obj
 0001:0000f840       ??0?$Array@U?$Vec4T@G@cloth@nv@@VNonTrackingAllocator@ps@23@@ps@cloth@nv@@QEAA@IAEBU?$Vec4T@G@23@AEBVNonTrackingAllocator@123@@Z 0000000180010840 f i CuFactory.obj
 0001:0000f860       ??A?$Array@UCuTether@cloth@nv@@VNonTrackingAllocator@ps@23@@ps@cloth@nv@@QEAAAEAUCuTether@23@I@Z 0000000180010860 f i CuFactory.obj
 0001:0000f870       ??0?$Array@UCuTether@cloth@nv@@VNonTrackingAllocator@ps@23@@ps@cloth@nv@@QEAA@IAEBUCuTether@23@AEBVNonTrackingAllocator@123@@Z 0000000180010870 f i CuFactory.obj
 0001:0000f890       ?get@?$CuDevicePointer@$$CBU?$Vec4T@G@cloth@nv@@@cloth@nv@@QEBAPEBU?$Vec4T@G@23@XZ 0000000180010890 f i CuFactory.obj
 0001:0000f8a0       ?end@?$CuDeviceVector@U?$Vec4T@G@cloth@nv@@@cloth@nv@@QEBA?AV?$CuDevicePointer@$$CBU?$Vec4T@G@cloth@nv@@@23@XZ 00000001800108a0 f i CuFactory.obj
 0001:0000f8b0       ?begin@?$CuDeviceVector@U?$Vec4T@G@cloth@nv@@@cloth@nv@@QEBA?AV?$CuDevicePointer@$$CBU?$Vec4T@G@cloth@nv@@@23@XZ 00000001800108b0 f i CuFactory.obj
 0001:0000f8c0       ?front@?$Array@VPxVec3@physx@@V?$CuHostAllocator@VPxVec3@physx@@$01@cloth@nv@@@ps@cloth@nv@@QEBAAEBVPxVec3@physx@@XZ 00000001800108c0 f i CuFactory.obj
 0001:0000f8d0       ?front@?$Array@IV?$CuHostAllocator@I$01@cloth@nv@@@ps@cloth@nv@@QEBAAEBIXZ 00000001800108d0 f i CuFactory.obj
 0001:0000f8e0       ?front@?$Array@UIndexPair@cloth@nv@@V?$CuHostAllocator@UIndexPair@cloth@nv@@$01@23@@ps@cloth@nv@@QEBAAEBUIndexPair@34@XZ 00000001800108e0 f i CuFactory.obj
 0001:0000f8f0       ?front@?$Array@VPxVec4@physx@@V?$CuHostAllocator@VPxVec4@physx@@$01@cloth@nv@@@ps@cloth@nv@@QEBAAEBVPxVec4@physx@@XZ 00000001800108f0 f i CuFactory.obj
 0001:0000f900       ?get@?$CuDevicePointer@$$CBVPxVec4@physx@@@cloth@nv@@QEBAPEBVPxVec4@physx@@XZ 0000000180010900 f i CuFactory.obj
 0001:0000f910       ?end@?$CuDeviceVector@VPxVec4@physx@@@cloth@nv@@QEBA?AV?$CuDevicePointer@$$CBVPxVec4@physx@@@23@XZ 0000000180010910 f i CuFactory.obj
 0001:0000f920       ?begin@?$CuDeviceVector@VPxVec4@physx@@@cloth@nv@@QEBA?AV?$CuDevicePointer@$$CBVPxVec4@physx@@@23@XZ 0000000180010920 f i CuFactory.obj
 0001:0000f930       ??0?$Vec4T@G@cloth@nv@@QEAA@XZ 0000000180010930 f i CuFactory.obj
 0001:0000f940       ?get@?$CuDevicePointer@$$CBUCuTether@cloth@nv@@@cloth@nv@@QEBAPEBUCuTether@23@XZ 0000000180010940 f i CuFactory.obj
 0001:0000f950       ?begin@?$CuDeviceVector@UCuTether@cloth@nv@@@cloth@nv@@QEBA?AV?$CuDevicePointer@$$CBUCuTether@cloth@nv@@@23@XZ 0000000180010950 f i CuFactory.obj
 0001:0000f960       ?begin@?$CuDeviceVector@G@cloth@nv@@QEBA?AV?$CuDevicePointer@$$CBG@23@XZ 0000000180010960 f i CuFactory.obj
 0001:0000f970       ?begin@?$CuDeviceVector@M@cloth@nv@@QEBA?AV?$CuDevicePointer@$$CBM@23@XZ 0000000180010970 f i CuFactory.obj
 0001:0000f980       ?get@?$CuDevicePointer@$$CBI@cloth@nv@@QEBAPEBIXZ 0000000180010980 f i CuFactory.obj
 0001:0000f990       ?end@?$CuDeviceVector@I@cloth@nv@@QEBA?AV?$CuDevicePointer@$$CBI@23@XZ 0000000180010990 f i CuFactory.obj
 0001:0000f9a0       ?begin@?$CuDeviceVector@I@cloth@nv@@QEBA?AV?$CuDevicePointer@$$CBI@23@XZ 00000001800109a0 f i CuFactory.obj
 0001:0000f9b0       ??1?$Array@PEAVCuFabric@cloth@nv@@VNonTrackingAllocator@ps@23@@ps@cloth@nv@@QEAA@XZ 00000001800109b0 f i CuFactory.obj
 0001:0000f9e0       ??0?$Array@PEAVCuFabric@cloth@nv@@VNonTrackingAllocator@ps@23@@ps@cloth@nv@@QEAA@AEBVNonTrackingAllocator@123@@Z 00000001800109e0 f i CuFactory.obj
 0001:0000f9f0       ?resize@?$Array@UCuTether@cloth@nv@@VNonTrackingAllocator@ps@23@@ps@cloth@nv@@QEAAXIAEBUCuTether@34@@Z 00000001800109f0 f i CuFactory.obj
 0001:0000fab0       ?resize@?$Array@U?$Vec4T@G@cloth@nv@@VNonTrackingAllocator@ps@23@@ps@cloth@nv@@QEAAXIAEBU?$Vec4T@G@34@@Z 0000000180010ab0 f i CuFactory.obj
 0001:0000fb70       ??0?$CuDevicePointer@$$CBU?$Vec4T@G@cloth@nv@@@cloth@nv@@QEAA@AEBV?$CuDevicePointer@U?$Vec4T@G@cloth@nv@@@12@@Z 0000000180010b70 f i CuFactory.obj
 0001:0000fb80       ??0?$CuDevicePointer@$$CBVPxVec4@physx@@@cloth@nv@@QEAA@AEBV?$CuDevicePointer@VPxVec4@physx@@@12@@Z 0000000180010b80 f i CuFactory.obj
 0001:0000fb90       ??0?$CuDevicePointer@$$CBUCuTether@cloth@nv@@@cloth@nv@@QEAA@AEBV?$CuDevicePointer@UCuTether@cloth@nv@@@12@@Z 0000000180010b90 f i CuFactory.obj
 0001:0000fba0       ??0?$CuDevicePointer@$$CBI@cloth@nv@@QEAA@AEBV?$CuDevicePointer@I@12@@Z 0000000180010ba0 f i CuFactory.obj
 0001:0000fbb0       ?create@?$Array@U?$Vec4T@G@cloth@nv@@VNonTrackingAllocator@ps@23@@ps@cloth@nv@@KAXPEAU?$Vec4T@G@34@0AEBU534@@Z 0000000180010bb0 f i CuFactory.obj
 0001:0000fc40       ?create@?$Array@UCuTether@cloth@nv@@VNonTrackingAllocator@ps@23@@ps@cloth@nv@@KAXPEAUCuTether@34@0AEBU534@@Z 0000000180010c40 f i CuFactory.obj
 0001:0000fcd0       ?fsel@intrinsics@physx@@YAMMMM@Z 0000000180010cd0 f i CuSolver.obj
 0001:0000fce0       ?sqrt@intrinsics@physx@@YAMM@Z 0000000180010ce0 f i CuSolver.obj
 0001:0000fcf0       ?sin@intrinsics@physx@@YAMM@Z 0000000180010cf0 f i CuSolver.obj
 0001:0000fd00       ?cos@intrinsics@physx@@YAMM@Z 0000000180010d00 f i CuSolver.obj
 0001:0000fd10       ??0Solver@cloth@nv@@IEAA@XZ 0000000180010d10 f i CuSolver.obj
 0001:0000fd20       ??1Solver@cloth@nv@@UEAA@XZ 0000000180010d20 f i CuSolver.obj
 0001:0000fd30       ??_ESolver@cloth@nv@@UEAAPEAXI@Z 0000000180010d30 f i * CIL library *:* CIL module *
 0001:0000fd30       ??_GSolver@cloth@nv@@UEAAPEAXI@Z 0000000180010d30 f i CuSolver.obj
 0001:0000fd80       ??0Simd4fLoadFactory@cloth@nv@@QEAA@PEBM@Z 0000000180010d80 f i CuSolver.obj
 0001:0000fd90       ?simd4f@cloth@nv@@YA?AUSimd4fTupleFactory@12@AEBUSimd4iTupleFactory@12@@Z 0000000180010d90 f i CuSolver.obj
 0001:0000fda0       ?load@cloth@nv@@YA?AUSimd4fLoadFactory@12@PEBM@Z 0000000180010da0 f i CuSolver.obj
 0001:0000fdb0       ??BSimd4fZeroFactory@cloth@nv@@QEBA?AT__m128@@XZ 0000000180010db0 f i CuSolver.obj
 0001:0000fdc0       ??BSimd4fLoadFactory@cloth@nv@@QEBA?AT__m128@@XZ 0000000180010dc0 f i CuSolver.obj
 0001:0000fdd0       ??Icloth@nv@@YA?AT__m128@@AEBT2@0@Z 0000000180010dd0 f i CuSolver.obj
 0001:0000fde0       ?select@cloth@nv@@YA?AT__m128@@AEBT3@00@Z 0000000180010de0 f i CuSolver.obj
 0001:0000fdf0       ?rsqrt@cloth@nv@@YA?AT__m128@@AEBT3@@Z 0000000180010df0 f i CuSolver.obj
 0001:0000fe00       ?dot3@cloth@nv@@YA?AT__m128@@AEBT3@0@Z 0000000180010e00 f i CuSolver.obj
 0001:0000fe20       ??0Simd4iTupleFactory@cloth@nv@@QEAA@HHHH@Z 0000000180010e20 f i CuSolver.obj
 0001:0000fe40       ?simd4i@cloth@nv@@YA?AUSimd4iTupleFactory@12@HHHH@Z 0000000180010e40 f i CuSolver.obj
 0001:0000fe60       ??0CuClothData@cloth@nv@@QEAA@XZ 0000000180010e60 f i CuSolver.obj
 0001:0000fe70       ??0CuFrameData@cloth@nv@@QEAA@XZ 0000000180010e70 f i CuSolver.obj
 0001:0000fe80       ??0CuIterationData@cloth@nv@@QEAA@XZ 0000000180010e80 f i CuSolver.obj
 0001:0000fe90       ?PxSqrt@physx@@YAMM@Z      0000000180010e90 f i CuSolver.obj
 0001:0000fea0       ?PxSin@physx@@YAMM@Z       0000000180010ea0 f i CuSolver.obj
 0001:0000feb0       ?PxCos@physx@@YAMM@Z       0000000180010eb0 f i CuSolver.obj
 0001:0000fec0       ?PxAsin@physx@@YAMM@Z      0000000180010ec0 f i CuSolver.obj
 0001:0000fee0       ??APxVec3@physx@@QEAAAEAMI@Z 0000000180010ee0 f i CuSolver.obj
 0001:0000fef0       ?magnitude@PxVec3@physx@@QEBAMXZ 0000000180010ef0 f i CuSolver.obj
 0001:0000ff20       ??DPxVec3@physx@@QEBA?AV01@M@Z 0000000180010f20 f i CuSolver.obj
 0001:0000ff50       ??0PxVec4@physx@@QEAA@AEBVPxVec3@1@M@Z 0000000180010f50 f i CuSolver.obj
 0001:0000ff70       ??APxVec4@physx@@QEAAAEAMI@Z 0000000180010f70 f i CuSolver.obj
 0001:0000ff80       ?getXYZ@PxVec4@physx@@QEBA?AVPxVec3@2@XZ 0000000180010f80 f i CuSolver.obj
 0001:0000ffa0       ??0PxQuat@physx@@QEAA@AEBV01@@Z 0000000180010fa0 f i CuSolver.obj
 0001:0000ffc0       ?getConjugate@PxQuat@physx@@QEBA?AV12@XZ 0000000180010fc0 f i CuSolver.obj
 0001:00010000       ?getImaginaryPart@PxQuat@physx@@QEBA?AVPxVec3@2@XZ 0000000180011000 f i CuSolver.obj
 0001:00010020       ??DPxQuat@physx@@QEBA?AV01@AEBV01@@Z 0000000180011020 f i CuSolver.obj
 0001:00010160       ??0SwInterCollisionData@cloth@nv@@QEAA@XZ 0000000180011160 f i CuSolver.obj
 0001:00010170       ??0SwInterCollisionData@cloth@nv@@QEAA@PEAVPxVec4@physx@@0IPEAIAEBVPxTransform@4@AEBVPxVec3@4@3MPEAX@Z 0000000180011170 f i CuSolver.obj
 0001:00010200       ??0PxTransform@physx@@QEAA@AEBV01@@Z 0000000180011200 f i CuSolver.obj
 0001:00010230       ?hasError@CuSolver@cloth@nv@@UEBA_NXZ 0000000180011230 f i CuSolver.obj
 0001:00010240       ?setInterCollisionDistance@CuSolver@cloth@nv@@UEAAXM@Z 0000000180011240 f i CuSolver.obj
 0001:00010250       ?getInterCollisionDistance@CuSolver@cloth@nv@@UEBAMXZ 0000000180011250 f i CuSolver.obj
 0001:00010260       ?setInterCollisionStiffness@CuSolver@cloth@nv@@UEAAXM@Z 0000000180011260 f i CuSolver.obj
 0001:00010270       ?getInterCollisionStiffness@CuSolver@cloth@nv@@UEBAMXZ 0000000180011270 f i CuSolver.obj
 0001:00010280       ?setInterCollisionNbIterations@CuSolver@cloth@nv@@UEAAXI@Z 0000000180011280 f i CuSolver.obj
 0001:00010290       ?getInterCollisionNbIterations@CuSolver@cloth@nv@@UEBAIXZ 0000000180011290 f i CuSolver.obj
 0001:000102a0       ?setInterCollisionFilter@CuSolver@cloth@nv@@UEAAXP6A_NPEAX0@Z@Z 00000001800112a0 f i CuSolver.obj
 0001:000102b0       ?empty@MovingAverage@cloth@nv@@QEBA_NXZ 00000001800112b0 f i CuSolver.obj
 0001:000102c0       ?push@MovingAverage@cloth@nv@@QEAAXIM@Z 00000001800112c0 f i CuSolver.obj
 0001:00010510       ?average@MovingAverage@cloth@nv@@QEBAMXZ 0000000180011510 f i CuSolver.obj
 0001:00010620       ?array@cloth@nv@@YAAEAY02$$CBMAEBVPxVec3@physx@@@Z 0000000180011620 f i CuSolver.obj
 0001:00010630       ?array@cloth@nv@@YAAEAY03$$CBMAEBVPxVec4@physx@@@Z 0000000180011630 f i CuSolver.obj
 0001:00010640       ??0PxMat33@physx@@QEAA@AEBVPxVec3@1@00@Z 0000000180011640 f i CuSolver.obj
 0001:00010680       ??RPxMat33@physx@@QEAAAEAMII@Z 0000000180011680 f i CuSolver.obj
 0001:000106a0       ??APxMat33@physx@@QEAAAEAVPxVec3@1@I@Z 00000001800116a0 f i CuSolver.obj
 0001:000106b0       ?star@ps@cloth@nv@@YA?AVPxMat33@physx@@AEBVPxVec3@5@@Z 00000001800116b0 f i CuSolver.obj
 0001:00010700       ??0PxMat44@physx@@QEAA@AEBVPxQuat@1@@Z 0000000180011700 f i CuSolver.obj
 0001:00010870       ??RPxMat44@physx@@QEAAAEAMII@Z 0000000180011870 f i CuSolver.obj
 0001:00010880       ?rotate@PxMat44@physx@@QEBA?BVPxVec4@2@AEBV32@@Z 0000000180011880 f i CuSolver.obj
 0001:00010930       ?rotate@PxMat44@physx@@QEBA?BVPxVec3@2@AEBV32@@Z 0000000180011930 f i CuSolver.obj
 0001:000109c0       ??APxMat44@physx@@QEAAAEAVPxVec4@1@I@Z 00000001800119c0 f i CuSolver.obj
 0001:000109d0       ??APxMat44@physx@@QEBAAEBVPxVec4@1@I@Z 00000001800119d0 f i CuSolver.obj
 0001:000109e0       ?log@cloth@nv@@YA?AVPxVec3@physx@@AEBVPxQuat@4@@Z 00000001800119e0 f i CuSolver.obj
 0001:00010ad0       ?exp@cloth@nv@@YA?AVPxQuat@physx@@AEBVPxVec3@4@@Z 0000000180011ad0 f i CuSolver.obj
 0001:00010b90       ??_ECuSolver@cloth@nv@@UEAAPEAXI@Z 0000000180011b90 f i * CIL library *:* CIL module *
 0001:00010b90       ??_GCuSolver@cloth@nv@@UEAAPEAXI@Z 0000000180011b90 f i CuSolver.obj
 0001:00010bf0       ??1?$CuHostVectorImpl@UCuClothData@cloth@nv@@$03@cloth@nv@@QEAA@XZ 0000000180011bf0 f i CuSolver.obj
 0001:00010c30       ??1?$CuHostVectorImpl@UCuFrameData@cloth@nv@@$01@cloth@nv@@QEAA@XZ 0000000180011c30 f i CuSolver.obj
 0001:00010c70       ??1?$CuHostVectorImpl@UCuIterationData@cloth@nv@@$01@cloth@nv@@QEAA@XZ 0000000180011c70 f i CuSolver.obj
 0001:00010cb0       ??$PX_UNUSED@H@@YAXAEBH@Z  0000000180011cb0 f i CuSolver.obj
 0001:00010cc0       ??$splat@$0A@@cloth@nv@@YA?AT__m128@@AEBT2@@Z 0000000180011cc0 f i CuSolver.obj
 0001:00010cd0       ??$splat@$00@cloth@nv@@YA?AT__m128@@AEBT2@@Z 0000000180011cd0 f i CuSolver.obj
 0001:00010ce0       ??$splat@$01@cloth@nv@@YA?AT__m128@@AEBT2@@Z 0000000180011ce0 f i CuSolver.obj
 0001:00010cf0       ??$PxClamp@M@physx@@YAMMMM@Z 0000000180011cf0 f i CuSolver.obj
 0001:00010d10       ??$getDevicePointer@UCuFrameData@cloth@nv@@$01@cloth@nv@@YAPEAUCuFrameData@01@AEAV?$CuHostVectorImpl@UCuFrameData@cloth@nv@@$01@01@@Z 0000000180011d10 f i CuSolver.obj
 0001:00010d20       ??$?0VCuCloth@cloth@nv@@@IterationStateFactory@cloth@nv@@QEAA@AEAVCuCloth@12@M@Z 0000000180011d20 f i CuSolver.obj
 0001:00011080       ??$create@T__m128@@VCuCloth@cloth@nv@@@IterationStateFactory@cloth@nv@@QEBA?AU?$IterationState@T__m128@@@12@AEBVCuCloth@12@@Z 0000000180012080 f i CuSolver.obj
 0001:00011cd0       ??$getDevicePointer@UCuIterationData@cloth@nv@@$01@cloth@nv@@YAPEAUCuIterationData@01@AEAV?$CuHostVectorImpl@UCuIterationData@cloth@nv@@$01@01@@Z 0000000180012cd0 f i CuSolver.obj
 0001:00011ce0       ??$PX_UNUSED@PEAUCUstream_st@@@@YAXAEBQEAUCUstream_st@@@Z 0000000180012ce0 f i CuSolver.obj
 0001:00011cf0       ??$PX_UNUSED@W4cudaError_enum@@@@YAXAEBW4cudaError_enum@@@Z 0000000180012cf0 f i CuSolver.obj
 0001:00011d00       ??$PX_UNUSED@PEAX@@YAXAEBQEAX@Z 0000000180012d00 f i CuSolver.obj
 0001:00011d10       ??$swap@VPxVec3@physx@@$01@ps@cloth@nv@@YAXAEAV?$CuHostVectorImpl@VPxVec3@physx@@$01@12@0@Z 0000000180012d10 f i CuSolver.obj
 0001:00011d50       ?size@?$Range@PEAVCloth@cloth@nv@@@cloth@nv@@QEBAIXZ 0000000180012d50 f i CuSolver.obj
 0001:00011d60       ?begin@?$Range@PEAVCloth@cloth@nv@@@cloth@nv@@QEBAPEAPEAVCloth@23@XZ 0000000180012d60 f i CuSolver.obj
 0001:00011d70       ?update@?$IterationState@T__m128@@@cloth@nv@@QEAAXXZ 0000000180012d70 f i CuSolver.obj
 0001:00011e80       ?resize@?$Array@UCuClothData@cloth@nv@@V?$CuHostAllocator@UCuClothData@cloth@nv@@$03@23@@ps@cloth@nv@@QEAAXIAEBUCuClothData@34@@Z 0000000180012e80 f i CuSolver.obj
 0001:00011f70       ?resize@?$Array@UCuFrameData@cloth@nv@@V?$CuHostAllocator@UCuFrameData@cloth@nv@@$01@23@@ps@cloth@nv@@QEAAXIAEBUCuFrameData@34@@Z 0000000180012f70 f i CuSolver.obj
 0001:00012070       ?resize@?$Array@UCuIterationData@cloth@nv@@V?$CuHostAllocator@UCuIterationData@cloth@nv@@$01@23@@ps@cloth@nv@@QEAAXIAEBUCuIterationData@34@@Z 0000000180013070 f i CuSolver.obj
 0001:000120e0       ?resize@?$Array@USwInterCollisionData@cloth@nv@@VNonTrackingAllocator@ps@23@@ps@cloth@nv@@QEAAXIAEBUSwInterCollisionData@34@@Z 00000001800130e0 f i CuSolver.obj
 0001:00012110       ?pushBack@?$Array@USwInterCollisionData@cloth@nv@@VNonTrackingAllocator@ps@23@@ps@cloth@nv@@QEAAAEAUSwInterCollisionData@34@AEBU534@@Z 0000000180013110 f i CuSolver.obj
 0001:000121f0       ?size@?$Array@USwInterCollisionData@cloth@nv@@VNonTrackingAllocator@ps@23@@ps@cloth@nv@@QEBAIXZ 00000001800131f0 f i CuSolver.obj
 0001:00012200       ?begin@?$Array@USwInterCollisionData@cloth@nv@@VNonTrackingAllocator@ps@23@@ps@cloth@nv@@QEAAPEAUSwInterCollisionData@34@XZ 0000000180013200 f i CuSolver.obj
 0001:00012210       ??A?$Array@USwInterCollisionData@cloth@nv@@VNonTrackingAllocator@ps@23@@ps@cloth@nv@@QEAAAEAUSwInterCollisionData@23@I@Z 0000000180013210 f i CuSolver.obj
 0001:00012220       ??1?$Array@USwInterCollisionData@cloth@nv@@VNonTrackingAllocator@ps@23@@ps@cloth@nv@@QEAA@XZ 0000000180013220 f i CuSolver.obj
 0001:00012250       ??0?$Array@USwInterCollisionData@cloth@nv@@VNonTrackingAllocator@ps@23@@ps@cloth@nv@@QEAA@AEBVNonTrackingAllocator@123@@Z 0000000180013250 f i CuSolver.obj
 0001:00012260       ?pushBack@?$Array@UCuIterationData@cloth@nv@@V?$CuHostAllocator@UCuIterationData@cloth@nv@@$01@23@@ps@cloth@nv@@QEAAAEAUCuIterationData@34@AEBU534@@Z 0000000180013260 f i CuSolver.obj
 0001:000122e0       ?empty@?$Array@UCuIterationData@cloth@nv@@V?$CuHostAllocator@UCuIterationData@cloth@nv@@$01@23@@ps@cloth@nv@@QEBA_NXZ 00000001800132e0 f i CuSolver.obj
 0001:000122f0       ?size@?$Array@UCuIterationData@cloth@nv@@V?$CuHostAllocator@UCuIterationData@cloth@nv@@$01@23@@ps@cloth@nv@@QEBAIXZ 00000001800132f0 f i CuSolver.obj
 0001:00012300       ?front@?$Array@UCuIterationData@cloth@nv@@V?$CuHostAllocator@UCuIterationData@cloth@nv@@$01@23@@ps@cloth@nv@@QEAAAEAUCuIterationData@34@XZ 0000000180013300 f i CuSolver.obj
 0001:00012310       ??1?$Array@UCuIterationData@cloth@nv@@V?$CuHostAllocator@UCuIterationData@cloth@nv@@$01@23@@ps@cloth@nv@@QEAA@XZ 0000000180013310 f i CuSolver.obj
 0001:00012350       ??0?$CuHostAllocator@UCuIterationData@cloth@nv@@$01@cloth@nv@@QEAA@PEAUCUctx_st@@@Z 0000000180013350 f i CuSolver.obj
 0001:00012360       ??0?$CuHostVectorImpl@UCuIterationData@cloth@nv@@$01@cloth@nv@@QEAA@AEBV?$CuHostAllocator@UCuIterationData@cloth@nv@@$01@12@@Z 0000000180013360 f i CuSolver.obj
 0001:00012380       ?pushBack@?$Array@UCuFrameData@cloth@nv@@V?$CuHostAllocator@UCuFrameData@cloth@nv@@$01@23@@ps@cloth@nv@@QEAAAEAUCuFrameData@34@AEBU534@@Z 0000000180013380 f i CuSolver.obj
 0001:00012460       ?end@?$Array@UCuFrameData@cloth@nv@@V?$CuHostAllocator@UCuFrameData@cloth@nv@@$01@23@@ps@cloth@nv@@QEAAPEAUCuFrameData@34@XZ 0000000180013460 f i CuSolver.obj
 0001:00012470       ?begin@?$Array@UCuFrameData@cloth@nv@@V?$CuHostAllocator@UCuFrameData@cloth@nv@@$01@23@@ps@cloth@nv@@QEAAPEAUCuFrameData@34@XZ 0000000180013470 f i CuSolver.obj
 0001:00012480       ??A?$Array@UCuFrameData@cloth@nv@@V?$CuHostAllocator@UCuFrameData@cloth@nv@@$01@23@@ps@cloth@nv@@QEAAAEAUCuFrameData@23@I@Z 0000000180013480 f i CuSolver.obj
 0001:00012490       ??1?$Array@UCuFrameData@cloth@nv@@V?$CuHostAllocator@UCuFrameData@cloth@nv@@$01@23@@ps@cloth@nv@@QEAA@XZ 0000000180013490 f i CuSolver.obj
 0001:000124d0       ??0?$CuHostAllocator@UCuFrameData@cloth@nv@@$01@cloth@nv@@QEAA@PEAUCUctx_st@@@Z 00000001800134d0 f i CuSolver.obj
 0001:000124e0       ??0?$CuHostVectorImpl@UCuFrameData@cloth@nv@@$01@cloth@nv@@QEAA@AEBV?$CuHostAllocator@UCuFrameData@cloth@nv@@$01@12@@Z 00000001800134e0 f i CuSolver.obj
 0001:00012500       ?remove@?$Array@UCuClothData@cloth@nv@@V?$CuHostAllocator@UCuClothData@cloth@nv@@$03@23@@ps@cloth@nv@@QEAAXI@Z 0000000180013500 f i CuSolver.obj
 0001:000125f0       ?begin@?$Array@UCuClothData@cloth@nv@@V?$CuHostAllocator@UCuClothData@cloth@nv@@$03@23@@ps@cloth@nv@@QEAAPEAUCuClothData@34@XZ 00000001800135f0 f i CuSolver.obj
 0001:00012600       ??1?$Array@UCuClothData@cloth@nv@@V?$CuHostAllocator@UCuClothData@cloth@nv@@$03@23@@ps@cloth@nv@@QEAA@XZ 0000000180013600 f i CuSolver.obj
 0001:00012640       ??0?$CuHostAllocator@UCuClothData@cloth@nv@@$03@cloth@nv@@QEAA@PEAUCUctx_st@@@Z 0000000180013640 f i CuSolver.obj
 0001:00012650       ??0?$CuHostVectorImpl@UCuClothData@cloth@nv@@$03@cloth@nv@@QEAA@AEBV?$CuHostAllocator@UCuClothData@cloth@nv@@$03@12@@Z 0000000180013650 f i CuSolver.obj
 0001:00012670       ?dev@?$CuDevicePointer@UCuClothData@cloth@nv@@@cloth@nv@@QEBA_KXZ 0000000180013670 f i CuSolver.obj
 0001:00012680       ?get@?$CuDevicePointer@UCuClothData@cloth@nv@@@cloth@nv@@QEBAPEAUCuClothData@23@XZ 0000000180013680 f i CuSolver.obj
 0001:00012690       ?resize@?$CuDeviceVector@UCuClothData@cloth@nv@@@cloth@nv@@QEAAX_K@Z 0000000180013690 f i CuSolver.obj
 0001:000127a0       ?begin@?$CuDeviceVector@UCuClothData@cloth@nv@@@cloth@nv@@QEAA?AV?$CuDevicePointer@UCuClothData@cloth@nv@@@23@XZ 00000001800137a0 f i CuSolver.obj
 0001:000127b0       ?size@?$CuDeviceVector@UCuClothData@cloth@nv@@@cloth@nv@@QEBA_KXZ 00000001800137b0 f i CuSolver.obj
 0001:000127d0       ??1?$CuDeviceVector@UCuClothData@cloth@nv@@@cloth@nv@@QEAA@XZ 00000001800137d0 f i CuSolver.obj
 0001:00012800       ??0?$CuDeviceVector@UCuClothData@cloth@nv@@@cloth@nv@@QEAA@PEAUCUctx_st@@@Z 0000000180013800 f i CuSolver.obj
 0001:00012820       ?remove@?$Array@PEAVCuCloth@cloth@nv@@VNonTrackingAllocator@ps@23@@ps@cloth@nv@@QEAAXI@Z 0000000180013820 f i CuSolver.obj
 0001:00012870       ?pushBack@?$Array@PEAVCuCloth@cloth@nv@@VNonTrackingAllocator@ps@23@@ps@cloth@nv@@QEAAAEAPEAVCuCloth@34@AEBQEAV534@@Z 0000000180013870 f i CuSolver.obj
 0001:000128b0       ?find@?$Array@PEAVCuCloth@cloth@nv@@VNonTrackingAllocator@ps@23@@ps@cloth@nv@@QEAAPEAPEAVCuCloth@34@AEBQEAV534@@Z 00000001800138b0 f i CuSolver.obj
 0001:000128e0       ?empty@?$Array@PEAVCuCloth@cloth@nv@@VNonTrackingAllocator@ps@23@@ps@cloth@nv@@QEBA_NXZ 00000001800138e0 f i CuSolver.obj
 0001:000128f0       ?size@?$Array@PEAVCuCloth@cloth@nv@@VNonTrackingAllocator@ps@23@@ps@cloth@nv@@QEBAIXZ 00000001800138f0 f i CuSolver.obj
 0001:00012900       ?end@?$Array@PEAVCuCloth@cloth@nv@@VNonTrackingAllocator@ps@23@@ps@cloth@nv@@QEAAPEAPEAVCuCloth@34@XZ 0000000180013900 f i CuSolver.obj
 0001:00012910       ?begin@?$Array@PEAVCuCloth@cloth@nv@@VNonTrackingAllocator@ps@23@@ps@cloth@nv@@QEAAPEAPEAVCuCloth@34@XZ 0000000180013910 f i CuSolver.obj
 0001:00012920       ??A?$Array@PEAVCuCloth@cloth@nv@@VNonTrackingAllocator@ps@23@@ps@cloth@nv@@QEAAAEAPEAVCuCloth@23@I@Z 0000000180013920 f i CuSolver.obj
 0001:00012930       ??A?$Array@PEAVCuCloth@cloth@nv@@VNonTrackingAllocator@ps@23@@ps@cloth@nv@@QEBAAEBQEAVCuCloth@23@I@Z 0000000180013930 f i CuSolver.obj
 0001:00012940       ??1?$Array@PEAVCuCloth@cloth@nv@@VNonTrackingAllocator@ps@23@@ps@cloth@nv@@QEAA@XZ 0000000180013940 f i CuSolver.obj
 0001:00012970       ??0?$Array@PEAVCuCloth@cloth@nv@@VNonTrackingAllocator@ps@23@@ps@cloth@nv@@QEAA@AEBVNonTrackingAllocator@123@@Z 0000000180013970 f i CuSolver.obj
 0001:00012980       ??1?$StackAllocator@$0BA@@cloth@nv@@QEAA@XZ 0000000180013980 f i CuSolver.obj
 0001:00012990       ??0?$StackAllocator@$0BA@@cloth@nv@@QEAA@PEAX_K@Z 0000000180013990 f i CuSolver.obj
 0001:000129b0       ??0SwInterCollisionData@cloth@nv@@QEAA@AEBU012@@Z 00000001800139b0 f i CuSolver.obj
 0001:00012a30       ??$sqr@M@cloth@nv@@YAMAEBM@Z 0000000180013a30 f i CuSolver.obj
 0001:00012a40       ??$assign@T__m128@@$02@cloth@nv@@YAXAEAY02T__m128@@AEBVPxMat44@physx@@@Z 0000000180013a40 f i CuSolver.obj
 0001:00012a60       ??$transform@T__m128@@@cloth@nv@@YA?AT__m128@@AEAY02$$CBT2@AEBT2@@Z 0000000180013a60 f i CuSolver.obj
 0001:00012a90       ??$castToPxVec3@T__m128@@@IterationStateFactory@cloth@nv@@SA?AVPxVec3@physx@@AEBT__m128@@@Z 0000000180013a90 f i CuSolver.obj
 0001:00012ab0       ??$lengthSqr@T__m128@@@IterationStateFactory@cloth@nv@@SA?AT__m128@@AEBT3@@Z 0000000180013ab0 f i CuSolver.obj
 0001:00012ad0       ?growAndPushBack@?$Array@PEAVCuCloth@cloth@nv@@VNonTrackingAllocator@ps@23@@ps@cloth@nv@@IEAAAEAPEAVCuCloth@34@AEBQEAV534@@Z 0000000180013ad0 f i CuSolver.obj
 0001:00012bc0       ?growAndPushBack@?$Array@UCuFrameData@cloth@nv@@V?$CuHostAllocator@UCuFrameData@cloth@nv@@$01@23@@ps@cloth@nv@@IEAAAEAUCuFrameData@34@AEBU534@@Z 0000000180013bc0 f i CuSolver.obj
 0001:00012d00       ?growAndPushBack@?$Array@UCuIterationData@cloth@nv@@V?$CuHostAllocator@UCuIterationData@cloth@nv@@$01@23@@ps@cloth@nv@@IEAAAEAUCuIterationData@34@AEBU534@@Z 0000000180013d00 f i CuSolver.obj
 0001:00012e30       ?growAndPushBack@?$Array@USwInterCollisionData@cloth@nv@@VNonTrackingAllocator@ps@23@@ps@cloth@nv@@IEAAAEAUSwInterCollisionData@34@AEBU534@@Z 0000000180013e30 f i CuSolver.obj
 0001:00012fb0       ?swap@?$CuHostVectorImpl@VPxVec3@physx@@$01@cloth@nv@@QEAAXAEAV123@@Z 0000000180013fb0 f i CuSolver.obj
 0001:00012ff0       ?destroy@?$Array@USwInterCollisionData@cloth@nv@@VNonTrackingAllocator@ps@23@@ps@cloth@nv@@KAXPEAUSwInterCollisionData@34@0@Z 0000000180013ff0 f i CuSolver.obj
 0001:00013000       ?create@?$Array@USwInterCollisionData@cloth@nv@@VNonTrackingAllocator@ps@23@@ps@cloth@nv@@KAXPEAUSwInterCollisionData@34@0AEBU534@@Z 0000000180014000 f i CuSolver.obj
 0001:000133b0       ?deallocate@?$Array@USwInterCollisionData@cloth@nv@@VNonTrackingAllocator@ps@23@@ps@cloth@nv@@IEAAXPEAX@Z 00000001800143b0 f i CuSolver.obj
 0001:000133d0       ?isInUserMemory@?$Array@USwInterCollisionData@cloth@nv@@VNonTrackingAllocator@ps@23@@ps@cloth@nv@@QEBAIXZ 00000001800143d0 f i CuSolver.obj
 0001:000133e0       ?capacity@?$Array@USwInterCollisionData@cloth@nv@@VNonTrackingAllocator@ps@23@@ps@cloth@nv@@QEBAIXZ 00000001800143e0 f i CuSolver.obj
 0001:000133f0       ?reserve@?$Array@USwInterCollisionData@cloth@nv@@VNonTrackingAllocator@ps@23@@ps@cloth@nv@@QEAAXI@Z 00000001800143f0 f i CuSolver.obj
 0001:00013400       ?destroy@?$Array@UCuIterationData@cloth@nv@@V?$CuHostAllocator@UCuIterationData@cloth@nv@@$01@23@@ps@cloth@nv@@KAXPEAUCuIterationData@34@0@Z 0000000180014400 f i CuSolver.obj
 0001:00013410       ?create@?$Array@UCuIterationData@cloth@nv@@V?$CuHostAllocator@UCuIterationData@cloth@nv@@$01@23@@ps@cloth@nv@@KAXPEAUCuIterationData@34@0AEBU534@@Z 0000000180014410 f i CuSolver.obj
 0001:00013470       ?deallocate@?$Array@UCuIterationData@cloth@nv@@V?$CuHostAllocator@UCuIterationData@cloth@nv@@$01@23@@ps@cloth@nv@@IEAAXPEAX@Z 0000000180014470 f i CuSolver.obj
 0001:000134a0       ?getAllocator@?$Array@UCuIterationData@cloth@nv@@V?$CuHostAllocator@UCuIterationData@cloth@nv@@$01@23@@ps@cloth@nv@@QEAAAEAV?$CuHostAllocator@UCuIterationData@cloth@nv@@$01@34@XZ 00000001800144a0 f i CuSolver.obj
 0001:000134b0       ?isInUserMemory@?$Array@UCuIterationData@cloth@nv@@V?$CuHostAllocator@UCuIterationData@cloth@nv@@$01@23@@ps@cloth@nv@@QEBAIXZ 00000001800144b0 f i CuSolver.obj
 0001:000134c0       ?capacity@?$Array@UCuIterationData@cloth@nv@@V?$CuHostAllocator@UCuIterationData@cloth@nv@@$01@23@@ps@cloth@nv@@QEBAIXZ 00000001800144c0 f i CuSolver.obj
 0001:000134d0       ?reserve@?$Array@UCuIterationData@cloth@nv@@V?$CuHostAllocator@UCuIterationData@cloth@nv@@$01@23@@ps@cloth@nv@@QEAAXI@Z 00000001800144d0 f i CuSolver.obj
 0001:000134e0       ??0?$Array@UCuIterationData@cloth@nv@@V?$CuHostAllocator@UCuIterationData@cloth@nv@@$01@23@@ps@cloth@nv@@QEAA@AEBV?$CuHostAllocator@UCuIterationData@cloth@nv@@$01@23@@Z 00000001800144e0 f i CuSolver.obj
 0001:00013500       ?destroy@?$Array@UCuFrameData@cloth@nv@@V?$CuHostAllocator@UCuFrameData@cloth@nv@@$01@23@@ps@cloth@nv@@KAXPEAUCuFrameData@34@0@Z 0000000180014500 f i CuSolver.obj
 0001:00013510       ?create@?$Array@UCuFrameData@cloth@nv@@V?$CuHostAllocator@UCuFrameData@cloth@nv@@$01@23@@ps@cloth@nv@@KAXPEAUCuFrameData@34@0AEBU534@@Z 0000000180014510 f i CuSolver.obj
 0001:000135d0       ?deallocate@?$Array@UCuFrameData@cloth@nv@@V?$CuHostAllocator@UCuFrameData@cloth@nv@@$01@23@@ps@cloth@nv@@IEAAXPEAX@Z 00000001800145d0 f i CuSolver.obj
 0001:00013600       ?getAllocator@?$Array@UCuFrameData@cloth@nv@@V?$CuHostAllocator@UCuFrameData@cloth@nv@@$01@23@@ps@cloth@nv@@QEAAAEAV?$CuHostAllocator@UCuFrameData@cloth@nv@@$01@34@XZ 0000000180014600 f i CuSolver.obj
 0001:00013610       ?isInUserMemory@?$Array@UCuFrameData@cloth@nv@@V?$CuHostAllocator@UCuFrameData@cloth@nv@@$01@23@@ps@cloth@nv@@QEBAIXZ 0000000180014610 f i CuSolver.obj
 0001:00013620       ?capacity@?$Array@UCuFrameData@cloth@nv@@V?$CuHostAllocator@UCuFrameData@cloth@nv@@$01@23@@ps@cloth@nv@@QEBAIXZ 0000000180014620 f i CuSolver.obj
 0001:00013630       ?reserve@?$Array@UCuFrameData@cloth@nv@@V?$CuHostAllocator@UCuFrameData@cloth@nv@@$01@23@@ps@cloth@nv@@QEAAXI@Z 0000000180014630 f i CuSolver.obj
 0001:00013640       ?empty@?$Array@UCuFrameData@cloth@nv@@V?$CuHostAllocator@UCuFrameData@cloth@nv@@$01@23@@ps@cloth@nv@@QEBA_NXZ 0000000180014640 f i CuSolver.obj
 0001:00013650       ??0?$Array@UCuFrameData@cloth@nv@@V?$CuHostAllocator@UCuFrameData@cloth@nv@@$01@23@@ps@cloth@nv@@QEAA@AEBV?$CuHostAllocator@UCuFrameData@cloth@nv@@$01@23@@Z 0000000180014650 f i CuSolver.obj
 0001:00013670       ?destroy@?$Array@UCuClothData@cloth@nv@@V?$CuHostAllocator@UCuClothData@cloth@nv@@$03@23@@ps@cloth@nv@@KAXPEAUCuClothData@34@0@Z 0000000180014670 f i CuSolver.obj
 0001:00013680       ?create@?$Array@UCuClothData@cloth@nv@@V?$CuHostAllocator@UCuClothData@cloth@nv@@$03@23@@ps@cloth@nv@@KAXPEAUCuClothData@34@0AEBU534@@Z 0000000180014680 f i CuSolver.obj
 0001:00013730       ?deallocate@?$Array@UCuClothData@cloth@nv@@V?$CuHostAllocator@UCuClothData@cloth@nv@@$03@23@@ps@cloth@nv@@IEAAXPEAX@Z 0000000180014730 f i CuSolver.obj
 0001:00013760       ?isInUserMemory@?$Array@UCuClothData@cloth@nv@@V?$CuHostAllocator@UCuClothData@cloth@nv@@$03@23@@ps@cloth@nv@@QEBAIXZ 0000000180014760 f i CuSolver.obj
 0001:00013770       ?capacity@?$Array@UCuClothData@cloth@nv@@V?$CuHostAllocator@UCuClothData@cloth@nv@@$03@23@@ps@cloth@nv@@QEBAIXZ 0000000180014770 f i CuSolver.obj
 0001:00013780       ?reserve@?$Array@UCuClothData@cloth@nv@@V?$CuHostAllocator@UCuClothData@cloth@nv@@$03@23@@ps@cloth@nv@@QEAAXI@Z 0000000180014780 f i CuSolver.obj
 0001:00013790       ??0?$Array@UCuClothData@cloth@nv@@V?$CuHostAllocator@UCuClothData@cloth@nv@@$03@23@@ps@cloth@nv@@QEAA@AEBV?$CuHostAllocator@UCuClothData@cloth@nv@@$03@23@@Z 0000000180014790 f i CuSolver.obj
 0001:000137b0       ??G?$CuDevicePointer@UCuClothData@cloth@nv@@@cloth@nv@@QEBA_JAEBV012@@Z 00000001800147b0 f i CuSolver.obj
 0001:000137d0       ??H?$CuDevicePointer@UCuClothData@cloth@nv@@@cloth@nv@@QEBA?AV012@AEB_J@Z 00000001800147d0 f i CuSolver.obj
 0001:000137f0       ??0?$CuDevicePointer@UCuClothData@cloth@nv@@@cloth@nv@@QEAA@AEBV012@@Z 00000001800147f0 f i CuSolver.obj
 0001:00013800       ??0?$CuDevicePointer@UCuClothData@cloth@nv@@@cloth@nv@@QEAA@XZ 0000000180014800 f i CuSolver.obj
 0001:00013810       ?reserve@?$CuDeviceVector@UCuClothData@cloth@nv@@@cloth@nv@@QEAAX_K@Z 0000000180014810 f i CuSolver.obj
 0001:00013920       ?capacity@?$CuDeviceVector@UCuClothData@cloth@nv@@@cloth@nv@@QEBA_KXZ 0000000180014920 f i CuSolver.obj
 0001:00013940       ?destroy@?$Array@PEAVCuCloth@cloth@nv@@VNonTrackingAllocator@ps@23@@ps@cloth@nv@@KAXPEAPEAVCuCloth@34@0@Z 0000000180014940 f i CuSolver.obj
 0001:00013950       ?deallocate@?$Array@PEAVCuCloth@cloth@nv@@VNonTrackingAllocator@ps@23@@ps@cloth@nv@@IEAAXPEAX@Z 0000000180014950 f i CuSolver.obj
 0001:00013970       ?isInUserMemory@?$Array@PEAVCuCloth@cloth@nv@@VNonTrackingAllocator@ps@23@@ps@cloth@nv@@QEBAIXZ 0000000180014970 f i CuSolver.obj
 0001:00013980       ?capacity@?$Array@PEAVCuCloth@cloth@nv@@VNonTrackingAllocator@ps@23@@ps@cloth@nv@@QEBAIXZ 0000000180014980 f i CuSolver.obj
 0001:00013990       ??$?0UCuClothData@cloth@nv@@@?$CuDevicePointer@UCuClothData@cloth@nv@@@cloth@nv@@QEAA@PEAUCuClothData@12@@Z 0000000180014990 f i CuSolver.obj
 0001:000139a0       ?swap@?$Array@VPxVec3@physx@@V?$CuHostAllocator@VPxVec3@physx@@$01@cloth@nv@@@ps@cloth@nv@@QEAAXAEAV1234@@Z 00000001800149a0 f i CuSolver.obj
 0001:000139d0       ?capacityIncrement@?$Array@USwInterCollisionData@cloth@nv@@VNonTrackingAllocator@ps@23@@ps@cloth@nv@@IEBAIXZ 00000001800149d0 f i CuSolver.obj
 0001:000139f0       ?grow@?$Array@USwInterCollisionData@cloth@nv@@VNonTrackingAllocator@ps@23@@ps@cloth@nv@@IEAAXI@Z 00000001800149f0 f i CuSolver.obj
 0001:00013a00       ?copy@?$Array@USwInterCollisionData@cloth@nv@@VNonTrackingAllocator@ps@23@@ps@cloth@nv@@KAXPEAUSwInterCollisionData@34@0PEBU534@@Z 0000000180014a00 f i CuSolver.obj
 0001:00013e90       ?allocate@?$Array@USwInterCollisionData@cloth@nv@@VNonTrackingAllocator@ps@23@@ps@cloth@nv@@IEAAPEAUSwInterCollisionData@34@I@Z 0000000180014e90 f i CuSolver.obj
 0001:00013ee0       ?capacityIncrement@?$Array@UCuIterationData@cloth@nv@@V?$CuHostAllocator@UCuIterationData@cloth@nv@@$01@23@@ps@cloth@nv@@IEBAIXZ 0000000180014ee0 f i CuSolver.obj
 0001:00013f00       ?grow@?$Array@UCuIterationData@cloth@nv@@V?$CuHostAllocator@UCuIterationData@cloth@nv@@$01@23@@ps@cloth@nv@@IEAAXI@Z 0000000180014f00 f i CuSolver.obj
 0001:00013f10       ?copy@?$Array@UCuIterationData@cloth@nv@@V?$CuHostAllocator@UCuIterationData@cloth@nv@@$01@23@@ps@cloth@nv@@KAXPEAUCuIterationData@34@0PEBU534@@Z 0000000180014f10 f i CuSolver.obj
 0001:00013f70       ?allocate@?$Array@UCuIterationData@cloth@nv@@V?$CuHostAllocator@UCuIterationData@cloth@nv@@$01@23@@ps@cloth@nv@@IEAAPEAUCuIterationData@34@I@Z 0000000180014f70 f i CuSolver.obj
 0001:00013ff0       ?deallocate@?$CuHostAllocator@UCuIterationData@cloth@nv@@$01@cloth@nv@@QEAAXPEAX@Z 0000000180014ff0 f i CuSolver.obj
 0001:00014020       ?capacityIncrement@?$Array@UCuFrameData@cloth@nv@@V?$CuHostAllocator@UCuFrameData@cloth@nv@@$01@23@@ps@cloth@nv@@IEBAIXZ 0000000180015020 f i CuSolver.obj
 0001:00014040       ?grow@?$Array@UCuFrameData@cloth@nv@@V?$CuHostAllocator@UCuFrameData@cloth@nv@@$01@23@@ps@cloth@nv@@IEAAXI@Z 0000000180015040 f i CuSolver.obj
 0001:00014050       ?copy@?$Array@UCuFrameData@cloth@nv@@V?$CuHostAllocator@UCuFrameData@cloth@nv@@$01@23@@ps@cloth@nv@@KAXPEAUCuFrameData@34@0PEBU534@@Z 0000000180015050 f i CuSolver.obj
 0001:00014130       ?allocate@?$Array@UCuFrameData@cloth@nv@@V?$CuHostAllocator@UCuFrameData@cloth@nv@@$01@23@@ps@cloth@nv@@IEAAPEAUCuFrameData@34@I@Z 0000000180015130 f i CuSolver.obj
 0001:000141b0       ?deallocate@?$CuHostAllocator@UCuFrameData@cloth@nv@@$01@cloth@nv@@QEAAXPEAX@Z 00000001800151b0 f i CuSolver.obj
 0001:000141e0       ?grow@?$Array@UCuClothData@cloth@nv@@V?$CuHostAllocator@UCuClothData@cloth@nv@@$03@23@@ps@cloth@nv@@IEAAXI@Z 00000001800151e0 f i CuSolver.obj
 0001:000141f0       ?deallocate@?$CuHostAllocator@UCuClothData@cloth@nv@@$03@cloth@nv@@QEAAXPEAX@Z 00000001800151f0 f i CuSolver.obj
 0001:00014220       ?capacityIncrement@?$Array@PEAVCuCloth@cloth@nv@@VNonTrackingAllocator@ps@23@@ps@cloth@nv@@IEBAIXZ 0000000180015220 f i CuSolver.obj
 0001:00014240       ?copy@?$Array@PEAVCuCloth@cloth@nv@@VNonTrackingAllocator@ps@23@@ps@cloth@nv@@KAXPEAPEAVCuCloth@34@0PEBQEAV534@@Z 0000000180015240 f i CuSolver.obj
 0001:00014270       ?allocate@?$Array@PEAVCuCloth@cloth@nv@@VNonTrackingAllocator@ps@23@@ps@cloth@nv@@IEAAPEAPEAVCuCloth@34@I@Z 0000000180015270 f i CuSolver.obj
 0001:000142c0       ??$swap@PEAVPxVec3@physx@@@ps@cloth@nv@@YAXAEAPEAVPxVec3@physx@@0@Z 00000001800152c0 f i CuSolver.obj
 0001:000142d0       ?recreate@?$Array@UCuClothData@cloth@nv@@V?$CuHostAllocator@UCuClothData@cloth@nv@@$03@23@@ps@cloth@nv@@IEAAXI@Z 00000001800152d0 f i CuSolver.obj
 0001:00014430       ?recreate@?$Array@UCuFrameData@cloth@nv@@V?$CuHostAllocator@UCuFrameData@cloth@nv@@$01@23@@ps@cloth@nv@@IEAAXI@Z 0000000180015430 f i CuSolver.obj
 0001:000144a0       ?recreate@?$Array@UCuIterationData@cloth@nv@@V?$CuHostAllocator@UCuIterationData@cloth@nv@@$01@23@@ps@cloth@nv@@IEAAXI@Z 00000001800154a0 f i CuSolver.obj
 0001:00014560       ?recreate@?$Array@USwInterCollisionData@cloth@nv@@VNonTrackingAllocator@ps@23@@ps@cloth@nv@@IEAAXI@Z 0000000180015560 f i CuSolver.obj
 0001:000145b0       ?allocate@?$CuHostAllocator@UCuIterationData@cloth@nv@@$01@cloth@nv@@QEAAPEAUCuIterationData@23@_KPEBDH@Z 00000001800155b0 f i CuSolver.obj
 0001:00014620       ?allocate@?$CuHostAllocator@UCuFrameData@cloth@nv@@$01@cloth@nv@@QEAAPEAUCuFrameData@23@_KPEBDH@Z 0000000180015620 f i CuSolver.obj
 0001:000146a0       ?copy@?$Array@UCuClothData@cloth@nv@@V?$CuHostAllocator@UCuClothData@cloth@nv@@$03@23@@ps@cloth@nv@@KAXPEAUCuClothData@34@0PEBU534@@Z 00000001800156a0 f i CuSolver.obj
 0001:00014760       ?allocate@?$Array@UCuClothData@cloth@nv@@V?$CuHostAllocator@UCuClothData@cloth@nv@@$03@23@@ps@cloth@nv@@IEAAPEAUCuClothData@34@I@Z 0000000180015760 f i CuSolver.obj
 0001:000147c0       ?allocate@?$CuHostAllocator@UCuClothData@cloth@nv@@$03@cloth@nv@@QEAAPEAUCuClothData@23@_KPEBDH@Z 00000001800157c0 f i CuSolver.obj
 0001:00014810       ??$solveConstraints@$0A@$00@avx@@YAXPEIAMPEIBM11PEIBGAEBT__m128@@3@Z 0000000180015810 f i SwSolveConstraints.obj
 0001:00014e20       ??$solveConstraints@$00$00@avx@@YAXPEIAMPEIBM11PEIBGAEBT__m128@@3@Z 0000000180015e20 f i SwSolveConstraints.obj
 0001:00015480       ??$solveConstraints@$0A@$01@avx@@YAXPEIAMPEIBM11PEIBGAEBT__m128@@3@Z 0000000180016480 f i SwSolveConstraints.obj
 0001:00015a50       ??$solveConstraints@$00$01@avx@@YAXPEIAMPEIBM11PEIBGAEBT__m128@@3@Z 0000000180016a50 f i SwSolveConstraints.obj
 0001:00016070       ??$fmadd_ps@$00@avx@@YA?AT__m256@@T1@00@Z 0000000180017070 f i SwSolveConstraints.obj
 0001:00016080       ??$exp2@$00@avx@@YA?AT__m256@@AEBT1@@Z 0000000180017080 f i SwSolveConstraints.obj
 0001:00016150       ??$fnmadd_ps@$00@avx@@YA?AT__m256@@T1@00@Z 0000000180017150 f i SwSolveConstraints.obj
 0001:00016170       __local_stdio_printf_options 0000000180017170 f i Callbacks.obj
 0001:00016180       _vsnprintf_s_l             0000000180017180 f i Callbacks.obj
 0001:000161e0       _vsnprintf_s               00000001800171e0 f i Callbacks.obj
 0001:00016240       ??$PX_UNUSED@PEAVDxContextManagerCallback@cloth@nv@@@@YAXAEBQEAVDxContextManagerCallback@cloth@nv@@@Z 0000000180017240 f i Factory.obj
 0001:00016250       ??0PhaseConfig@cloth@nv@@QEAA@G@Z 0000000180017250 f i PhaseConfig.obj
 0001:00016280       ?pop@SwConstraints@cloth@nv@@QEAAXXZ 0000000180017280 f i SwCloth.obj
 0001:000162d0       ?notifyChanged@SwCloth@cloth@nv@@QEAAXXZ 00000001800172d0 f i SwCloth.obj
 0001:000162e0       ??_ESwCloth@cloth@nv@@UEAAPEAXI@Z 00000001800172e0 f i * CIL library *:* CIL module *
 0001:000162e0       ??_GSwCloth@cloth@nv@@UEAAPEAXI@Z 00000001800172e0 f i SwCloth.obj
 0001:00016340       ??1?$ClothImpl@VSwCloth@cloth@nv@@@cloth@nv@@UEAA@XZ 0000000180017340 f i SwCloth.obj
 0001:00016370       ??0SwConstraints@cloth@nv@@QEAA@XZ 0000000180017370 f i SwCloth.obj
 0001:00016390       ??1SwConstraints@cloth@nv@@QEAA@XZ 0000000180017390 f i SwCloth.obj
 0001:000163f0       ??$initialize@VSwCloth@cloth@nv@@@cloth@nv@@YAXAEAVSwCloth@01@PEBVPxVec4@physx@@1@Z 00000001800173f0 f i SwCloth.obj
 0001:000166f0       ??$copy@VSwCloth@cloth@nv@@V123@@cloth@nv@@YAXAEAVSwCloth@01@AEBV201@@Z 00000001800176f0 f i SwCloth.obj
 0001:000169d0       ??$getMappedParticles@VPxVec4@physx@@@?$ClothImpl@VSwCloth@cloth@nv@@@cloth@nv@@QEBA?AU?$MappedRange@VPxVec4@physx@@@12@PEAVPxVec4@physx@@@Z 00000001800179d0 f i SwCloth.obj
 0001:00016a50       ??$getMappedParticles@$$CBVPxVec4@physx@@@?$ClothImpl@VSwCloth@cloth@nv@@@cloth@nv@@QEBA?AU?$MappedRange@$$CBVPxVec4@physx@@@12@PEBVPxVec4@physx@@@Z 0000000180017a50 f i SwCloth.obj
 0001:00016ad0       ?resizeUninitialized@?$Array@VPxVec4@physx@@VNonTrackingAllocator@ps@cloth@nv@@@ps@cloth@nv@@QEAAXI@Z 0000000180017ad0 f i SwCloth.obj
 0001:00016b10       ?getFabric@?$ClothImpl@VSwCloth@cloth@nv@@@cloth@nv@@UEBAAEAVFabric@23@XZ 0000000180017b10 f i SwCloth.obj
 0001:00016b20       ?getFactory@?$ClothImpl@VSwCloth@cloth@nv@@@cloth@nv@@UEBAAEAVFactory@23@XZ 0000000180017b20 f i SwCloth.obj
 0001:00016b30       ?setTranslation@?$ClothImpl@VSwCloth@cloth@nv@@@cloth@nv@@UEAAXAEBVPxVec3@physx@@@Z 0000000180017b30 f i SwCloth.obj
 0001:00016b80       ?setRotation@?$ClothImpl@VSwCloth@cloth@nv@@@cloth@nv@@UEAAXAEBVPxQuat@physx@@@Z 0000000180017b80 f i SwCloth.obj
 0001:00016c10       ?getTranslation@?$ClothImpl@VSwCloth@cloth@nv@@@cloth@nv@@UEBAAEBVPxVec3@physx@@XZ 0000000180017c10 f i SwCloth.obj
 0001:00016c20       ?getRotation@?$ClothImpl@VSwCloth@cloth@nv@@@cloth@nv@@UEBAAEBVPxQuat@physx@@XZ 0000000180017c20 f i SwCloth.obj
 0001:00016c30       ?clearInertia@?$ClothImpl@VSwCloth@cloth@nv@@@cloth@nv@@UEAAXXZ 0000000180017c30 f i SwCloth.obj
 0001:00016cb0       ?teleport@?$ClothImpl@VSwCloth@cloth@nv@@@cloth@nv@@UEAAXAEBVPxVec3@physx@@@Z 0000000180017cb0 f i SwCloth.obj
 0001:00016d30       ?teleportToLocation@?$ClothImpl@VSwCloth@cloth@nv@@@cloth@nv@@UEAAXAEBVPxVec3@physx@@AEBVPxQuat@5@@Z 0000000180017d30 f i SwCloth.obj
 0001:00016db0       ?ignoreVelocityDiscontinuity@?$ClothImpl@VSwCloth@cloth@nv@@@cloth@nv@@UEAAXXZ 0000000180017db0 f i SwCloth.obj
 0001:00016dc0       ?getPreviousIterationDt@?$ClothImpl@VSwCloth@cloth@nv@@@cloth@nv@@UEBAMXZ 0000000180017dc0 f i SwCloth.obj
 0001:00016dd0       ?setGravity@?$ClothImpl@VSwCloth@cloth@nv@@@cloth@nv@@UEAAXAEBVPxVec3@physx@@@Z 0000000180017dd0 f i SwCloth.obj
 0001:00016e10       ?getGravity@?$ClothImpl@VSwCloth@cloth@nv@@@cloth@nv@@UEBA?AVPxVec3@physx@@XZ 0000000180017e10 f i SwCloth.obj
 0001:00016e30       ?setDamping@?$ClothImpl@VSwCloth@cloth@nv@@@cloth@nv@@UEAAXAEBVPxVec3@physx@@@Z 0000000180017e30 f i SwCloth.obj
 0001:00016f30       ?getDamping@?$ClothImpl@VSwCloth@cloth@nv@@@cloth@nv@@UEBA?AVPxVec3@physx@@XZ 0000000180017f30 f i SwCloth.obj
 0001:00016f80       ?setLinearDrag@?$ClothImpl@VSwCloth@cloth@nv@@@cloth@nv@@UEAAXAEBVPxVec3@physx@@@Z 0000000180017f80 f i SwCloth.obj
 0001:00017080       ?getLinearDrag@?$ClothImpl@VSwCloth@cloth@nv@@@cloth@nv@@UEBA?AVPxVec3@physx@@XZ 0000000180018080 f i SwCloth.obj
 0001:000170d0       ?setAngularDrag@?$ClothImpl@VSwCloth@cloth@nv@@@cloth@nv@@UEAAXAEBVPxVec3@physx@@@Z 00000001800180d0 f i SwCloth.obj
 0001:000171d0       ?getAngularDrag@?$ClothImpl@VSwCloth@cloth@nv@@@cloth@nv@@UEBA?AVPxVec3@physx@@XZ 00000001800181d0 f i SwCloth.obj
 0001:00017220       ?setLinearInertia@?$ClothImpl@VSwCloth@cloth@nv@@@cloth@nv@@UEAAXAEBVPxVec3@physx@@@Z 0000000180018220 f i SwCloth.obj
 0001:00017260       ?getLinearInertia@?$ClothImpl@VSwCloth@cloth@nv@@@cloth@nv@@UEBA?AVPxVec3@physx@@XZ 0000000180018260 f i SwCloth.obj
 0001:00017280       ?setAngularInertia@?$ClothImpl@VSwCloth@cloth@nv@@@cloth@nv@@UEAAXAEBVPxVec3@physx@@@Z 0000000180018280 f i SwCloth.obj
 0001:000172c0       ?getAngularInertia@?$ClothImpl@VSwCloth@cloth@nv@@@cloth@nv@@UEBA?AVPxVec3@physx@@XZ 00000001800182c0 f i SwCloth.obj
 0001:000172e0       ?setCentrifugalInertia@?$ClothImpl@VSwCloth@cloth@nv@@@cloth@nv@@UEAAXAEBVPxVec3@physx@@@Z 00000001800182e0 f i SwCloth.obj
 0001:00017320       ?getCentrifugalInertia@?$ClothImpl@VSwCloth@cloth@nv@@@cloth@nv@@UEBA?AVPxVec3@physx@@XZ 0000000180018320 f i SwCloth.obj
 0001:00017340       ?setSolverFrequency@?$ClothImpl@VSwCloth@cloth@nv@@@cloth@nv@@UEAAXM@Z 0000000180018340 f i SwCloth.obj
 0001:00017370       ?getSolverFrequency@?$ClothImpl@VSwCloth@cloth@nv@@@cloth@nv@@UEBAMXZ 0000000180018370 f i SwCloth.obj
 0001:00017380       ?setStiffnessFrequency@?$ClothImpl@VSwCloth@cloth@nv@@@cloth@nv@@UEAAXM@Z 0000000180018380 f i SwCloth.obj
 0001:000173a0       ?getStiffnessFrequency@?$ClothImpl@VSwCloth@cloth@nv@@@cloth@nv@@UEBAMXZ 00000001800183a0 f i SwCloth.obj
 0001:000173b0       ?setAcceleationFilterWidth@?$ClothImpl@VSwCloth@cloth@nv@@@cloth@nv@@UEAAXI@Z 00000001800183b0 f i SwCloth.obj
 0001:000173c0       ?getAccelerationFilterWidth@?$ClothImpl@VSwCloth@cloth@nv@@@cloth@nv@@UEBAIXZ 00000001800183c0 f i SwCloth.obj
 0001:000173d0       ?setSpheres@?$ClothImpl@VSwCloth@cloth@nv@@@cloth@nv@@UEAAXU?$Range@$$CBVPxVec4@physx@@@23@0@Z 00000001800183d0 f i SwCloth.obj
 0001:000174c0       ?setSpheres@?$ClothImpl@VSwCloth@cloth@nv@@@cloth@nv@@UEAAXU?$Range@$$CBVPxVec4@physx@@@23@II@Z 00000001800184c0 f i SwCloth.obj
 0001:00017a70       ?getNumSpheres@?$ClothImpl@VSwCloth@cloth@nv@@@cloth@nv@@UEBAIXZ 0000000180018a70 f i SwCloth.obj
 0001:00017a80       ?setCapsules@?$ClothImpl@VSwCloth@cloth@nv@@@cloth@nv@@UEAAXU?$Range@$$CBI@23@II@Z 0000000180018a80 f i SwCloth.obj
 0001:00017c60       ?getNumCapsules@?$ClothImpl@VSwCloth@cloth@nv@@@cloth@nv@@UEBAIXZ 0000000180018c60 f i SwCloth.obj
 0001:00017c70       ?setPlanes@?$ClothImpl@VSwCloth@cloth@nv@@@cloth@nv@@UEAAXU?$Range@$$CBVPxVec4@physx@@@23@0@Z 0000000180018c70 f i SwCloth.obj
 0001:00017d60       ?setPlanes@?$ClothImpl@VSwCloth@cloth@nv@@@cloth@nv@@UEAAXU?$Range@$$CBVPxVec4@physx@@@23@II@Z 0000000180018d60 f i SwCloth.obj
 0001:00018300       ?getNumPlanes@?$ClothImpl@VSwCloth@cloth@nv@@@cloth@nv@@UEBAIXZ 0000000180019300 f i SwCloth.obj
 0001:00018310       ?setConvexes@?$ClothImpl@VSwCloth@cloth@nv@@@cloth@nv@@UEAAXU?$Range@$$CBI@23@II@Z 0000000180019310 f i SwCloth.obj
 0001:00018460       ?getNumConvexes@?$ClothImpl@VSwCloth@cloth@nv@@@cloth@nv@@UEBAIXZ 0000000180019460 f i SwCloth.obj
 0001:00018470       ?setTriangles@?$ClothImpl@VSwCloth@cloth@nv@@@cloth@nv@@UEAAXU?$Range@$$CBVPxVec3@physx@@@23@0I@Z 0000000180019470 f i SwCloth.obj
 0001:00018600       ?setTriangles@?$ClothImpl@VSwCloth@cloth@nv@@@cloth@nv@@UEAAXU?$Range@$$CBVPxVec3@physx@@@23@II@Z 0000000180019600 f i SwCloth.obj
 0001:000189e0       ?getNumTriangles@?$ClothImpl@VSwCloth@cloth@nv@@@cloth@nv@@UEBAIXZ 00000001800199e0 f i SwCloth.obj
 0001:000189f0       ?isContinuousCollisionEnabled@?$ClothImpl@VSwCloth@cloth@nv@@@cloth@nv@@UEBA_NXZ 00000001800199f0 f i SwCloth.obj
 0001:00018a00       ?enableContinuousCollision@?$ClothImpl@VSwCloth@cloth@nv@@@cloth@nv@@UEAAX_N@Z 0000000180019a00 f i SwCloth.obj
 0001:00018a20       ?getCollisionMassScale@?$ClothImpl@VSwCloth@cloth@nv@@@cloth@nv@@UEBAMXZ 0000000180019a20 f i SwCloth.obj
 0001:00018a30       ?setCollisionMassScale@?$ClothImpl@VSwCloth@cloth@nv@@@cloth@nv@@UEAAXM@Z 0000000180019a30 f i SwCloth.obj
 0001:00018a50       ?setFriction@?$ClothImpl@VSwCloth@cloth@nv@@@cloth@nv@@UEAAXM@Z 0000000180019a50 f i SwCloth.obj
 0001:00018a60       ?getFriction@?$ClothImpl@VSwCloth@cloth@nv@@@cloth@nv@@UEBAMXZ 0000000180019a60 f i SwCloth.obj
 0001:00018a70       ?getNumVirtualParticleWeights@?$ClothImpl@VSwCloth@cloth@nv@@@cloth@nv@@UEBAIXZ 0000000180019a70 f i SwCloth.obj
 0001:00018a80       ?setTetherConstraintScale@?$ClothImpl@VSwCloth@cloth@nv@@@cloth@nv@@UEAAXM@Z 0000000180019a80 f i SwCloth.obj
 0001:00018aa0       ?getTetherConstraintScale@?$ClothImpl@VSwCloth@cloth@nv@@@cloth@nv@@UEBAMXZ 0000000180019aa0 f i SwCloth.obj
 0001:00018ab0       ?setTetherConstraintStiffness@?$ClothImpl@VSwCloth@cloth@nv@@@cloth@nv@@UEAAXM@Z 0000000180019ab0 f i SwCloth.obj
 0001:00018b10       ?getTetherConstraintStiffness@?$ClothImpl@VSwCloth@cloth@nv@@@cloth@nv@@UEBAMXZ 0000000180019b10 f i SwCloth.obj
 0001:00018b60       ?getMotionConstraints@?$ClothImpl@VSwCloth@cloth@nv@@@cloth@nv@@UEAA?AU?$Range@VPxVec4@physx@@@23@XZ 0000000180019b60 f i SwCloth.obj
 0001:00018ba0       ?clearMotionConstraints@?$ClothImpl@VSwCloth@cloth@nv@@@cloth@nv@@UEAAXXZ 0000000180019ba0 f i SwCloth.obj
 0001:00018bd0       ?getNumMotionConstraints@?$ClothImpl@VSwCloth@cloth@nv@@@cloth@nv@@UEBAIXZ 0000000180019bd0 f i SwCloth.obj
 0001:00018be0       ?setMotionConstraintScaleBias@?$ClothImpl@VSwCloth@cloth@nv@@@cloth@nv@@UEAAXMM@Z 0000000180019be0 f i SwCloth.obj
 0001:00018c10       ?getMotionConstraintScale@?$ClothImpl@VSwCloth@cloth@nv@@@cloth@nv@@UEBAMXZ 0000000180019c10 f i SwCloth.obj
 0001:00018c20       ?getMotionConstraintBias@?$ClothImpl@VSwCloth@cloth@nv@@@cloth@nv@@UEBAMXZ 0000000180019c20 f i SwCloth.obj
 0001:00018c30       ?setMotionConstraintStiffness@?$ClothImpl@VSwCloth@cloth@nv@@@cloth@nv@@UEAAXM@Z 0000000180019c30 f i SwCloth.obj
 0001:00018c90       ?getMotionConstraintStiffness@?$ClothImpl@VSwCloth@cloth@nv@@@cloth@nv@@UEBAMXZ 0000000180019c90 f i SwCloth.obj
 0001:00018ce0       ?getSeparationConstraints@?$ClothImpl@VSwCloth@cloth@nv@@@cloth@nv@@UEAA?AU?$Range@VPxVec4@physx@@@23@XZ 0000000180019ce0 f i SwCloth.obj
 0001:00018d20       ?clearSeparationConstraints@?$ClothImpl@VSwCloth@cloth@nv@@@cloth@nv@@UEAAXXZ 0000000180019d20 f i SwCloth.obj
 0001:00018d50       ?getNumSeparationConstraints@?$ClothImpl@VSwCloth@cloth@nv@@@cloth@nv@@UEBAIXZ 0000000180019d50 f i SwCloth.obj
 0001:00018d60       ?clearInterpolation@?$ClothImpl@VSwCloth@cloth@nv@@@cloth@nv@@UEAAXXZ 0000000180019d60 f i SwCloth.obj
 0001:00018e70       ?getNumParticleAccelerations@?$ClothImpl@VSwCloth@cloth@nv@@@cloth@nv@@UEBAIXZ 0000000180019e70 f i SwCloth.obj
 0001:00018e80       ?setWindVelocity@?$ClothImpl@VSwCloth@cloth@nv@@@cloth@nv@@UEAAXVPxVec3@physx@@@Z 0000000180019e80 f i SwCloth.obj
 0001:00018ed0       ?getWindVelocity@?$ClothImpl@VSwCloth@cloth@nv@@@cloth@nv@@UEBA?AVPxVec3@physx@@XZ 0000000180019ed0 f i SwCloth.obj
 0001:00018ef0       ?setDragCoefficient@?$ClothImpl@VSwCloth@cloth@nv@@@cloth@nv@@UEAAXM@Z 0000000180019ef0 f i SwCloth.obj
 0001:00018f50       ?getDragCoefficient@?$ClothImpl@VSwCloth@cloth@nv@@@cloth@nv@@UEBAMXZ 0000000180019f50 f i SwCloth.obj
 0001:00018fa0       ?setLiftCoefficient@?$ClothImpl@VSwCloth@cloth@nv@@@cloth@nv@@UEAAXM@Z 0000000180019fa0 f i SwCloth.obj
 0001:00019000       ?getLiftCoefficient@?$ClothImpl@VSwCloth@cloth@nv@@@cloth@nv@@UEBAMXZ 000000018001a000 f i SwCloth.obj
 0001:00019050       ?setFluidDensity@?$ClothImpl@VSwCloth@cloth@nv@@@cloth@nv@@UEAAXM@Z 000000018001a050 f i SwCloth.obj
 0001:00019070       ?getFluidDensity@?$ClothImpl@VSwCloth@cloth@nv@@@cloth@nv@@UEBAMXZ 000000018001a070 f i SwCloth.obj
 0001:00019080       ?setSelfCollisionDistance@?$ClothImpl@VSwCloth@cloth@nv@@@cloth@nv@@UEAAXM@Z 000000018001a080 f i SwCloth.obj
 0001:000190a0       ?getSelfCollisionDistance@?$ClothImpl@VSwCloth@cloth@nv@@@cloth@nv@@UEBAMXZ 000000018001a0a0 f i SwCloth.obj
 0001:000190b0       ?setSelfCollisionStiffness@?$ClothImpl@VSwCloth@cloth@nv@@@cloth@nv@@UEAAXM@Z 000000018001a0b0 f i SwCloth.obj
 0001:00019110       ?getSelfCollisionStiffness@?$ClothImpl@VSwCloth@cloth@nv@@@cloth@nv@@UEBAMXZ 000000018001a110 f i SwCloth.obj
 0001:00019160       ?getNumSelfCollisionIndices@?$ClothImpl@VSwCloth@cloth@nv@@@cloth@nv@@UEBAIXZ 000000018001a160 f i SwCloth.obj
 0001:00019170       ?setRestPositions@?$ClothImpl@VSwCloth@cloth@nv@@@cloth@nv@@UEAAXU?$Range@$$CBVPxVec4@physx@@@23@@Z 000000018001a170 f i SwCloth.obj
 0001:000191e0       ?getNumRestPositions@?$ClothImpl@VSwCloth@cloth@nv@@@cloth@nv@@UEBAIXZ 000000018001a1e0 f i SwCloth.obj
 0001:000191f0       ?getBoundingBoxCenter@?$ClothImpl@VSwCloth@cloth@nv@@@cloth@nv@@UEBAAEBVPxVec3@physx@@XZ 000000018001a1f0 f i SwCloth.obj
 0001:00019200       ?getBoundingBoxScale@?$ClothImpl@VSwCloth@cloth@nv@@@cloth@nv@@UEBAAEBVPxVec3@physx@@XZ 000000018001a200 f i SwCloth.obj
 0001:00019210       ?setSleepThreshold@?$ClothImpl@VSwCloth@cloth@nv@@@cloth@nv@@UEAAXM@Z 000000018001a210 f i SwCloth.obj
 0001:00019230       ?getSleepThreshold@?$ClothImpl@VSwCloth@cloth@nv@@@cloth@nv@@UEBAMXZ 000000018001a230 f i SwCloth.obj
 0001:00019240       ?setSleepTestInterval@?$ClothImpl@VSwCloth@cloth@nv@@@cloth@nv@@UEAAXI@Z 000000018001a240 f i SwCloth.obj
 0001:00019260       ?getSleepTestInterval@?$ClothImpl@VSwCloth@cloth@nv@@@cloth@nv@@UEBAIXZ 000000018001a260 f i SwCloth.obj
 0001:00019270       ?setSleepAfterCount@?$ClothImpl@VSwCloth@cloth@nv@@@cloth@nv@@UEAAXI@Z 000000018001a270 f i SwCloth.obj
 0001:00019290       ?getSleepAfterCount@?$ClothImpl@VSwCloth@cloth@nv@@@cloth@nv@@UEBAIXZ 000000018001a290 f i SwCloth.obj
 0001:000192a0       ?getSleepPassCount@?$ClothImpl@VSwCloth@cloth@nv@@@cloth@nv@@UEBAIXZ 000000018001a2a0 f i SwCloth.obj
 0001:000192b0       ?isAsleep@?$ClothImpl@VSwCloth@cloth@nv@@@cloth@nv@@UEBA_NXZ 000000018001a2b0 f i SwCloth.obj
 0001:000192c0       ?putToSleep@?$ClothImpl@VSwCloth@cloth@nv@@@cloth@nv@@UEAAXXZ 000000018001a2c0 f i SwCloth.obj
 0001:000192d0       ?isSleeping@?$ClothImpl@VSwCloth@cloth@nv@@@cloth@nv@@UEBA_NXZ 000000018001a2d0 f i SwCloth.obj
 0001:000192e0       ?wakeUp@?$ClothImpl@VSwCloth@cloth@nv@@@cloth@nv@@UEAAXXZ 000000018001a2e0 f i SwCloth.obj
 0001:000192f0       ?setUserData@?$ClothImpl@VSwCloth@cloth@nv@@@cloth@nv@@UEAAXPEAX@Z 000000018001a2f0 f i SwCloth.obj
 0001:00019300       ?getUserData@?$ClothImpl@VSwCloth@cloth@nv@@@cloth@nv@@UEBAPEAXXZ 000000018001a300 f i SwCloth.obj
 0001:00019310       ?resize@?$Array@UPhaseConfig@cloth@nv@@VNonTrackingAllocator@ps@23@@ps@cloth@nv@@QEAAXIAEBUPhaseConfig@34@@Z 000000018001a310 f i SwCloth.obj
 0001:00019360       ?swap@?$Array@U?$Vec4T@G@cloth@nv@@VNonTrackingAllocator@ps@23@@ps@cloth@nv@@QEAAXAEAV1234@@Z 000000018001a360 f i SwCloth.obj
 0001:00019390       ??0?$Array@U?$Vec4T@G@cloth@nv@@VNonTrackingAllocator@ps@23@@ps@cloth@nv@@QEAA@AEBV0123@AEBVNonTrackingAllocator@123@@Z 000000018001a390 f i SwCloth.obj
 0001:000193b0       ??1?$Array@UIndexPair@cloth@nv@@VNonTrackingAllocator@ps@23@@ps@cloth@nv@@QEAA@XZ 000000018001a3b0 f i SwCloth.obj
 0001:000193e0       ??0?$Array@UIndexPair@cloth@nv@@VNonTrackingAllocator@ps@23@@ps@cloth@nv@@QEAA@AEBV0123@AEBVNonTrackingAllocator@123@@Z 000000018001a3e0 f i SwCloth.obj
 0001:00019400       ??0?$Array@UIndexPair@cloth@nv@@VNonTrackingAllocator@ps@23@@ps@cloth@nv@@QEAA@AEBVNonTrackingAllocator@123@@Z 000000018001a400 f i SwCloth.obj
 0001:00019410       ??0?$Array@VPxVec3@physx@@VNonTrackingAllocator@ps@cloth@nv@@@ps@cloth@nv@@QEAA@AEBV0123@AEBVNonTrackingAllocator@123@@Z 000000018001a410 f i SwCloth.obj
 0001:00019430       ??0?$Array@VPxVec3@physx@@VNonTrackingAllocator@ps@cloth@nv@@@ps@cloth@nv@@QEAA@AEBVNonTrackingAllocator@123@@Z 000000018001a430 f i SwCloth.obj
 0001:00019440       ??0?$ClothImpl@VSwCloth@cloth@nv@@@cloth@nv@@QEAA@XZ 000000018001a440 f i SwCloth.obj
 0001:000194a0       ?assign@?$Array@VPxVec4@physx@@VNonTrackingAllocator@ps@cloth@nv@@@ps@cloth@nv@@QEAAXPEBVPxVec4@physx@@0@Z 000000018001a4a0 f i SwCloth.obj
 0001:000194e0       ?swap@?$Array@VPxVec4@physx@@VNonTrackingAllocator@ps@cloth@nv@@@ps@cloth@nv@@QEAAXAEAV1234@@Z 000000018001a4e0 f i SwCloth.obj
 0001:00019510       ?end@?$Array@VPxVec4@physx@@VNonTrackingAllocator@ps@cloth@nv@@@ps@cloth@nv@@QEBAPEBVPxVec4@physx@@XZ 000000018001a510 f i SwCloth.obj
 0001:00019520       ??4?$Array@VPxVec4@physx@@VNonTrackingAllocator@ps@cloth@nv@@@ps@cloth@nv@@QEAAAEAV0123@AEBV0123@@Z 000000018001a520 f i SwCloth.obj
 0001:00019580       ??0?$Array@VPxVec4@physx@@VNonTrackingAllocator@ps@cloth@nv@@@ps@cloth@nv@@QEAA@AEBV0123@AEBVNonTrackingAllocator@123@@Z 000000018001a580 f i SwCloth.obj
 0001:000195a0       ??0?$Array@IVNonTrackingAllocator@ps@cloth@nv@@@ps@cloth@nv@@QEAA@AEBV0123@AEBVNonTrackingAllocator@123@@Z 000000018001a5a0 f i SwCloth.obj
 0001:000195c0       ??_E?$ClothImpl@VSwCloth@cloth@nv@@@cloth@nv@@UEAAPEAXI@Z 000000018001a5c0 f i * CIL library *:* CIL module *
 0001:000195c0       ??_G?$ClothImpl@VSwCloth@cloth@nv@@@cloth@nv@@UEAAPEAXI@Z 000000018001a5c0 f i SwCloth.obj
 0001:00019640       ??$?4VNonTrackingAllocator@ps@cloth@nv@@@?$Array@VPxVec4@physx@@VNonTrackingAllocator@ps@cloth@nv@@@ps@cloth@nv@@QEAAAEAV0123@AEBV0123@@Z 000000018001a640 f i SwCloth.obj
 0001:000196a0       ??$swap@VPxVec4@physx@@VNonTrackingAllocator@ps@cloth@nv@@@ps@cloth@nv@@YAXAEAV?$Array@VPxVec4@physx@@VNonTrackingAllocator@ps@cloth@nv@@@012@0@Z 000000018001a6a0 f i SwCloth.obj
 0001:000196d0       ??$swap@PEAU?$Vec4T@G@cloth@nv@@@ps@cloth@nv@@YAXAEAPEAU?$Vec4T@G@12@0@Z 000000018001a6d0 f i SwCloth.obj
 0001:000196e0       ??$copy@VNonTrackingAllocator@ps@cloth@nv@@@?$Array@U?$Vec4T@G@cloth@nv@@VNonTrackingAllocator@ps@23@@ps@cloth@nv@@IEAAXAEBV0123@@Z 000000018001a6e0 f i SwCloth.obj
 0001:00019780       ??$copy@VNonTrackingAllocator@ps@cloth@nv@@@?$Array@UIndexPair@cloth@nv@@VNonTrackingAllocator@ps@23@@ps@cloth@nv@@IEAAXAEBV0123@@Z 000000018001a780 f i SwCloth.obj
 0001:00019820       ??$copy@VNonTrackingAllocator@ps@cloth@nv@@@?$Array@VPxVec3@physx@@VNonTrackingAllocator@ps@cloth@nv@@@ps@cloth@nv@@IEAAXAEBV0123@@Z 000000018001a820 f i SwCloth.obj
 0001:000198b0       ??$copy@VNonTrackingAllocator@ps@cloth@nv@@@?$Array@VPxVec4@physx@@VNonTrackingAllocator@ps@cloth@nv@@@ps@cloth@nv@@IEAAXAEBV0123@@Z 000000018001a8b0 f i SwCloth.obj
 0001:00019940       ??$copy@VNonTrackingAllocator@ps@cloth@nv@@@?$Array@IVNonTrackingAllocator@ps@cloth@nv@@@ps@cloth@nv@@IEAAXAEBV0123@@Z 000000018001a940 f i SwCloth.obj
 0001:000199e0       ?resize@?$Array@UIndexPair@cloth@nv@@VNonTrackingAllocator@ps@23@@ps@cloth@nv@@QEAAXIAEBUIndexPair@34@@Z 000000018001a9e0 f i SwCloth.obj
 0001:00019aa0       ?create@?$Array@UPhaseConfig@cloth@nv@@VNonTrackingAllocator@ps@23@@ps@cloth@nv@@KAXPEAUPhaseConfig@34@0AEBU534@@Z 000000018001aaa0 f i SwCloth.obj
 0001:00019ad0       ?destroy@?$Array@UIndexPair@cloth@nv@@VNonTrackingAllocator@ps@23@@ps@cloth@nv@@KAXPEAUIndexPair@34@0@Z 000000018001aad0 f i SwCloth.obj
 0001:00019ae0       ?deallocate@?$Array@UIndexPair@cloth@nv@@VNonTrackingAllocator@ps@23@@ps@cloth@nv@@IEAAXPEAX@Z 000000018001aae0 f i SwCloth.obj
 0001:00019b00       ?isInUserMemory@?$Array@UIndexPair@cloth@nv@@VNonTrackingAllocator@ps@23@@ps@cloth@nv@@QEBAIXZ 000000018001ab00 f i SwCloth.obj
 0001:00019b10       ?capacity@?$Array@UIndexPair@cloth@nv@@VNonTrackingAllocator@ps@23@@ps@cloth@nv@@QEBAIXZ 000000018001ab10 f i SwCloth.obj
 0001:00019b20       ?reserve@?$Array@UIndexPair@cloth@nv@@VNonTrackingAllocator@ps@23@@ps@cloth@nv@@QEAAXI@Z 000000018001ab20 f i SwCloth.obj
 0001:00019b30       ?replaceWithLast@?$Array@UIndexPair@cloth@nv@@VNonTrackingAllocator@ps@23@@ps@cloth@nv@@QEAAXPEAUIndexPair@34@@Z 000000018001ab30 f i SwCloth.obj
 0001:00019b50       ?size@?$Array@UIndexPair@cloth@nv@@VNonTrackingAllocator@ps@23@@ps@cloth@nv@@QEBAIXZ 000000018001ab50 f i SwCloth.obj
 0001:00019b60       ?end@?$Array@UIndexPair@cloth@nv@@VNonTrackingAllocator@ps@23@@ps@cloth@nv@@QEAAPEAUIndexPair@34@XZ 000000018001ab60 f i SwCloth.obj
 0001:00019b70       ?begin@?$Array@UIndexPair@cloth@nv@@VNonTrackingAllocator@ps@23@@ps@cloth@nv@@QEAAPEAUIndexPair@34@XZ 000000018001ab70 f i SwCloth.obj
 0001:00019b80       ??A?$Array@UIndexPair@cloth@nv@@VNonTrackingAllocator@ps@23@@ps@cloth@nv@@QEAAAEAUIndexPair@23@I@Z 000000018001ab80 f i SwCloth.obj
 0001:00019b90       ?assign@?$Array@VPxVec3@physx@@VNonTrackingAllocator@ps@cloth@nv@@@ps@cloth@nv@@QEAAXPEBVPxVec3@physx@@0@Z 000000018001ab90 f i SwCloth.obj
 0001:00019be0       ?pushBack@?$Array@VPxVec3@physx@@VNonTrackingAllocator@ps@cloth@nv@@@ps@cloth@nv@@QEAAAEAVPxVec3@physx@@AEBV56@@Z 000000018001abe0 f i SwCloth.obj
 0001:00019c40       ?begin@?$Array@VPxVec3@physx@@VNonTrackingAllocator@ps@cloth@nv@@@ps@cloth@nv@@QEAAPEAVPxVec3@physx@@XZ 000000018001ac40 f i SwCloth.obj
 0001:00019c50       ??A?$Array@VPxVec3@physx@@VNonTrackingAllocator@ps@cloth@nv@@@ps@cloth@nv@@QEAAAEAVPxVec3@physx@@I@Z 000000018001ac50 f i SwCloth.obj
 0001:00019c60       ?getChildCloth@?$ClothImpl@VSwCloth@cloth@nv@@@cloth@nv@@QEBAPEBVSwCloth@23@XZ 000000018001ac60 f i SwCloth.obj
 0001:00019c70       ?getChildCloth@?$ClothImpl@VSwCloth@cloth@nv@@@cloth@nv@@QEAAPEAVSwCloth@23@XZ 000000018001ac70 f i SwCloth.obj
 0001:00019c80       ?end@?$Array@VPxVec4@physx@@VNonTrackingAllocator@ps@cloth@nv@@@ps@cloth@nv@@QEAAPEAVPxVec4@physx@@XZ 000000018001ac80 f i SwCloth.obj
 0001:00019c90       ??A?$Array@VPxVec4@physx@@VNonTrackingAllocator@ps@cloth@nv@@@ps@cloth@nv@@QEAAAEAVPxVec4@physx@@I@Z 000000018001ac90 f i SwCloth.obj
 0001:00019ca0       ?replaceWithLast@?$Array@IVNonTrackingAllocator@ps@cloth@nv@@@ps@cloth@nv@@QEAAXPEAI@Z 000000018001aca0 f i SwCloth.obj
 0001:00019cc0       ?resizeUninitialized@?$Array@VPxVec3@physx@@VNonTrackingAllocator@ps@cloth@nv@@@ps@cloth@nv@@QEAAXI@Z 000000018001acc0 f i SwCloth.obj
 0001:00019d00       ?growAndPushBack@?$Array@VPxVec3@physx@@VNonTrackingAllocator@ps@cloth@nv@@@ps@cloth@nv@@IEAAAEAVPxVec3@physx@@AEBV56@@Z 000000018001ad00 f i SwCloth.obj
 0001:00019df0       ?begin@?$Array@U?$Vec4T@G@cloth@nv@@VNonTrackingAllocator@ps@23@@ps@cloth@nv@@QEBAPEBU?$Vec4T@G@34@XZ 000000018001adf0 f i SwCloth.obj
 0001:00019e00       ?grow@?$Array@UIndexPair@cloth@nv@@VNonTrackingAllocator@ps@23@@ps@cloth@nv@@IEAAXI@Z 000000018001ae00 f i SwCloth.obj
 0001:00019e10       ?copy@?$Array@UIndexPair@cloth@nv@@VNonTrackingAllocator@ps@23@@ps@cloth@nv@@KAXPEAUIndexPair@34@0PEBU534@@Z 000000018001ae10 f i SwCloth.obj
 0001:00019e40       ?create@?$Array@UIndexPair@cloth@nv@@VNonTrackingAllocator@ps@23@@ps@cloth@nv@@KAXPEAUIndexPair@34@0AEBU534@@Z 000000018001ae40 f i SwCloth.obj
 0001:00019ed0       ?allocate@?$Array@UIndexPair@cloth@nv@@VNonTrackingAllocator@ps@23@@ps@cloth@nv@@IEAAPEAUIndexPair@34@I@Z 000000018001aed0 f i SwCloth.obj
 0001:00019f20       ?replaceWithLast@?$Array@UIndexPair@cloth@nv@@VNonTrackingAllocator@ps@23@@ps@cloth@nv@@QEAAXI@Z 000000018001af20 f i SwCloth.obj
 0001:00019f40       ?empty@?$Array@UIndexPair@cloth@nv@@VNonTrackingAllocator@ps@23@@ps@cloth@nv@@QEBA_NXZ 000000018001af40 f i SwCloth.obj
 0001:00019f50       ?begin@?$Array@UIndexPair@cloth@nv@@VNonTrackingAllocator@ps@23@@ps@cloth@nv@@QEBAPEBUIndexPair@34@XZ 000000018001af50 f i SwCloth.obj
 0001:00019f60       ?end@?$Array@VPxVec3@physx@@VNonTrackingAllocator@ps@cloth@nv@@@ps@cloth@nv@@QEAAPEAVPxVec3@physx@@XZ 000000018001af60 f i SwCloth.obj
 0001:00019f70       ?begin@?$Array@VPxVec3@physx@@VNonTrackingAllocator@ps@cloth@nv@@@ps@cloth@nv@@QEBAPEBVPxVec3@physx@@XZ 000000018001af70 f i SwCloth.obj
 0001:00019f80       ?clear@?$Array@VPxVec4@physx@@VNonTrackingAllocator@ps@cloth@nv@@@ps@cloth@nv@@QEAAXXZ 000000018001af80 f i SwCloth.obj
 0001:00019f90       ?replaceWithLast@?$Array@IVNonTrackingAllocator@ps@cloth@nv@@@ps@cloth@nv@@QEAAXI@Z 000000018001af90 f i SwCloth.obj
 0001:00019fb0       ?recreate@?$Array@UIndexPair@cloth@nv@@VNonTrackingAllocator@ps@23@@ps@cloth@nv@@IEAAXI@Z 000000018001afb0 f i SwCloth.obj
 0001:0001a060       ?capacityIncrement@?$Array@VPxVec3@physx@@VNonTrackingAllocator@ps@cloth@nv@@@ps@cloth@nv@@IEBAIXZ 000000018001b060 f i SwCloth.obj
 0001:0001a080       ?front@?$Array@UPhaseConfig@cloth@nv@@VNonTrackingAllocator@ps@23@@ps@cloth@nv@@QEAAAEAUPhaseConfig@34@XZ 000000018001b080 f i SwClothData.obj
 0001:0001a090       ?front@?$Array@UIndexPair@cloth@nv@@VNonTrackingAllocator@ps@23@@ps@cloth@nv@@QEAAAEAUIndexPair@34@XZ 000000018001b090 f i SwClothData.obj
 0001:0001a0a0       ?size@?$Array@USwTether@cloth@nv@@VNonTrackingAllocator@ps@23@@ps@cloth@nv@@QEBAIXZ 000000018001b0a0 f i SwClothData.obj
 0001:0001a0b0       ?begin@?$Array@USwTether@cloth@nv@@VNonTrackingAllocator@ps@23@@ps@cloth@nv@@QEBAPEBUSwTether@34@XZ 000000018001b0b0 f i SwClothData.obj
 0001:0001a0c0       ?size@?$Array@GVNonTrackingAllocator@ps@cloth@nv@@@ps@cloth@nv@@QEBAIXZ 000000018001b0c0 f i SwClothData.obj
 0001:0001a0d0       ?front@?$Array@GVNonTrackingAllocator@ps@cloth@nv@@@ps@cloth@nv@@QEBAAEBGXZ 000000018001b0d0 f i SwClothData.obj
 0001:0001a0e0       ?begin@?$Array@GVNonTrackingAllocator@ps@cloth@nv@@@ps@cloth@nv@@QEBAPEBGXZ 000000018001b0e0 f i SwClothData.obj
 0001:0001a0f0       ?front@?$Array@IVNonTrackingAllocator@ps@cloth@nv@@@ps@cloth@nv@@QEAAAEAIXZ 000000018001b0f0 f i SwClothData.obj
 0001:0001a100       ?empty@?$Array@MV?$AlignedAllocator@$0CA@VNonTrackingAllocator@ps@cloth@nv@@@ps@cloth@nv@@@ps@cloth@nv@@QEBA_NXZ 000000018001b100 f i SwClothData.obj
 0001:0001a110       ?size@?$Array@MV?$AlignedAllocator@$0CA@VNonTrackingAllocator@ps@cloth@nv@@@ps@cloth@nv@@@ps@cloth@nv@@QEBAIXZ 000000018001b110 f i SwClothData.obj
 0001:0001a120       ?front@?$Array@MV?$AlignedAllocator@$0CA@VNonTrackingAllocator@ps@cloth@nv@@@ps@cloth@nv@@@ps@cloth@nv@@QEBAAEBMXZ 000000018001b120 f i SwClothData.obj
 0001:0001a130       ??0NvClothProfileScoped@cloth@nv@@QEAA@PEBD_N_K0HPEAVPxProfilerCallback@physx@@@Z 000000018001b130 f i SwCollision.obj
 0001:0001a170       ??1NvClothProfileScoped@cloth@nv@@QEAA@XZ 000000018001b170 f i SwCollision.obj
 0001:0001a1b0       ??0Simd4fAlignedLoadFactory@cloth@nv@@QEAA@PEBM@Z 000000018001b1b0 f i SwCollision.obj
 0001:0001a1c0       ??0Simd4fOffsetLoadFactory@cloth@nv@@QEAA@PEBMI@Z 000000018001b1c0 f i SwCollision.obj
 0001:0001a1d0       ?loadAligned@cloth@nv@@YA?AUSimd4fAlignedLoadFactory@12@PEBM@Z 000000018001b1d0 f i SwCollision.obj
 0001:0001a1e0       ?loadAligned@cloth@nv@@YA?AUSimd4fOffsetLoadFactory@12@PEBMI@Z 000000018001b1e0 f i SwCollision.obj
 0001:0001a1f0       ??BSimd4fAlignedLoadFactory@cloth@nv@@QEBA?AT__m128@@XZ 000000018001b1f0 f i SwCollision.obj
 0001:0001a200       ??BSimd4fOffsetLoadFactory@cloth@nv@@QEBA?AT__m128@@XZ 000000018001b200 f i SwCollision.obj
 0001:0001a220       ??$?IT__m128@@@cloth@nv@@YA?AT__m128@@AEBT2@AEBU?$ComplementExpr@T__m128@@@01@@Z 000000018001b220 f i SwCollision.obj
 0001:0001a230       ??8cloth@nv@@YA?AT__m128@@AEBT2@0@Z 000000018001b230 f i SwCollision.obj
 0001:0001a240       ??Mcloth@nv@@YA?AT__m128@@AEBT2@0@Z 000000018001b240 f i SwCollision.obj
 0001:0001a250       ??Ocloth@nv@@YA?AT__m128@@AEBT2@0@Z 000000018001b250 f i SwCollision.obj
 0001:0001a260       ??Pcloth@nv@@YA?AT__m128@@AEBT2@0@Z 000000018001b260 f i SwCollision.obj
 0001:0001a270       ??Scloth@nv@@YA?AU?$ComplementExpr@T__m128@@@01@AEBT__m128@@@Z 000000018001b270 f i SwCollision.obj
 0001:0001a280       ??Ucloth@nv@@YA?AT__m128@@AEBT2@0@Z 000000018001b280 f i SwCollision.obj
 0001:0001a290       ?simd4f@cloth@nv@@YA?AT__m128@@AEBT__m128i@@@Z 000000018001b290 f i SwCollision.obj
 0001:0001a2a0       ?store@cloth@nv@@YAXPEAMAEBT__m128@@@Z 000000018001b2a0 f i SwCollision.obj
 0001:0001a2b0       ?storeAligned@cloth@nv@@YAXPEAMAEBT__m128@@@Z 000000018001b2b0 f i SwCollision.obj
 0001:0001a2c0       ?storeAligned@cloth@nv@@YAXPEAMIAEBT__m128@@@Z 000000018001b2c0 f i SwCollision.obj
 0001:0001a2d0       ?abs@cloth@nv@@YA?AT__m128@@AEBT3@@Z 000000018001b2d0 f i SwCollision.obj
 0001:0001a2e0       ?sqrt@cloth@nv@@YA?AT__m128@@AEBT3@@Z 000000018001b2e0 f i SwCollision.obj
 0001:0001a2f0       ?cross3@cloth@nv@@YA?AT__m128@@AEBT3@0@Z 000000018001b2f0 f i SwCollision.obj
 0001:0001a310       ?transpose@cloth@nv@@YAXAEAT__m128@@000@Z 000000018001b310 f i SwCollision.obj
 0001:0001a360       ?allEqual@cloth@nv@@YAHAEBT__m128@@0@Z 000000018001b360 f i SwCollision.obj
 0001:0001a380       ?anyGreater@cloth@nv@@YAHAEBT__m128@@0AEAT3@@Z 000000018001b380 f i SwCollision.obj
 0001:0001a390       ?allGreaterEqual@cloth@nv@@YAHAEBT__m128@@0@Z 000000018001b390 f i SwCollision.obj
 0001:0001a3b0       ?allTrue@cloth@nv@@YAHAEBT__m128@@@Z 000000018001b3b0 f i SwCollision.obj
 0001:0001a3c0       ?anyTrue@cloth@nv@@YAHAEBT__m128@@@Z 000000018001b3c0 f i SwCollision.obj
 0001:0001a3d0       ??0Simd4iOffsetLoadFactory@cloth@nv@@QEAA@PEBHI@Z 000000018001b3d0 f i SwCollision.obj
 0001:0001a3e0       ?loadAligned@cloth@nv@@YA?AUSimd4iOffsetLoadFactory@12@PEBHI@Z 000000018001b3e0 f i SwCollision.obj
 0001:0001a3f0       ??BSimd4iZeroFactory@cloth@nv@@QEBA?AT__m128i@@XZ 000000018001b3f0 f i SwCollision.obj
 0001:0001a400       ??BSimd4iScalarFactory@cloth@nv@@QEBA?AT__m128i@@XZ 000000018001b400 f i SwCollision.obj
 0001:0001a420       ??BSimd4iOffsetLoadFactory@cloth@nv@@QEBA?AT__m128i@@XZ 000000018001b420 f i SwCollision.obj
 0001:0001a440       ??$?IT__m128i@@@cloth@nv@@YA?AT__m128i@@AEBT2@AEBU?$ComplementExpr@T__m128i@@@01@@Z 000000018001b440 f i SwCollision.obj
 0001:0001a450       ??8cloth@nv@@YA?AT__m128i@@AEBT2@0@Z 000000018001b450 f i SwCollision.obj
 0001:0001a460       ??Ocloth@nv@@YA?AT__m128i@@AEBT2@0@Z 000000018001b460 f i SwCollision.obj
 0001:0001a470       ??Scloth@nv@@YA?AU?$ComplementExpr@T__m128i@@@01@AEBT__m128i@@@Z 000000018001b470 f i SwCollision.obj
 0001:0001a480       ??Icloth@nv@@YA?AT__m128i@@AEBT2@0@Z 000000018001b480 f i SwCollision.obj
 0001:0001a490       ??Ucloth@nv@@YA?AT__m128i@@AEBT2@0@Z 000000018001b490 f i SwCollision.obj
 0001:0001a4a0       ??Tcloth@nv@@YA?AT__m128i@@AEBT2@0@Z 000000018001b4a0 f i SwCollision.obj
 0001:0001a4b0       ??6cloth@nv@@YA?AT__m128i@@AEBT2@H@Z 000000018001b4b0 f i SwCollision.obj
 0001:0001a4c0       ??Gcloth@nv@@YA?AT__m128i@@AEBT2@0@Z 000000018001b4c0 f i SwCollision.obj
 0001:0001a4d0       ?simd4i@cloth@nv@@YA?AT__m128i@@AEBT__m128@@@Z 000000018001b4d0 f i SwCollision.obj
 0001:0001a4e0       ?array@cloth@nv@@YAAEAY03HAEAT__m128i@@@Z 000000018001b4e0 f i SwCollision.obj
 0001:0001a4f0       ?select@cloth@nv@@YA?AT__m128i@@AEBT3@00@Z 000000018001b4f0 f i SwCollision.obj
 0001:0001a500       ?allEqual@cloth@nv@@YAHAEBT__m128i@@0@Z 000000018001b500 f i SwCollision.obj
 0001:0001a520       ?anyEqual@cloth@nv@@YAHAEBT__m128i@@0AEAT3@@Z 000000018001b520 f i SwCollision.obj
 0001:0001a540       ?allTrue@cloth@nv@@YAHAEBT__m128i@@@Z 000000018001b540 f i SwCollision.obj
 0001:0001a550       ?anyTrue@cloth@nv@@YAHAEBT__m128i@@@Z 000000018001b550 f i SwCollision.obj
 0001:0001a560       ?findBitSet@cloth@nv@@YAII@Z 000000018001b560 f i SwCollision.obj
 0001:0001a570       ?intFloor@cloth@nv@@YA?AT__m128i@@AEBT__m128@@@Z 000000018001b570 f i SwCollision.obj
 0001:0001a590       ?horizontalOr@cloth@nv@@YA?AT__m128i@@AEBT3@@Z 000000018001b590 f i SwCollision.obj
 0001:0001a5b0       ??0?$Gather@T__m128i@@@cloth@nv@@QEAA@AEBT__m128i@@@Z 000000018001b5b0 f i SwCollision.obj
 0001:0001a610       ??R?$Gather@T__m128i@@@cloth@nv@@QEBA?AT__m128i@@PEBT3@@Z 000000018001b610 f i SwCollision.obj
 0001:0001a6d0       ??$PX_UNUSED@PEBD@@YAXAEBQEBD@Z 000000018001b6d0 f i SwCollision.obj
 0001:0001a6e0       ??$splat@$00@cloth@nv@@YA?AT__m128i@@AEBT2@@Z 000000018001b6e0 f i SwCollision.obj
 0001:0001a6f0       ??$splat@$0A@@cloth@nv@@YA?AT__m128i@@AEBT2@@Z 000000018001b6f0 f i SwCollision.obj
 0001:0001a700       ??$splat@$02@cloth@nv@@YA?AT__m128i@@AEBT2@@Z 000000018001b700 f i SwCollision.obj
 0001:0001a710       ??$splat@$01@cloth@nv@@YA?AT__m128i@@AEBT2@@Z 000000018001b710 f i SwCollision.obj
 0001:0001a720       ??0?$SwCollision@T__m128@@@cloth@nv@@QEAA@AEAUSwClothData@12@AEAV?$StackAllocator@$0BA@@12@@Z 000000018001b720 f i SwCollision.obj
 0001:0001a800       ??1?$SwCollision@T__m128@@@cloth@nv@@QEAA@XZ 000000018001b800 f i SwCollision.obj
 0001:0001a830       ??R?$SwCollision@T__m128@@@cloth@nv@@QEAAXAEBU?$IterationState@T__m128@@@12@@Z 000000018001b830 f i SwCollision.obj
 0001:0001ac00       ?estimateTemporaryMemory@?$SwCollision@T__m128@@@cloth@nv@@SA_KAEBVSwCloth@23@@Z 000000018001bc00 f i SwCollision.obj
 0001:0001ac20       ?estimatePersistentMemory@?$SwCollision@T__m128@@@cloth@nv@@SA_KAEBVSwCloth@23@@Z 000000018001bc20 f i SwCollision.obj
 0001:0001ac40       ?allocate@?$SwCollision@T__m128@@@cloth@nv@@AEAAXAEAUCollisionData@123@@Z 000000018001bc40 f i SwCollision.obj
 0001:0001ad50       ?deallocate@?$SwCollision@T__m128@@@cloth@nv@@AEAAXAEBUCollisionData@123@@Z 000000018001bd50 f i SwCollision.obj
 0001:0001add0       ?computeBounds@?$SwCollision@T__m128@@@cloth@nv@@AEAAXXZ 000000018001bdd0 f i SwCollision.obj
 0001:0001aef0       ?buildSphereAcceleration@?$SwCollision@T__m128@@@cloth@nv@@AEAAXPEBUSphereData@23@@Z 000000018001bef0 f i SwCollision.obj
 0001:0001b010       ?buildConeAcceleration@?$SwCollision@T__m128@@@cloth@nv@@AEAAXXZ 000000018001c010 f i SwCollision.obj
 0001:0001b080       ?mergeAcceleration@?$SwCollision@T__m128@@@cloth@nv@@CAXPEAI@Z 000000018001c080 f i SwCollision.obj
 0001:0001b110       ?buildAcceleration@?$SwCollision@T__m128@@@cloth@nv@@AEAA_NXZ 000000018001c110 f i SwCollision.obj
 0001:0001b390       ?getShapeMask@?$SwCollision@T__m128@@@cloth@nv@@AEBA?AUShapeMask@123@PEBT__m128@@0@Z 000000018001c390 f i SwCollision.obj
 0001:0001bfd0       ?getShapeMask@?$SwCollision@T__m128@@@cloth@nv@@AEBA?AUShapeMask@123@PEBT__m128@@@Z 000000018001cfd0 f i SwCollision.obj
 0001:0001c5e0       ?getShapeMask@?$SwCollision@T__m128@@@cloth@nv@@CA?AUShapeMask@123@AEBT__m128@@PEBT__m128i@@1@Z 000000018001d5e0 f i SwCollision.obj
 0001:0001c790       ?collideSpheres@?$SwCollision@T__m128@@@cloth@nv@@AEBAXAEBT__m128i@@PEBT__m128@@PEAT5@AEAUImpulseAccumulator@123@@Z 000000018001d790 f i SwCollision.obj
 0001:0001cca0       ?collideSpheres@?$SwCollision@T__m128@@@cloth@nv@@AEBAXAEBT__m128i@@PEBT__m128@@AEAUImpulseAccumulator@123@@Z 000000018001dca0 f i SwCollision.obj
 0001:0001ce60       ?collideCones@?$SwCollision@T__m128@@@cloth@nv@@AEBA?AT__m128i@@PEBT__m128@@PEAT5@AEAUImpulseAccumulator@123@@Z 000000018001de60 f i SwCollision.obj
 0001:0001e4e0       ?collideCones@?$SwCollision@T__m128@@@cloth@nv@@AEBA?AT__m128i@@PEBT__m128@@AEAUImpulseAccumulator@123@@Z 000000018001f4e0 f i SwCollision.obj
 0001:0001ee70       ?collideParticles@?$SwCollision@T__m128@@@cloth@nv@@AEAAXXZ 000000018001fe70 f i SwCollision.obj
 0001:0001f9c0       ?collideVirtualParticles@?$SwCollision@T__m128@@@cloth@nv@@AEAAXXZ 00000001800209c0 f i SwCollision.obj
 0001:00021010       ?collideContinuousParticles@?$SwCollision@T__m128@@@cloth@nv@@AEAAXXZ 0000000180022010 f i SwCollision.obj
 0001:000225b0       ?collideConvexes@?$SwCollision@T__m128@@@cloth@nv@@AEAAXPEBT__m128@@PEAT4@AEAUImpulseAccumulator@123@@Z 00000001800235b0 f i SwCollision.obj
 0001:00022800       ?collideConvexes@?$SwCollision@T__m128@@@cloth@nv@@AEAAXAEBU?$IterationState@T__m128@@@23@@Z 0000000180023800 f i SwCollision.obj
 0001:00022e20       ?collideTriangles@?$SwCollision@T__m128@@@cloth@nv@@AEAAXPEBUTriangleData@23@PEAT__m128@@AEAUImpulseAccumulator@123@@Z 0000000180023e20 f i SwCollision.obj
 0001:000232b0       ?collideTriangles@?$SwCollision@T__m128@@@cloth@nv@@AEAAXAEBU?$IterationState@T__m128@@@23@@Z 00000001800242b0 f i SwCollision.obj
 0001:000235b0       ??4ShapeMask@?$SwCollision@T__m128@@@cloth@nv@@QEAAAEAU0123@AEBU0123@@Z 00000001800245b0 f i SwCollision.obj
 0001:000235d0       ??_4ShapeMask@?$SwCollision@T__m128@@@cloth@nv@@QEAAAEAU0123@AEBU0123@@Z 00000001800245d0 f i SwCollision.obj
 0001:000235f0       ??0CollisionData@?$SwCollision@T__m128@@@cloth@nv@@QEAA@XZ 00000001800245f0 f i SwCollision.obj
 0001:00023600       ?subtract@ImpulseAccumulator@?$SwCollision@T__m128@@@cloth@nv@@QEAAXAEBT__m128@@0000@Z 0000000180024600 f i SwCollision.obj
 0001:00023660       ?addVelocity@ImpulseAccumulator@?$SwCollision@T__m128@@@cloth@nv@@QEAAXAEBT__m128@@000@Z 0000000180024660 f i SwCollision.obj
 0001:000236a0       ?add@ImpulseAccumulator@?$SwCollision@T__m128@@@cloth@nv@@QEAAXAEBT__m128@@0000@Z 00000001800246a0 f i SwCollision.obj
 0001:000236f0       ??0ImpulseAccumulator@?$SwCollision@T__m128@@@cloth@nv@@QEAA@XZ 00000001800246f0 f i SwCollision.obj
 0001:00023720       ??0?$ComplementExpr@T__m128i@@@cloth@nv@@QEAA@AEBT__m128i@@@Z 0000000180024720 f i SwCollision.obj
 0001:00023730       ??0?$ComplementExpr@T__m128@@@cloth@nv@@QEAA@AEBT__m128@@@Z 0000000180024730 f i SwCollision.obj
 0001:000237d0       ??$swap@UCollisionData@?$SwCollision@T__m128@@@cloth@nv@@@ps@cloth@nv@@YAXAEAUCollisionData@?$SwCollision@T__m128@@@12@0@Z 00000001800247d0 f i SwCollision.obj
 0001:000237e0       ??$loadBounds@T__m128@@@cloth@nv@@YA?AU?$BoundingBox@T__m128@@@01@PEBM@Z 00000001800247e0 f i SwCollision.obj
 0001:00023810       ??$splat@$02@cloth@nv@@YA?AT__m128@@AEBT2@@Z 0000000180024810 f i SwCollision.obj
 0001:00023820       ??$emptyBounds@T__m128@@@cloth@nv@@YA?AU?$BoundingBox@T__m128@@@01@XZ 0000000180024820 f i SwCollision.obj
 0001:00023850       ??$expandBounds@T__m128@@@cloth@nv@@YA?AU?$BoundingBox@T__m128@@@01@AEBU201@PEBUSphereData@01@1@Z 0000000180024850 f i SwCollision.obj
 0001:000238a0       ??$expandBounds@T__m128@@@cloth@nv@@YA?AU?$BoundingBox@T__m128@@@01@AEBU201@0@Z 00000001800248a0 f i SwCollision.obj
 0001:000238c0       ??$intersectBounds@T__m128@@@cloth@nv@@YA?AU?$BoundingBox@T__m128@@@01@AEBU201@0@Z 00000001800248c0 f i SwCollision.obj
 0001:000238e0       ??$recip@$00@cloth@nv@@YA?AT__m128@@AEBT2@@Z 00000001800248e0 f i SwCollision.obj
 0001:00023f60       ?getCurrentAlpha@?$IterationState@T__m128@@@cloth@nv@@QEBAMXZ 0000000180024f60 f i SwCollision.obj
 0001:00023f90       ??0?$LerpIterator@T__m128@@V?$UnalignedIterator@T__m128@@$02@cloth@nv@@@cloth@nv@@QEAA@V?$UnalignedIterator@T__m128@@$02@12@0M@Z 0000000180024f90 f i SwCollision.obj
 0001:00023fb0       ??0?$UnalignedIterator@T__m128@@$02@cloth@nv@@QEAA@PEBM@Z 0000000180024fb0 f i SwCollision.obj
 0001:00023fc0       ??0?$LerpIterator@T__m128@@PEBT1@@cloth@nv@@QEAA@PEBT__m128@@0M@Z 0000000180024fc0 f i SwCollision.obj
 0001:00023fe0       ?deallocate@?$StackAllocator@$0BA@@cloth@nv@@QEAAXPEAX@Z 0000000180024fe0 f i SwCollision.obj
 0001:00024020       ?allocate@?$StackAllocator@$0BA@@cloth@nv@@QEAAPEAX_K@Z 0000000180025020 f i SwCollision.obj
 0001:00024070       ?getPreviousAlpha@?$IterationState@T__m128@@@cloth@nv@@QEBAMXZ 0000000180025070 f i SwCollision.obj
 0001:000240a0       ??E?$LerpIterator@T__m128@@V?$UnalignedIterator@T__m128@@$02@cloth@nv@@@cloth@nv@@QEAAAEAV012@XZ 00000001800250a0 f i SwCollision.obj
 0001:000240b0       ??D?$LerpIterator@T__m128@@V?$UnalignedIterator@T__m128@@$02@cloth@nv@@@cloth@nv@@QEBA?AT__m128@@XZ 00000001800250b0 f i SwCollision.obj
 0001:000240d0       ??E?$UnalignedIterator@T__m128@@$02@cloth@nv@@QEAAAEAV012@XZ 00000001800250d0 f i SwCollision.obj
 0001:000240e0       ??D?$UnalignedIterator@T__m128@@$02@cloth@nv@@QEBA?AT__m128@@XZ 00000001800250e0 f i SwCollision.obj
 0001:000240f0       ??E?$LerpIterator@T__m128@@PEBT1@@cloth@nv@@QEAAAEAV012@XZ 00000001800250f0 f i SwCollision.obj
 0001:00024100       ??D?$LerpIterator@T__m128@@PEBT1@@cloth@nv@@QEBA?AT__m128@@XZ 0000000180025100 f i SwCollision.obj
 0001:00024120       ?getHeader@?$StackAllocator@$0BA@@cloth@nv@@AEBAPEAUHeader@123@PEAX@Z 0000000180025120 f i SwCollision.obj
 0001:00024130       ??A?$LerpIterator@T__m128@@V?$UnalignedIterator@T__m128@@$02@cloth@nv@@@cloth@nv@@QEBA?AT__m128@@_K@Z 0000000180025130 f i SwCollision.obj
 0001:00024150       ??A?$UnalignedIterator@T__m128@@$02@cloth@nv@@QEBA?AT__m128@@_K@Z 0000000180025150 f i SwCollision.obj
 0001:00024160       ??A?$LerpIterator@T__m128@@PEBT1@@cloth@nv@@QEBA?AT__m128@@_K@Z 0000000180025160 f i SwCollision.obj
 0001:00024180       ??_ESwFabric@cloth@nv@@UEAAPEAXI@Z 0000000180025180 f i * CIL library *:* CIL module *
 0001:00024180       ??_GSwFabric@cloth@nv@@UEAAPEAXI@Z 0000000180025180 f i SwFabric.obj
 0001:000241e0       ?replaceWithLast@?$Array@PEAVSwFabric@cloth@nv@@VNonTrackingAllocator@ps@23@@ps@cloth@nv@@QEAAXPEAPEAVSwFabric@34@@Z 00000001800251e0 f i SwFabric.obj
 0001:00024200       ?pushBack@?$Array@PEAVSwFabric@cloth@nv@@VNonTrackingAllocator@ps@23@@ps@cloth@nv@@QEAAAEAPEAVSwFabric@34@AEBQEAV534@@Z 0000000180025200 f i SwFabric.obj
 0001:00024240       ?find@?$Array@PEAVSwFabric@cloth@nv@@VNonTrackingAllocator@ps@23@@ps@cloth@nv@@QEAAPEAPEAVSwFabric@34@AEBQEAV534@@Z 0000000180025240 f i SwFabric.obj
 0001:00024270       ?reserve@?$Array@USwTether@cloth@nv@@VNonTrackingAllocator@ps@23@@ps@cloth@nv@@QEAAXI@Z 0000000180025270 f i SwFabric.obj
 0001:00024280       ?pushBack@?$Array@USwTether@cloth@nv@@VNonTrackingAllocator@ps@23@@ps@cloth@nv@@QEAAAEAUSwTether@34@AEBU534@@Z 0000000180025280 f i SwFabric.obj
 0001:000242c0       ??1?$Array@USwTether@cloth@nv@@VNonTrackingAllocator@ps@23@@ps@cloth@nv@@QEAA@XZ 00000001800252c0 f i SwFabric.obj
 0001:000242f0       ??0?$Array@USwTether@cloth@nv@@VNonTrackingAllocator@ps@23@@ps@cloth@nv@@QEAA@AEBVNonTrackingAllocator@123@@Z 00000001800252f0 f i SwFabric.obj
 0001:00024300       ?swap@?$Array@GVNonTrackingAllocator@ps@cloth@nv@@@ps@cloth@nv@@QEAAXAEAV1234@@Z 0000000180025300 f i SwFabric.obj
 0001:00024330       ?pushBack@?$Array@GVNonTrackingAllocator@ps@cloth@nv@@@ps@cloth@nv@@QEAAAEAGAEBG@Z 0000000180025330 f i SwFabric.obj
 0001:00024370       ??0?$Array@GVNonTrackingAllocator@ps@cloth@nv@@@ps@cloth@nv@@QEAA@PEBG0AEBVNonTrackingAllocator@123@@Z 0000000180025370 f i SwFabric.obj
 0001:00024410       ?swap@?$Array@MV?$AlignedAllocator@$0CA@VNonTrackingAllocator@ps@cloth@nv@@@ps@cloth@nv@@@ps@cloth@nv@@QEAAXAEAV1234@@Z 0000000180025410 f i SwFabric.obj
 0001:00024440       ?pushBack@?$Array@MV?$AlignedAllocator@$0CA@VNonTrackingAllocator@ps@cloth@nv@@@ps@cloth@nv@@@ps@cloth@nv@@QEAAAEAMAEBM@Z 0000000180025440 f i SwFabric.obj
 0001:00024480       ?end@?$Array@MV?$AlignedAllocator@$0CA@VNonTrackingAllocator@ps@cloth@nv@@@ps@cloth@nv@@@ps@cloth@nv@@QEAAPEAMXZ 0000000180025480 f i SwFabric.obj
 0001:00024490       ?begin@?$Array@MV?$AlignedAllocator@$0CA@VNonTrackingAllocator@ps@cloth@nv@@@ps@cloth@nv@@@ps@cloth@nv@@QEAAPEAMXZ 0000000180025490 f i SwFabric.obj
 0001:000244a0       ??1?$Array@MV?$AlignedAllocator@$0CA@VNonTrackingAllocator@ps@cloth@nv@@@ps@cloth@nv@@@ps@cloth@nv@@QEAA@XZ 00000001800254a0 f i SwFabric.obj
 0001:000244d0       ??0?$Array@MV?$AlignedAllocator@$0CA@VNonTrackingAllocator@ps@cloth@nv@@@ps@cloth@nv@@@ps@cloth@nv@@QEAA@PEBM0AEBV?$AlignedAllocator@$0CA@VNonTrackingAllocator@ps@cloth@nv@@@123@@Z 00000001800254d0 f i SwFabric.obj
 0001:000245d0       ??0?$Array@MV?$AlignedAllocator@$0CA@VNonTrackingAllocator@ps@cloth@nv@@@ps@cloth@nv@@@ps@cloth@nv@@QEAA@AEBV?$AlignedAllocator@$0CA@VNonTrackingAllocator@ps@cloth@nv@@@123@@Z 00000001800255d0 f i SwFabric.obj
 0001:000245e0       ??0?$AlignedAllocator@$0CA@VNonTrackingAllocator@ps@cloth@nv@@@ps@cloth@nv@@QEAA@AEBVNonTrackingAllocator@123@@Z 00000001800255e0 f i SwFabric.obj
 0001:000245f0       ??$swap@PEAG@ps@cloth@nv@@YAXAEAPEAG0@Z 00000001800255f0 f i SwFabric.obj
 0001:00024600       ??$swap@PEAM@ps@cloth@nv@@YAXAEAPEAM0@Z 0000000180025600 f i SwFabric.obj
 0001:00024610       ?growAndPushBack@?$Array@MV?$AlignedAllocator@$0CA@VNonTrackingAllocator@ps@cloth@nv@@@ps@cloth@nv@@@ps@cloth@nv@@IEAAAEAMAEBM@Z 0000000180025610 f i SwFabric.obj
 0001:00024740       ?growAndPushBack@?$Array@GVNonTrackingAllocator@ps@cloth@nv@@@ps@cloth@nv@@IEAAAEAGAEBG@Z 0000000180025740 f i SwFabric.obj
 0001:00024830       ?growAndPushBack@?$Array@USwTether@cloth@nv@@VNonTrackingAllocator@ps@23@@ps@cloth@nv@@IEAAAEAUSwTether@34@AEBU534@@Z 0000000180025830 f i SwFabric.obj
 0001:00024920       ?growAndPushBack@?$Array@PEAVSwFabric@cloth@nv@@VNonTrackingAllocator@ps@23@@ps@cloth@nv@@IEAAAEAPEAVSwFabric@34@AEBQEAV534@@Z 0000000180025920 f i SwFabric.obj
 0001:00024a10       ?capacity@?$Array@PEAVSwFabric@cloth@nv@@VNonTrackingAllocator@ps@23@@ps@cloth@nv@@QEBAIXZ 0000000180025a10 f i SwFabric.obj
 0001:00024a20       ?replaceWithLast@?$Array@PEAVSwFabric@cloth@nv@@VNonTrackingAllocator@ps@23@@ps@cloth@nv@@QEAAXI@Z 0000000180025a20 f i SwFabric.obj
 0001:00024a40       ?grow@?$Array@USwTether@cloth@nv@@VNonTrackingAllocator@ps@23@@ps@cloth@nv@@IEAAXI@Z 0000000180025a40 f i SwFabric.obj
 0001:00024a50       ?destroy@?$Array@USwTether@cloth@nv@@VNonTrackingAllocator@ps@23@@ps@cloth@nv@@KAXPEAUSwTether@34@0@Z 0000000180025a50 f i SwFabric.obj
 0001:00024a60       ?deallocate@?$Array@USwTether@cloth@nv@@VNonTrackingAllocator@ps@23@@ps@cloth@nv@@IEAAXPEAX@Z 0000000180025a60 f i SwFabric.obj
 0001:00024a80       ?isInUserMemory@?$Array@USwTether@cloth@nv@@VNonTrackingAllocator@ps@23@@ps@cloth@nv@@QEBAIXZ 0000000180025a80 f i SwFabric.obj
 0001:00024a90       ?capacity@?$Array@USwTether@cloth@nv@@VNonTrackingAllocator@ps@23@@ps@cloth@nv@@QEBAIXZ 0000000180025a90 f i SwFabric.obj
 0001:00024aa0       ?destroy@?$Array@MV?$AlignedAllocator@$0CA@VNonTrackingAllocator@ps@cloth@nv@@@ps@cloth@nv@@@ps@cloth@nv@@KAXPEAM0@Z 0000000180025aa0 f i SwFabric.obj
 0001:00024ab0       ?copy@?$Array@MV?$AlignedAllocator@$0CA@VNonTrackingAllocator@ps@cloth@nv@@@ps@cloth@nv@@@ps@cloth@nv@@KAXPEAM0PEBM@Z 0000000180025ab0 f i SwFabric.obj
 0001:00024b10       ?deallocate@?$Array@MV?$AlignedAllocator@$0CA@VNonTrackingAllocator@ps@cloth@nv@@@ps@cloth@nv@@@ps@cloth@nv@@IEAAXPEAX@Z 0000000180025b10 f i SwFabric.obj
 0001:00024b30       ?allocate@?$Array@MV?$AlignedAllocator@$0CA@VNonTrackingAllocator@ps@cloth@nv@@@ps@cloth@nv@@@ps@cloth@nv@@IEAAPEAMI@Z 0000000180025b30 f i SwFabric.obj
 0001:00024b90       ?isInUserMemory@?$Array@MV?$AlignedAllocator@$0CA@VNonTrackingAllocator@ps@cloth@nv@@@ps@cloth@nv@@@ps@cloth@nv@@QEBAIXZ 0000000180025b90 f i SwFabric.obj
 0001:00024ba0       ?capacity@?$Array@MV?$AlignedAllocator@$0CA@VNonTrackingAllocator@ps@cloth@nv@@@ps@cloth@nv@@@ps@cloth@nv@@QEBAIXZ 0000000180025ba0 f i SwFabric.obj
 0001:00024bb0       ?recreate@?$Array@USwTether@cloth@nv@@VNonTrackingAllocator@ps@23@@ps@cloth@nv@@IEAAXI@Z 0000000180025bb0 f i SwFabric.obj
 0001:00024c60       ?capacityIncrement@?$Array@PEAVSwFabric@cloth@nv@@VNonTrackingAllocator@ps@23@@ps@cloth@nv@@IEBAIXZ 0000000180025c60 f i SwFabric.obj
 0001:00024c80       ?destroy@?$Array@PEAVSwFabric@cloth@nv@@VNonTrackingAllocator@ps@23@@ps@cloth@nv@@KAXPEAPEAVSwFabric@34@0@Z 0000000180025c80 f i SwFabric.obj
 0001:00024c90       ?copy@?$Array@PEAVSwFabric@cloth@nv@@VNonTrackingAllocator@ps@23@@ps@cloth@nv@@KAXPEAPEAVSwFabric@34@0PEBQEAV534@@Z 0000000180025c90 f i SwFabric.obj
 0001:00024cc0       ?deallocate@?$Array@PEAVSwFabric@cloth@nv@@VNonTrackingAllocator@ps@23@@ps@cloth@nv@@IEAAXPEAX@Z 0000000180025cc0 f i SwFabric.obj
 0001:00024ce0       ?allocate@?$Array@PEAVSwFabric@cloth@nv@@VNonTrackingAllocator@ps@23@@ps@cloth@nv@@IEAAPEAPEAVSwFabric@34@I@Z 0000000180025ce0 f i SwFabric.obj
 0001:00024d30       ?isInUserMemory@?$Array@PEAVSwFabric@cloth@nv@@VNonTrackingAllocator@ps@23@@ps@cloth@nv@@QEBAIXZ 0000000180025d30 f i SwFabric.obj
 0001:00024d40       ?capacityIncrement@?$Array@USwTether@cloth@nv@@VNonTrackingAllocator@ps@23@@ps@cloth@nv@@IEBAIXZ 0000000180025d40 f i SwFabric.obj
 0001:00024d60       ?copy@?$Array@USwTether@cloth@nv@@VNonTrackingAllocator@ps@23@@ps@cloth@nv@@KAXPEAUSwTether@34@0PEBU534@@Z 0000000180025d60 f i SwFabric.obj
 0001:00024d90       ?allocate@?$Array@USwTether@cloth@nv@@VNonTrackingAllocator@ps@23@@ps@cloth@nv@@IEAAPEAUSwTether@34@I@Z 0000000180025d90 f i SwFabric.obj
 0001:00024de0       ?capacityIncrement@?$Array@GVNonTrackingAllocator@ps@cloth@nv@@@ps@cloth@nv@@IEBAIXZ 0000000180025de0 f i SwFabric.obj
 0001:00024e00       ?capacityIncrement@?$Array@MV?$AlignedAllocator@$0CA@VNonTrackingAllocator@ps@cloth@nv@@@ps@cloth@nv@@@ps@cloth@nv@@IEBAIXZ 0000000180025e00 f i SwFabric.obj
 0001:00024e20       ?deallocate@?$AlignedAllocator@$0CA@VNonTrackingAllocator@ps@cloth@nv@@@ps@cloth@nv@@QEAAXPEAX@Z 0000000180025e20 f i SwFabric.obj
 0001:00024e40       ?allocate@?$AlignedAllocator@$0CA@VNonTrackingAllocator@ps@cloth@nv@@@ps@cloth@nv@@QEAAPEAX_KPEBDH@Z 0000000180025e40 f i SwFabric.obj
 0001:00024ea0       ?getPlatform@SwFactory@cloth@nv@@UEBA?AW4Platform@23@XZ 0000000180025ea0 f i SwFactory.obj
 0001:00024eb0       ??_ESwFactory@cloth@nv@@UEAAPEAXI@Z 0000000180025eb0 f i * CIL library *:* CIL module *
 0001:00024eb0       ??_GSwFactory@cloth@nv@@UEAAPEAXI@Z 0000000180025eb0 f i SwFactory.obj
 0001:00024f40       ??$max@G@std@@YAAEBGAEBG0@Z 0000000180025f40 f i SwFactory.obj
 0001:00024f50       ?size@?$Range@VPxVec4@physx@@@cloth@nv@@QEBAIXZ 0000000180025f50 f i SwFactory.obj
 0001:00024f60       ?end@?$Array@U?$Vec4T@G@cloth@nv@@VNonTrackingAllocator@ps@23@@ps@cloth@nv@@QEBAPEBU?$Vec4T@G@34@XZ 0000000180025f60 f i SwFactory.obj
 0001:00024f70       ?front@?$Array@UIndexPair@cloth@nv@@VNonTrackingAllocator@ps@23@@ps@cloth@nv@@QEBAAEBUIndexPair@34@XZ 0000000180025f70 f i SwFactory.obj
 0001:00024f80       ?front@?$Array@VPxVec3@physx@@VNonTrackingAllocator@ps@cloth@nv@@@ps@cloth@nv@@QEBAAEBVPxVec3@physx@@XZ 0000000180025f80 f i SwFactory.obj
 0001:00024f90       ??A?$Array@USwTether@cloth@nv@@VNonTrackingAllocator@ps@23@@ps@cloth@nv@@QEBAAEBUSwTether@23@I@Z 0000000180025f90 f i SwFactory.obj
 0001:00024fa0       ??A?$Array@GVNonTrackingAllocator@ps@cloth@nv@@@ps@cloth@nv@@QEBAAEBGI@Z 0000000180025fa0 f i SwFactory.obj
 0001:00024fb0       ?end@?$Array@IVNonTrackingAllocator@ps@cloth@nv@@@ps@cloth@nv@@QEBAPEBIXZ 0000000180025fb0 f i SwFactory.obj
 0001:00024fc0       ??A?$Array@IVNonTrackingAllocator@ps@cloth@nv@@@ps@cloth@nv@@QEBAAEBII@Z 0000000180025fc0 f i SwFactory.obj
 0001:00024fd0       ?begin@?$Array@MV?$AlignedAllocator@$0CA@VNonTrackingAllocator@ps@cloth@nv@@@ps@cloth@nv@@@ps@cloth@nv@@QEBAPEBMXZ 0000000180025fd0 f i SwFactory.obj
 0001:00024fe0       ??1?$Array@PEAVSwFabric@cloth@nv@@VNonTrackingAllocator@ps@23@@ps@cloth@nv@@QEAA@XZ 0000000180025fe0 f i SwFactory.obj
 0001:00025010       ??0?$Array@PEAVSwFabric@cloth@nv@@VNonTrackingAllocator@ps@23@@ps@cloth@nv@@QEAA@AEBVNonTrackingAllocator@123@@Z 0000000180026010 f i SwFactory.obj
 0001:00025020       fabsf                      0000000180026020 f i SwInterCollision.obj
 0001:00025030       ?allGreater@cloth@nv@@YAHAEBT__m128@@0@Z 0000000180026030 f i SwInterCollision.obj
 0001:00025050       ?anyGreater@cloth@nv@@YAHAEBT__m128@@0@Z 0000000180026050 f i SwInterCollision.obj
 0001:00025060       ?array@cloth@nv@@YAAEAY03$$CBHAEBT__m128i@@@Z 0000000180026060 f i SwInterCollision.obj
 0001:00025070       ?abs@intrinsics@physx@@YAMM@Z 0000000180026070 f i SwInterCollision.obj
 0001:00025080       ?memCopy@intrinsics@physx@@YAPEAXPEAXPEBXI@Z 0000000180026080 f i SwInterCollision.obj
 0001:00025090       ?PxAbs@physx@@YAMM@Z       0000000180026090 f i SwInterCollision.obj
 0001:000250a0       ??GPxVec3@physx@@QEBA?AV01@XZ 00000001800260a0 f i SwInterCollision.obj
 0001:000250e0       ??HPxVec3@physx@@QEBA?AV01@AEBV01@@Z 00000001800260e0 f i SwInterCollision.obj
 0001:00025120       ?rotate@PxQuat@physx@@QEBA?BVPxVec3@2@AEBV32@@Z 0000000180026120 f i SwInterCollision.obj
 0001:00025280       ?rotateInv@PxQuat@physx@@QEBA?BVPxVec3@2@AEBV32@@Z 0000000180026280 f i SwInterCollision.obj
 0001:000253e0       ??0PxTransform@physx@@QEAA@AEBVPxVec3@1@AEBVPxQuat@1@@Z 00000001800263e0 f i SwInterCollision.obj
 0001:00025410       ??DPxTransform@physx@@QEBA?AV01@AEBV01@@Z 0000000180026410 f i SwInterCollision.obj
 0001:000255b0       ?getInverse@PxTransform@physx@@QEBA?AV12@XZ 00000001800265b0 f i SwInterCollision.obj
 0001:00025740       ?transform@PxTransform@physx@@QEBA?AVPxVec3@2@AEBV32@@Z 0000000180026740 f i SwInterCollision.obj
 0001:000258b0       ?transform@PxTransform@physx@@QEBA?AV12@AEBV12@@Z 00000001800268b0 f i SwInterCollision.obj
 0001:00025a50       ??0PxMat33@physx@@QEAA@AEBVPxQuat@1@@Z 0000000180026a50 f i SwInterCollision.obj
 0001:00025ba0       ??0PxMat44@physx@@QEAA@AEBVPxMat33@1@AEBVPxVec3@1@@Z 0000000180026ba0 f i SwInterCollision.obj
 0001:00025c10       ??0PxMat44@physx@@QEAA@AEBVPxTransform@1@@Z 0000000180026c10 f i SwInterCollision.obj
 0001:00025d90       ??4PxMat44@physx@@QEAAAEAV01@AEBV01@@Z 0000000180026d90 f i SwInterCollision.obj
 0001:00025e00       ??0PxBounds3@physx@@QEAA@AEBVPxVec3@1@0@Z 0000000180026e00 f i SwInterCollision.obj
 0001:00025e30       ?centerExtents@PxBounds3@physx@@SA?AV12@AEBVPxVec3@2@0@Z 0000000180026e30 f i SwInterCollision.obj
 0001:00025eb0       ?basisExtent@PxBounds3@physx@@SA?AV12@AEBVPxVec3@2@AEBVPxMat33@2@0@Z 0000000180026eb0 f i SwInterCollision.obj
 0001:00025fb0       ?getCenter@PxBounds3@physx@@QEBA?AVPxVec3@2@XZ 0000000180026fb0 f i SwInterCollision.obj
 0001:00026000       ?getDimensions@PxBounds3@physx@@QEBA?AVPxVec3@2@XZ 0000000180027000 f i SwInterCollision.obj
 0001:00026030       ?getExtents@PxBounds3@physx@@QEBA?AVPxVec3@2@XZ 0000000180027030 f i SwInterCollision.obj
 0001:00026080       ?transformFast@PxBounds3@physx@@SA?AV12@AEBVPxTransform@2@AEBV12@@Z 0000000180027080 f i SwInterCollision.obj
 0001:00026460       ??0?$SwInterCollision@T__m128@@@cloth@nv@@QEAA@PEBUSwInterCollisionData@12@IMMIP6A_NPEAX1@ZAEAV?$StackAllocator@$0BA@@12@@Z 0000000180027460 f i SwInterCollision.obj
 0001:00026510       ??1?$SwInterCollision@T__m128@@@cloth@nv@@QEAA@XZ 0000000180027510 f i SwInterCollision.obj
 0001:00026520       ??R?$SwInterCollision@T__m128@@@cloth@nv@@QEAAXXZ 0000000180027520 f i SwInterCollision.obj
 0001:00027100       ?estimateTemporaryMemory@?$SwInterCollision@T__m128@@@cloth@nv@@SA_KPEAUSwInterCollisionData@23@I@Z 0000000180028100 f i SwInterCollision.obj
 0001:000272c0       ?getBufferSize@?$SwInterCollision@T__m128@@@cloth@nv@@CA_KI@Z 00000001800282c0 f i SwInterCollision.obj
 0001:000272e0       ?collideParticles@?$SwInterCollision@T__m128@@@cloth@nv@@AEAAXPEBII0II@Z 00000001800282e0 f i SwInterCollision.obj
 0001:000279a0       ?getParticle@?$SwInterCollision@T__m128@@@cloth@nv@@AEAAAEAT__m128@@I@Z 00000001800289a0 f i SwInterCollision.obj
 0001:000279d0       ?collideParticle@?$SwInterCollision@T__m128@@@cloth@nv@@AEAAXI@Z 00000001800289d0 f i SwInterCollision.obj
 0001:00028920       ??$max@PEAI@std@@YAAEBQEAIAEBQEAI0@Z 0000000180029920 f i SwInterCollision.obj
 0001:000289b0       ??$rsqrt@$00@cloth@nv@@YA?AT__m128@@AEBT2@@Z 00000001800299b0 f i SwInterCollision.obj
 0001:00028f50       ??$isEmptyBounds@T__m128@@@cloth@nv@@YA_NAEBU?$BoundingBox@T__m128@@@01@@Z 0000000180029f50 f i SwInterCollision.obj
 0001:00028f70       ??$expandBounds@T__m128@@@cloth@nv@@YA?AU?$BoundingBox@T__m128@@@01@AEBU201@PEBT__m128@@1@Z 0000000180029f70 f i SwInterCollision.obj
 0001:000292d0       ?empty@?$Stack@VNonTrackingAllocator@ps@cloth@nv@@@internal@ps@cloth@nv@@QEAA_NXZ 000000018002a2d0 f i SwInterCollision.obj
 0001:000292e0       ?pop@?$Stack@VNonTrackingAllocator@ps@cloth@nv@@@internal@ps@cloth@nv@@QEAAXAEAH0@Z 000000018002a2e0 f i SwInterCollision.obj
 0001:00029310       ?push@?$Stack@VNonTrackingAllocator@ps@cloth@nv@@@internal@ps@cloth@nv@@QEAAXHH@Z 000000018002a310 f i SwInterCollision.obj
 0001:000293f0       ??1?$Stack@VNonTrackingAllocator@ps@cloth@nv@@@internal@ps@cloth@nv@@QEAA@XZ 000000018002a3f0 f i SwInterCollision.obj
 0001:00029410       ??0?$Stack@VNonTrackingAllocator@ps@cloth@nv@@@internal@ps@cloth@nv@@QEAA@PEAHIAEBVNonTrackingAllocator@234@@Z 000000018002a410 f i SwInterCollision.obj
 0001:00029430       ??B?$ScopedPointer@HX@ps@cloth@nv@@QEBAPEAHXZ 000000018002a430 f i SwInterCollision.obj
 0001:00029440       ??1?$ScopedPointer@HX@ps@cloth@nv@@QEAA@XZ 000000018002a440 f i SwInterCollision.obj
 0001:00029540       ?grow@?$Stack@VNonTrackingAllocator@ps@cloth@nv@@@internal@ps@cloth@nv@@QEAAXXZ 000000018002a540 f i SwInterCollision.obj
 0001:000295d0       ??0?$SwSelfCollision@T__m128@@@cloth@nv@@QEAA@AEAUSwClothData@12@AEAV?$StackAllocator@$0BA@@12@@Z 000000018002a5d0 f i SwSelfCollision.obj
 0001:00029620       ??1?$SwSelfCollision@T__m128@@@cloth@nv@@QEAA@XZ 000000018002a620 f i SwSelfCollision.obj
 0001:00029630       ??R?$SwSelfCollision@T__m128@@@cloth@nv@@QEAAXXZ 000000018002a630 f i SwSelfCollision.obj
 0001:00029a40       ?estimateTemporaryMemory@?$SwSelfCollision@T__m128@@@cloth@nv@@SA_KAEBVSwCloth@23@@Z 000000018002aa40 f i SwSelfCollision.obj
 0001:00029aa0       ?getBufferSize@?$SwSelfCollision@T__m128@@@cloth@nv@@CA_KI@Z 000000018002aaa0 f i SwSelfCollision.obj
 0001:00029b00       ??$collideParticles@$00@?$SwSelfCollision@T__m128@@@cloth@nv@@AEAAXPEBIGPEBGI@Z 000000018002ab00 f i SwSelfCollision.obj
 0001:0002a000       ??$collideParticles@$0A@@?$SwSelfCollision@T__m128@@@cloth@nv@@AEAAXPEBIGPEBGI@Z 000000018002b000 f i SwSelfCollision.obj
 0001:0002a470       ??$collideParticles@$00@?$SwSelfCollision@T__m128@@@cloth@nv@@AEAAXAEAT__m128@@0AEBT3@1@Z 000000018002b470 f i SwSelfCollision.obj
 0001:0002a560       ??$collideParticles@$0A@@?$SwSelfCollision@T__m128@@@cloth@nv@@AEAAXAEAT__m128@@0AEBT3@1@Z 000000018002b560 f i SwSelfCollision.obj
 0001:0002a610       ?setInterCollisionDistance@SwSolver@cloth@nv@@UEAAXM@Z 000000018002b610 f i SwSolver.obj
 0001:0002a620       ?getInterCollisionDistance@SwSolver@cloth@nv@@UEBAMXZ 000000018002b620 f i SwSolver.obj
 0001:0002a630       ?setInterCollisionStiffness@SwSolver@cloth@nv@@UEAAXM@Z 000000018002b630 f i SwSolver.obj
 0001:0002a640       ?getInterCollisionStiffness@SwSolver@cloth@nv@@UEBAMXZ 000000018002b640 f i SwSolver.obj
 0001:0002a650       ?setInterCollisionNbIterations@SwSolver@cloth@nv@@UEAAXI@Z 000000018002b650 f i SwSolver.obj
 0001:0002a660       ?getInterCollisionNbIterations@SwSolver@cloth@nv@@UEBAIXZ 000000018002b660 f i SwSolver.obj
 0001:0002a670       ?setInterCollisionFilter@SwSolver@cloth@nv@@UEAAXP6A_NPEAX0@Z@Z 000000018002b670 f i SwSolver.obj
 0001:0002a680       ?hasError@SwSolver@cloth@nv@@UEBA_NXZ 000000018002b680 f i SwSolver.obj
 0001:0002a690       ??4FPUGuard@ps@cloth@nv@@QEAAAEAV0123@AEBV0123@@Z 000000018002b690 f i SwSolver.obj
 0001:0002a6b0       ??0SIMDGuard@ps@cloth@nv@@QEAA@XZ 000000018002b6b0 f i SwSolver.obj
 0001:0002a6d0       ??1SIMDGuard@ps@cloth@nv@@QEAA@XZ 000000018002b6d0 f i SwSolver.obj
 0001:0002a6e0       ??_ESwSolver@cloth@nv@@UEAAPEAXI@Z 000000018002b6e0 f i * CIL library *:* CIL module *
 0001:0002a6e0       ??_GSwSolver@cloth@nv@@UEAAPEAXI@Z 000000018002b6e0 f i SwSolver.obj
 0001:0002a7d0       ??1?$SwSolverKernel@T__m128@@@cloth@nv@@QEAA@XZ 000000018002b7d0 f i SwSolver.obj
 0001:0002a830       ??$swap@VPxVec3@physx@@VNonTrackingAllocator@ps@cloth@nv@@@ps@cloth@nv@@YAXAEAV?$Array@VPxVec3@physx@@VNonTrackingAllocator@ps@cloth@nv@@@012@0@Z 000000018002b830 f i SwSolver.obj
 0001:0002a860       ??$?0VSwCloth@cloth@nv@@@IterationStateFactory@cloth@nv@@QEAA@AEAVSwCloth@12@M@Z 000000018002b860 f i SwSolver.obj
 0001:0002abc0       ?replaceWithLast@?$Array@PEAVSwCloth@cloth@nv@@VNonTrackingAllocator@ps@23@@ps@cloth@nv@@QEAAXPEAPEAVSwCloth@34@@Z 000000018002bbc0 f i SwSolver.obj
 0001:0002abe0       ?pushBack@?$Array@PEAVSwCloth@cloth@nv@@VNonTrackingAllocator@ps@23@@ps@cloth@nv@@QEAAAEAPEAVSwCloth@34@AEBQEAV534@@Z 000000018002bbe0 f i SwSolver.obj
 0001:0002ac20       ?find@?$Array@PEAVSwCloth@cloth@nv@@VNonTrackingAllocator@ps@23@@ps@cloth@nv@@QEAAPEAPEAVSwCloth@34@AEBQEAV534@@Z 000000018002bc20 f i SwSolver.obj
 0001:0002ac50       ?size@?$Array@PEAVSwCloth@cloth@nv@@VNonTrackingAllocator@ps@23@@ps@cloth@nv@@QEBAIXZ 000000018002bc50 f i SwSolver.obj
 0001:0002ac60       ?end@?$Array@PEAVSwCloth@cloth@nv@@VNonTrackingAllocator@ps@23@@ps@cloth@nv@@QEAAPEAPEAVSwCloth@34@XZ 000000018002bc60 f i SwSolver.obj
 0001:0002ac70       ??A?$Array@PEAVSwCloth@cloth@nv@@VNonTrackingAllocator@ps@23@@ps@cloth@nv@@QEBAAEBQEAVSwCloth@23@I@Z 000000018002bc70 f i SwSolver.obj
 0001:0002ac80       ??1?$Array@PEAVSwCloth@cloth@nv@@VNonTrackingAllocator@ps@23@@ps@cloth@nv@@QEAA@XZ 000000018002bc80 f i SwSolver.obj
 0001:0002acb0       ??0?$Array@PEAVSwCloth@cloth@nv@@VNonTrackingAllocator@ps@23@@ps@cloth@nv@@QEAA@AEBVNonTrackingAllocator@123@@Z 000000018002bcb0 f i SwSolver.obj
 0001:0002acc0       ?replaceWithLast@?$Array@USimulatedCloth@SwSolver@cloth@nv@@VNonTrackingAllocator@ps@34@@ps@cloth@nv@@QEAAXPEAUSimulatedCloth@SwSolver@34@@Z 000000018002bcc0 f i SwSolver.obj
 0001:0002ad10       ?pushBack@?$Array@USimulatedCloth@SwSolver@cloth@nv@@VNonTrackingAllocator@ps@34@@ps@cloth@nv@@QEAAAEAUSimulatedCloth@SwSolver@34@AEBU5634@@Z 000000018002bd10 f i SwSolver.obj
 0001:0002ad70       ?empty@?$Array@USimulatedCloth@SwSolver@cloth@nv@@VNonTrackingAllocator@ps@34@@ps@cloth@nv@@QEBA_NXZ 000000018002bd70 f i SwSolver.obj
 0001:0002ad80       ?size@?$Array@USimulatedCloth@SwSolver@cloth@nv@@VNonTrackingAllocator@ps@34@@ps@cloth@nv@@QEBAIXZ 000000018002bd80 f i SwSolver.obj
 0001:0002ad90       ?end@?$Array@USimulatedCloth@SwSolver@cloth@nv@@VNonTrackingAllocator@ps@34@@ps@cloth@nv@@QEAAPEAUSimulatedCloth@SwSolver@34@XZ 000000018002bd90 f i SwSolver.obj
 0001:0002ada0       ?begin@?$Array@USimulatedCloth@SwSolver@cloth@nv@@VNonTrackingAllocator@ps@34@@ps@cloth@nv@@QEAAPEAUSimulatedCloth@SwSolver@34@XZ 000000018002bda0 f i SwSolver.obj
 0001:0002adb0       ??A?$Array@USimulatedCloth@SwSolver@cloth@nv@@VNonTrackingAllocator@ps@34@@ps@cloth@nv@@QEAAAEAUSimulatedCloth@SwSolver@23@I@Z 000000018002bdb0 f i SwSolver.obj
 0001:0002adc0       ??1?$Array@USimulatedCloth@SwSolver@cloth@nv@@VNonTrackingAllocator@ps@34@@ps@cloth@nv@@QEAA@XZ 000000018002bdc0 f i SwSolver.obj
 0001:0002adf0       ??0?$Array@USimulatedCloth@SwSolver@cloth@nv@@VNonTrackingAllocator@ps@34@@ps@cloth@nv@@QEAA@AEBVNonTrackingAllocator@123@@Z 000000018002bdf0 f i SwSolver.obj
 0001:0002ae20       ??$sort@USimulatedCloth@SwSolver@cloth@nv@@P6A_NAEBU1234@0@ZVNonTrackingAllocator@ps@34@@ps@cloth@nv@@YAXPEAUSimulatedCloth@SwSolver@12@IAEBQ6A_NAEBU3412@1@ZAEBVNonTrackingAllocator@012@I@Z 000000018002be20 f i SwSolver.obj
 0001:0002b410       ?growAndPushBack@?$Array@USimulatedCloth@SwSolver@cloth@nv@@VNonTrackingAllocator@ps@34@@ps@cloth@nv@@IEAAAEAUSimulatedCloth@SwSolver@34@AEBU5634@@Z 000000018002c410 f i SwSolver.obj
 0001:0002b520       ?growAndPushBack@?$Array@PEAVSwCloth@cloth@nv@@VNonTrackingAllocator@ps@23@@ps@cloth@nv@@IEAAAEAPEAVSwCloth@34@AEBQEAV534@@Z 000000018002c520 f i SwSolver.obj
 0001:0002b610       ?swap@?$Array@VPxVec3@physx@@VNonTrackingAllocator@ps@cloth@nv@@@ps@cloth@nv@@QEAAXAEAV1234@@Z 000000018002c610 f i SwSolver.obj
 0001:0002b640       ?destroy@?$Array@PEAVSwCloth@cloth@nv@@VNonTrackingAllocator@ps@23@@ps@cloth@nv@@KAXPEAPEAVSwCloth@34@0@Z 000000018002c640 f i SwSolver.obj
 0001:0002b650       ?deallocate@?$Array@PEAVSwCloth@cloth@nv@@VNonTrackingAllocator@ps@23@@ps@cloth@nv@@IEAAXPEAX@Z 000000018002c650 f i SwSolver.obj
 0001:0002b670       ?isInUserMemory@?$Array@PEAVSwCloth@cloth@nv@@VNonTrackingAllocator@ps@23@@ps@cloth@nv@@QEBAIXZ 000000018002c670 f i SwSolver.obj
 0001:0002b680       ?capacity@?$Array@PEAVSwCloth@cloth@nv@@VNonTrackingAllocator@ps@23@@ps@cloth@nv@@QEBAIXZ 000000018002c680 f i SwSolver.obj
 0001:0002b690       ?replaceWithLast@?$Array@PEAVSwCloth@cloth@nv@@VNonTrackingAllocator@ps@23@@ps@cloth@nv@@QEAAXI@Z 000000018002c690 f i SwSolver.obj
 0001:0002b6b0       ?destroy@?$Array@USimulatedCloth@SwSolver@cloth@nv@@VNonTrackingAllocator@ps@34@@ps@cloth@nv@@KAXPEAUSimulatedCloth@SwSolver@34@0@Z 000000018002c6b0 f i SwSolver.obj
 0001:0002b6c0       ?deallocate@?$Array@USimulatedCloth@SwSolver@cloth@nv@@VNonTrackingAllocator@ps@34@@ps@cloth@nv@@IEAAXPEAX@Z 000000018002c6c0 f i SwSolver.obj
 0001:0002b6e0       ?isInUserMemory@?$Array@USimulatedCloth@SwSolver@cloth@nv@@VNonTrackingAllocator@ps@34@@ps@cloth@nv@@QEBAIXZ 000000018002c6e0 f i SwSolver.obj
 0001:0002b6f0       ?capacity@?$Array@USimulatedCloth@SwSolver@cloth@nv@@VNonTrackingAllocator@ps@34@@ps@cloth@nv@@QEBAIXZ 000000018002c6f0 f i SwSolver.obj
 0001:0002b700       ?replaceWithLast@?$Array@USimulatedCloth@SwSolver@cloth@nv@@VNonTrackingAllocator@ps@34@@ps@cloth@nv@@QEAAXI@Z 000000018002c700 f i SwSolver.obj
 0001:0002b740       ??$smallSort@USimulatedCloth@SwSolver@cloth@nv@@Q6A_NAEBU1234@0@Z@internal@ps@cloth@nv@@YAXPEAUSimulatedCloth@SwSolver@23@HHAEBQ6A_NAEBU4523@1@Z@Z 000000018002c740 f i SwSolver.obj
 0001:0002b8a0       ??$partition@USimulatedCloth@SwSolver@cloth@nv@@Q6A_NAEBU1234@0@Z@internal@ps@cloth@nv@@YAHPEAUSimulatedCloth@SwSolver@23@HHAEBQ6A_NAEBU4523@1@Z@Z 000000018002c8a0 f i SwSolver.obj
 0001:0002bae0       ?capacityIncrement@?$Array@PEAVSwCloth@cloth@nv@@VNonTrackingAllocator@ps@23@@ps@cloth@nv@@IEBAIXZ 000000018002cae0 f i SwSolver.obj
 0001:0002bb00       ?copy@?$Array@PEAVSwCloth@cloth@nv@@VNonTrackingAllocator@ps@23@@ps@cloth@nv@@KAXPEAPEAVSwCloth@34@0PEBQEAV534@@Z 000000018002cb00 f i SwSolver.obj
 0001:0002bb30       ?allocate@?$Array@PEAVSwCloth@cloth@nv@@VNonTrackingAllocator@ps@23@@ps@cloth@nv@@IEAAPEAPEAVSwCloth@34@I@Z 000000018002cb30 f i SwSolver.obj
 0001:0002bb80       ?capacityIncrement@?$Array@USimulatedCloth@SwSolver@cloth@nv@@VNonTrackingAllocator@ps@34@@ps@cloth@nv@@IEBAIXZ 000000018002cb80 f i SwSolver.obj
 0001:0002bba0       ?copy@?$Array@USimulatedCloth@SwSolver@cloth@nv@@VNonTrackingAllocator@ps@34@@ps@cloth@nv@@KAXPEAUSimulatedCloth@SwSolver@34@0PEBU5634@@Z 000000018002cba0 f i SwSolver.obj
 0001:0002bbe0       ?allocate@?$Array@USimulatedCloth@SwSolver@cloth@nv@@VNonTrackingAllocator@ps@34@@ps@cloth@nv@@IEAAPEAUSimulatedCloth@SwSolver@34@I@Z 000000018002cbe0 f i SwSolver.obj
 0001:0002bc30       ??$swap@USimulatedCloth@SwSolver@cloth@nv@@@ps@cloth@nv@@YAXAEAUSimulatedCloth@SwSolver@12@0@Z 000000018002cc30 f i SwSolver.obj
 0001:0002bc70       ??$median3@USimulatedCloth@SwSolver@cloth@nv@@Q6A_NAEBU1234@0@Z@internal@ps@cloth@nv@@YAXPEAUSimulatedCloth@SwSolver@23@HHAEBQ6A_NAEBU4523@1@Z@Z 000000018002cc70 f i SwSolver.obj
 0001:0002bdd0       ??Kcloth@nv@@YA?AT__m128@@AEBT2@0@Z 000000018002cdd0 f i SwSolverKernel.obj
 0001:0002bde0       ?anyGreaterEqual@cloth@nv@@YAHAEBT__m128@@0@Z 000000018002cde0 f i SwSolverKernel.obj
 0001:0002bdf0       ??0?$SwSolverKernel@T__m128@@@cloth@nv@@QEAA@AEBVSwCloth@12@AEAUSwClothData@12@AEAV?$StackAllocator@$0BA@@12@AEAUIterationStateFactory@12@@Z 000000018002cdf0 f i SwSolverKernel.obj
 0001:0002bf60       ??R?$SwSolverKernel@T__m128@@@cloth@nv@@QEAAXXZ 000000018002cf60 f i SwSolverKernel.obj
 0001:0002bf70       ?estimateTemporaryMemory@?$SwSolverKernel@T__m128@@@cloth@nv@@SA_KAEBVSwCloth@23@@Z 000000018002cf70 f i SwSolverKernel.obj
 0001:0002c020       ?integrateParticles@?$SwSolverKernel@T__m128@@@cloth@nv@@AEAAXXZ 000000018002d020 f i SwSolverKernel.obj
 0001:0002c360       ?constrainTether@?$SwSolverKernel@T__m128@@@cloth@nv@@AEAAXXZ 000000018002d360 f i SwSolverKernel.obj
 0001:0002c5e0       ?solveFabric@?$SwSolverKernel@T__m128@@@cloth@nv@@AEAAXXZ 000000018002d5e0 f i SwSolverKernel.obj
 0001:0002ca10       ?applyWind@?$SwSolverKernel@T__m128@@@cloth@nv@@AEAAXXZ 000000018002da10 f i SwSolverKernel.obj
 0001:0002cba0       ?constrainMotion@?$SwSolverKernel@T__m128@@@cloth@nv@@AEAAXXZ 000000018002dba0 f i SwSolverKernel.obj
 0001:0002cd30       ?constrainSeparation@?$SwSolverKernel@T__m128@@@cloth@nv@@AEAAXXZ 000000018002dd30 f i SwSolverKernel.obj
 0001:0002ce80       ?collideParticles@?$SwSolverKernel@T__m128@@@cloth@nv@@AEAAXXZ 000000018002de80 f i SwSolverKernel.obj
 0001:0002cf30       ?selfCollideParticles@?$SwSolverKernel@T__m128@@@cloth@nv@@AEAAXXZ 000000018002df30 f i SwSolverKernel.obj
 0001:0002cfd0       ?updateSleepState@?$SwSolverKernel@T__m128@@@cloth@nv@@AEAAXXZ 000000018002dfd0 f i SwSolverKernel.obj
 0001:0002d130       ?iterateCloth@?$SwSolverKernel@T__m128@@@cloth@nv@@AEAAXXZ 000000018002e130 f i SwSolverKernel.obj
 0001:0002d710       ?simulateCloth@?$SwSolverKernel@T__m128@@@cloth@nv@@AEAAXXZ 000000018002e710 f i SwSolverKernel.obj
 0001:0002d8a0       ??$create@T__m128@@VSwCloth@cloth@nv@@@IterationStateFactory@cloth@nv@@QEBA?AU?$IterationState@T__m128@@@12@AEBVSwCloth@12@@Z 000000018002e8a0 f i SwSolverKernel.obj
 0001:0002e4f0       ??$integrateParticles@V?$ConstantIterator@T__m128@@@cloth@nv@@@?$SwSolverKernel@T__m128@@@cloth@nv@@AEAAXAEAV?$ConstantIterator@T__m128@@@12@AEBT__m128@@@Z 000000018002f4f0 f i SwSolverKernel.obj
 0001:0002e5d0       ??$integrateParticles@V?$ScaleBiasIterator@T__m128@@PEBT1@@cloth@nv@@@?$SwSolverKernel@T__m128@@@cloth@nv@@AEAAXAEAV?$ScaleBiasIterator@T__m128@@PEBT1@@12@AEBT__m128@@@Z 000000018002f5d0 f i SwSolverKernel.obj
 0001:0002ff90       ??0?$ScaleBiasIterator@T__m128@@PEBT1@@cloth@nv@@QEAA@PEBT__m128@@AEBT3@1@Z 0000000180030f90 f i SwSolverKernel.obj
 0001:0002ffb0       ??0?$ConstantIterator@T__m128@@@cloth@nv@@QEAA@AEBT__m128@@@Z 0000000180030fb0 f i SwSolverKernel.obj
 0001:000304e0       ??$PX_UNUSED@PEIBM@@YAXAEBQEIBM@Z 00000001800314e0 f i SwSolverKernel.obj
 0001:000304f0       ??$PX_UNUSED@T__m128@@@@YAXAEBT__m128@@@Z 00000001800314f0 f i SwSolverKernel.obj
 0001:00030500       ??$transform@T__m128@@@cloth@nv@@YA?AT__m128@@AEAY02$$CBT2@AEBT2@1@Z 0000000180031500 f i SwSolverKernel.obj
 0001:00030530       ??E?$ScaleBiasIterator@T__m128@@PEBT1@@cloth@nv@@QEAAAEAV012@XZ 0000000180031530 f i SwSolverKernel.obj
 0001:00030540       ??D?$ScaleBiasIterator@T__m128@@PEBT1@@cloth@nv@@QEBA?AT__m128@@XZ 0000000180031540 f i SwSolverKernel.obj
 0001:00030560       ??E?$ConstantIterator@T__m128@@@cloth@nv@@QEAAAEAV012@XZ 0000000180031560 f i SwSolverKernel.obj
 0001:00030570       ??D?$ConstantIterator@T__m128@@@cloth@nv@@QEBA?AT__m128@@XZ 0000000180031570 f i SwSolverKernel.obj
 0001:00030580       ??_GTripletScheduler@cloth@nv@@QEAAPEAXI@Z 0000000180031580 f i TripletScheduler.obj
 0001:000305b0       ??_GTripletSchedulerTestInterface@cloth@nv@@QEAAPEAXI@Z 00000001800315b0 f i TripletScheduler.obj
 0001:00030600       ??$PX_UNUSED@I@@YAXAEBI@Z  0000000180031600 f i TripletScheduler.obj
 0001:00030610       ??$iter_swap@PEAU?$Vec4T@I@cloth@nv@@PEAU123@@std@@YAXPEAU?$Vec4T@I@cloth@nv@@0@Z 0000000180031610 f i TripletScheduler.obj
 0001:00030620       ??$?AH@?$Vec4T@I@cloth@nv@@QEBAAEBIH@Z 0000000180031620 f i TripletScheduler.obj
 0001:00030630       ??$?AH@?$Vec4T@I@cloth@nv@@QEAAAEAIH@Z 0000000180031630 f i TripletScheduler.obj
 0001:00030640       ??$maxElement@I@ps@cloth@nv@@YAPEBIPEBI0@Z 0000000180031640 f i TripletScheduler.obj
 0001:000306b0       ??$?AI@?$Vec4T@I@cloth@nv@@QEAAAEAII@Z 00000001800316b0 f i TripletScheduler.obj
 0001:000306c0       ??$max@E@std@@YAAEBEAEBE0@Z 00000001800316c0 f i TripletScheduler.obj
 0001:000306d0       ?begin@?$Range@$$BY03$$CBI@cloth@nv@@QEBAPEAY03$$CBIXZ 00000001800316d0 f i TripletScheduler.obj
 0001:000306e0       ?end@?$Range@$$BY03$$CBI@cloth@nv@@QEBAPEAY03$$CBIXZ 00000001800316e0 f i TripletScheduler.obj
 0001:000306f0       ?back@?$Array@IVNonTrackingAllocator@ps@cloth@nv@@@ps@cloth@nv@@QEAAAEAIXZ 00000001800316f0 f i TripletScheduler.obj
 0001:00030700       ?swap@?$Array@U?$Vec4T@I@cloth@nv@@VNonTrackingAllocator@ps@23@@ps@cloth@nv@@QEAAXAEAV1234@@Z 0000000180031700 f i TripletScheduler.obj
 0001:00030730       ?end@?$Array@U?$Vec4T@I@cloth@nv@@VNonTrackingAllocator@ps@23@@ps@cloth@nv@@QEBAPEBU?$Vec4T@I@34@XZ 0000000180031730 f i TripletScheduler.obj
 0001:00030740       ?begin@?$Array@U?$Vec4T@I@cloth@nv@@VNonTrackingAllocator@ps@23@@ps@cloth@nv@@QEBAPEBU?$Vec4T@I@34@XZ 0000000180031740 f i TripletScheduler.obj
 0001:00030750       ??A?$Array@U?$Vec4T@I@cloth@nv@@VNonTrackingAllocator@ps@23@@ps@cloth@nv@@QEAAAEAU?$Vec4T@I@23@I@Z 0000000180031750 f i TripletScheduler.obj
 0001:00030760       ??0?$Array@U?$Vec4T@I@cloth@nv@@VNonTrackingAllocator@ps@23@@ps@cloth@nv@@QEAA@PEBU?$Vec4T@I@23@0AEBVNonTrackingAllocator@123@@Z 0000000180031760 f i TripletScheduler.obj
 0001:00030800       ??0?$Vec4T@G@cloth@nv@@QEAA@GGGG@Z 0000000180031800 f i TripletScheduler.obj
 0001:00030820       ??$swap@U?$Vec4T@I@cloth@nv@@$0A@@std@@YAXAEAU?$Vec4T@I@cloth@nv@@0@Z 0000000180031820 f i TripletScheduler.obj
 0001:00030830       ??$swap@PEAU?$Vec4T@I@cloth@nv@@@ps@cloth@nv@@YAXAEAPEAU?$Vec4T@I@12@0@Z 0000000180031830 f i TripletScheduler.obj
 0001:00030a40       ??$move@AEAU?$Vec4T@I@cloth@nv@@@std@@YA$$QEAU?$Vec4T@I@cloth@nv@@AEAU123@@Z 0000000180031a40 f i TripletScheduler.obj
 0001:00030b30       ?recipSqrt@intrinsics@physx@@YAMM@Z 0000000180031b30 f i ClothFabricCooker.obj
 0001:00030b50       ?memSet@intrinsics@physx@@YAPEAXPEAXHI@Z 0000000180031b50 f i ClothFabricCooker.obj
 0001:00030b60       ?PxRecipSqrt@physx@@YAMM@Z 0000000180031b60 f i ClothFabricCooker.obj
 0001:00030b80       ?dot@PxVec3@physx@@QEBAMAEBV12@@Z 0000000180031b80 f i ClothFabricCooker.obj
 0001:00030bb0       ?cross@PxVec3@physx@@QEBA?AV12@AEBV12@@Z 0000000180031bb0 f i ClothFabricCooker.obj
 0001:00030c10       ?getNormalized@PxVec3@physx@@QEBA?AV12@XZ 0000000180031c10 f i ClothFabricCooker.obj
 0001:00030ca0       ?isPowerOfTwo@ps@cloth@nv@@YA_NI@Z 0000000180031ca0 f i ClothFabricCooker.obj
 0001:00030cc0       ?nextPowerOfTwo@ps@cloth@nv@@YAII@Z 0000000180031cc0 f i ClothFabricCooker.obj
 0001:00030cf0       ?hash@ps@cloth@nv@@YAII@Z  0000000180031cf0 f i ClothFabricCooker.obj
 0001:00030d20       ??_VUserAllocated@cloth@nv@@SAXPEAX@Z 0000000180031d20 f i ClothFabricCooker.obj
 0001:00030d40       ?isValid@ClothMeshDesc@cloth@nv@@QEBA_NXZ 0000000180031d40 f i ClothFabricCooker.obj
 0001:00030e00       ??0ClothFabricPhase@cloth@nv@@QEAA@W4Enum@ClothFabricPhaseType@12@I@Z 0000000180031e00 f i ClothFabricCooker.obj
 0001:00030e10       ??0ClothFabricDesc@cloth@nv@@QEAA@XZ 0000000180031e10 f i ClothFabricCooker.obj
 0001:00030e30       ?setToDefault@ClothFabricDesc@cloth@nv@@QEAAXXZ 0000000180031e30 f i ClothFabricCooker.obj
 0001:00030e50       ??1ClothFabricCooker@cloth@nv@@UEAA@XZ 0000000180031e50 f i ClothFabricCooker.obj
 0001:00030e60       ??0ClothFabricCooker@cloth@nv@@QEAA@XZ 0000000180031e60 f i ClothFabricCooker.obj
 0001:00030e70       ??0ClothFabricCooker@cloth@nv@@QEAA@AEBV012@@Z 0000000180031e70 f i ClothFabricCooker.obj
 0001:00030e80       ??4ClothFabricCooker@cloth@nv@@QEAAAEAV012@AEBV012@@Z 0000000180031e80 f i ClothFabricCooker.obj
 0001:00030e90       ??_GClothFabricCooker@cloth@nv@@UEAAPEAXI@Z 0000000180031e90 f i ClothFabricCooker.obj
 0001:00030ee0       ??_EClothFabricCooker@cloth@nv@@UEAAPEAXI@Z 0000000180031ee0 f i ClothFabricCooker.obj
 0001:00030fb0       ??_I@YAXPEAX_K1P6AX0@Z@Z   0000000180031fb0 f i ClothFabricCooker.obj
 0001:00030ff0       ??0FabricCookerImpl@cloth@nv@@QEAA@XZ 0000000180031ff0 f i ClothFabricCooker.obj
 0001:00031070       ??_EFabricCookerImpl@cloth@nv@@UEAAPEAXI@Z 0000000180032070 f i * CIL library *:* CIL module *
 0001:00031070       ??_GFabricCookerImpl@cloth@nv@@UEAAPEAXI@Z 0000000180032070 f i ClothFabricCooker.obj
 0001:000310d0       ??1FabricCookerImpl@cloth@nv@@UEAA@XZ 00000001800320d0 f i ClothFabricCooker.obj
 0001:00031270       ??0CookedData@cloth@nv@@QEAA@XZ 0000000180032270 f i ClothFabricCooker.obj
 0001:000312d0       ?__global_array_delete@@YAXPEAX@Z 00000001800322d0 f i ClothFabricCooker.obj
 0001:000312e0       ?__global_array_delete@@YAXPEAX_K@Z 00000001800322e0 f i ClothFabricCooker.obj
 0001:000312f0       ?__global_delete@@YAXPEAX@Z 00000001800322f0 f i ClothFabricCooker.obj
 0001:00031300       ?__global_delete@@YAXPEAX_K@Z 0000000180032300 f i ClothFabricCooker.obj
 0001:00031e80       ??$PxMin@I@physx@@YAIII@Z  0000000180032e80 f i ClothFabricCooker.obj
 0001:00031e90       ??$PxMax@I@physx@@YAIII@Z  0000000180032e90 f i ClothFabricCooker.obj
 0001:00032460       ??0?$Range@$$CBI@cloth@nv@@QEAA@XZ 0000000180033460 f i ClothFabricCooker.obj
 0001:00032470       ??0?$Range@$$CBM@cloth@nv@@QEAA@XZ 0000000180033470 f i ClothFabricCooker.obj
 0001:00032480       ??0?$Range@$$CBH@cloth@nv@@QEAA@XZ 0000000180033480 f i ClothFabricCooker.obj
 0001:00032490       ?size@?$Range@$$CBH@cloth@nv@@QEBAIXZ 0000000180033490 f i ClothFabricCooker.obj
 0001:000324a0       ??A?$Range@$$CBH@cloth@nv@@QEBAAEBHI@Z 00000001800334a0 f i ClothFabricCooker.obj
 0001:000324b0       ?resize@?$Array@HVNonTrackingAllocator@ps@cloth@nv@@@ps@cloth@nv@@QEAAXIAEBH@Z 00000001800334b0 f i ClothFabricCooker.obj
 0001:00032570       ?resize@?$Array@UClothFabricPhase@cloth@nv@@VNonTrackingAllocator@ps@23@@ps@cloth@nv@@QEAAXIAEBUClothFabricPhase@34@@Z 0000000180033570 f i ClothFabricCooker.obj
 0001:00032630       ?reserve@?$Array@V?$Pair@V?$Pair@II@ps@cloth@nv@@W4Enum@ClothFabricPhaseType@34@@ps@cloth@nv@@VNonTrackingAllocator@234@@ps@cloth@nv@@QEAAXI@Z 0000000180033630 f i ClothFabricCooker.obj
 0001:00032640       ?pushBack@?$Array@V?$Pair@V?$Pair@II@ps@cloth@nv@@W4Enum@ClothFabricPhaseType@34@@ps@cloth@nv@@VNonTrackingAllocator@234@@ps@cloth@nv@@QEAAAEAV?$Pair@V?$Pair@II@ps@cloth@nv@@W4Enum@ClothFabricPhaseType@34@@234@AEBV5234@@Z 0000000180033640 f i ClothFabricCooker.obj
 0001:000326a0       ?size@?$Array@V?$Pair@V?$Pair@II@ps@cloth@nv@@W4Enum@ClothFabricPhaseType@34@@ps@cloth@nv@@VNonTrackingAllocator@234@@ps@cloth@nv@@QEBAIXZ 00000001800336a0 f i ClothFabricCooker.obj
 0001:000326b0       ??A?$Array@V?$Pair@V?$Pair@II@ps@cloth@nv@@W4Enum@ClothFabricPhaseType@34@@ps@cloth@nv@@VNonTrackingAllocator@234@@ps@cloth@nv@@QEAAAEAV?$Pair@V?$Pair@II@ps@cloth@nv@@W4Enum@ClothFabricPhaseType@34@@123@I@Z 00000001800336b0 f i ClothFabricCooker.obj
 0001:000326c0       ??1?$Array@V?$Pair@V?$Pair@II@ps@cloth@nv@@W4Enum@ClothFabricPhaseType@34@@ps@cloth@nv@@VNonTrackingAllocator@234@@ps@cloth@nv@@QEAA@XZ 00000001800336c0 f i ClothFabricCooker.obj
 0001:000326f0       ??0?$Array@V?$Pair@V?$Pair@II@ps@cloth@nv@@W4Enum@ClothFabricPhaseType@34@@ps@cloth@nv@@VNonTrackingAllocator@234@@ps@cloth@nv@@QEAA@AEBVNonTrackingAllocator@123@@Z 00000001800336f0 f i ClothFabricCooker.obj
 0001:00032700       ??E?$PxStrideIterator@$$CBM@physx@@QEAA?AV01@H@Z 0000000180033700 f i ClothFabricCooker.obj
 0001:00032710       ??A?$PxStrideIterator@$$CBM@physx@@QEBAAEBMI@Z 0000000180033710 f i ClothFabricCooker.obj
 0001:00032720       ??D?$PxStrideIterator@$$CBM@physx@@QEBAAEBMXZ 0000000180033720 f i ClothFabricCooker.obj
 0001:00032730       ?ptr@?$PxStrideIterator@$$CBM@physx@@QEBAPEBMXZ 0000000180033730 f i ClothFabricCooker.obj
 0001:00032740       ??0?$PxStrideIterator@$$CBM@physx@@QEAA@PEBMI@Z 0000000180033740 f i ClothFabricCooker.obj
 0001:00032750       ??E?$PxStrideIterator@$$CBVPxVec3@physx@@@physx@@QEAA?AV01@H@Z 0000000180033750 f i ClothFabricCooker.obj
 0001:00032760       ??D?$PxStrideIterator@$$CBVPxVec3@physx@@@physx@@QEBAAEBVPxVec3@1@XZ 0000000180033760 f i ClothFabricCooker.obj
 0001:00032770       ??0?$PxStrideIterator@$$CBVPxVec3@physx@@@physx@@QEAA@PEBVPxVec3@1@I@Z 0000000180033770 f i ClothFabricCooker.obj
 0001:00032780       ??0?$Pair@V?$Pair@II@ps@cloth@nv@@W4Enum@ClothFabricPhaseType@34@@ps@cloth@nv@@QEAA@AEBV?$Pair@II@123@AEBW4Enum@ClothFabricPhaseType@23@@Z 0000000180033780 f i ClothFabricCooker.obj
 0001:000327a0       ??0?$Pair@II@ps@cloth@nv@@QEAA@AEBI0@Z 00000001800337a0 f i ClothFabricCooker.obj
 0001:000327b0       ?begin@?$Array@UClothFabricPhase@cloth@nv@@VNonTrackingAllocator@ps@23@@ps@cloth@nv@@QEAAPEAUClothFabricPhase@34@XZ 00000001800337b0 f i ClothFabricCooker.obj
 0001:000327c0       ??A?$Array@UClothFabricPhase@cloth@nv@@VNonTrackingAllocator@ps@23@@ps@cloth@nv@@QEAAAEAUClothFabricPhase@23@I@Z 00000001800337c0 f i ClothFabricCooker.obj
 0001:000327d0       ??1?$Array@UClothFabricPhase@cloth@nv@@VNonTrackingAllocator@ps@23@@ps@cloth@nv@@QEAA@XZ 00000001800337d0 f i ClothFabricCooker.obj
 0001:00032800       ??0?$Array@UClothFabricPhase@cloth@nv@@VNonTrackingAllocator@ps@23@@ps@cloth@nv@@QEAA@AEBVNonTrackingAllocator@123@@Z 0000000180033800 f i ClothFabricCooker.obj
 0001:00032810       ?begin@?$Array@MVNonTrackingAllocator@ps@cloth@nv@@@ps@cloth@nv@@QEBAPEBMXZ 0000000180033810 f i ClothFabricCooker.obj
 0001:00032820       ??A?$Array@MVNonTrackingAllocator@ps@cloth@nv@@@ps@cloth@nv@@QEAAAEAMI@Z 0000000180033820 f i ClothFabricCooker.obj
 0001:00032830       ??4?$Array@MVNonTrackingAllocator@ps@cloth@nv@@@ps@cloth@nv@@QEAAAEAV0123@AEBV0123@@Z 0000000180033830 f i ClothFabricCooker.obj
 0001:000328d0       ??0?$Array@MVNonTrackingAllocator@ps@cloth@nv@@@ps@cloth@nv@@QEAA@AEBVNonTrackingAllocator@123@@Z 00000001800338d0 f i ClothFabricCooker.obj
 0001:000328e0       ?pushBack@?$Array@W4Enum@ClothFabricPhaseType@cloth@nv@@VNonTrackingAllocator@ps@34@@ps@cloth@nv@@QEAAAEAW4Enum@ClothFabricPhaseType@34@AEBW45634@@Z 00000001800338e0 f i ClothFabricCooker.obj
 0001:00032920       ??A?$Array@W4Enum@ClothFabricPhaseType@cloth@nv@@VNonTrackingAllocator@ps@34@@ps@cloth@nv@@QEAAAEAW4Enum@ClothFabricPhaseType@23@I@Z 0000000180033920 f i ClothFabricCooker.obj
 0001:00032930       ??A?$Array@W4Enum@ClothFabricPhaseType@cloth@nv@@VNonTrackingAllocator@ps@34@@ps@cloth@nv@@QEBAAEBW4Enum@ClothFabricPhaseType@23@I@Z 0000000180033930 f i ClothFabricCooker.obj
 0001:00032940       ??1?$Array@W4Enum@ClothFabricPhaseType@cloth@nv@@VNonTrackingAllocator@ps@34@@ps@cloth@nv@@QEAA@XZ 0000000180033940 f i ClothFabricCooker.obj
 0001:00032970       ??0?$Array@W4Enum@ClothFabricPhaseType@cloth@nv@@VNonTrackingAllocator@ps@34@@ps@cloth@nv@@QEAA@AEBVNonTrackingAllocator@123@@Z 0000000180033970 f i ClothFabricCooker.obj
 0001:00032980       ??4?$Array@IVNonTrackingAllocator@ps@cloth@nv@@@ps@cloth@nv@@QEAAAEAV0123@AEBV0123@@Z 0000000180033980 f i ClothFabricCooker.obj
 0001:000329f0       ??A?$Array@HVNonTrackingAllocator@ps@cloth@nv@@@ps@cloth@nv@@QEAAAEAHI@Z 00000001800339f0 f i ClothFabricCooker.obj
 0001:00032a00       ??$?4VNonTrackingAllocator@ps@cloth@nv@@@?$Array@IVNonTrackingAllocator@ps@cloth@nv@@@ps@cloth@nv@@QEAAAEAV0123@AEBV0123@@Z 0000000180033a00 f i ClothFabricCooker.obj
 0001:00032a70       ??$?4VNonTrackingAllocator@ps@cloth@nv@@@?$Array@MVNonTrackingAllocator@ps@cloth@nv@@@ps@cloth@nv@@QEAAAEAV0123@AEBV0123@@Z 0000000180033a70 f i ClothFabricCooker.obj
 0001:00032b10       ??$PxMakeIterator@G@physx@@YA?AV?$PxStrideIterator@$$CBG@0@PEBGI@Z 0000000180033b10 f i ClothFabricCooker.obj
 0001:00032b20       ??$PxMakeIterator@I@physx@@YA?AV?$PxStrideIterator@$$CBI@0@PEBII@Z 0000000180033b20 f i ClothFabricCooker.obj
 0001:00032d10       ??0?$Range@$$CBM@cloth@nv@@QEAA@PEBM0@Z 0000000180033d10 f i ClothFabricCooker.obj
 0001:00032d20       ??0?$Range@$$CBH@cloth@nv@@QEAA@PEBH0@Z 0000000180033d20 f i ClothFabricCooker.obj
 0001:00032d30       ?growAndPushBack@?$Array@W4Enum@ClothFabricPhaseType@cloth@nv@@VNonTrackingAllocator@ps@34@@ps@cloth@nv@@IEAAAEAW4Enum@ClothFabricPhaseType@34@AEBW45634@@Z 0000000180033d30 f i ClothFabricCooker.obj
 0001:00032e10       ?growAndPushBack@?$Array@V?$Pair@V?$Pair@II@ps@cloth@nv@@W4Enum@ClothFabricPhaseType@34@@ps@cloth@nv@@VNonTrackingAllocator@234@@ps@cloth@nv@@IEAAAEAV?$Pair@V?$Pair@II@ps@cloth@nv@@W4Enum@ClothFabricPhaseType@34@@234@AEBV5234@@Z 0000000180033e10 f i ClothFabricCooker.obj
 0001:00032f20       ??E?$PxStrideIterator@$$CBI@physx@@QEAAAEAV01@XZ 0000000180033f20 f i ClothFabricCooker.obj
 0001:00032f30       ?ptr@?$PxStrideIterator@$$CBI@physx@@QEBAPEBIXZ 0000000180033f30 f i ClothFabricCooker.obj
 0001:00032f40       ??0?$PxStrideIterator@$$CBI@physx@@QEAA@PEBII@Z 0000000180033f40 f i ClothFabricCooker.obj
 0001:00032f50       ??E?$PxStrideIterator@$$CBG@physx@@QEAAAEAV01@XZ 0000000180033f50 f i ClothFabricCooker.obj
 0001:00032f60       ?ptr@?$PxStrideIterator@$$CBG@physx@@QEBAPEBGXZ 0000000180033f60 f i ClothFabricCooker.obj
 0001:00032f70       ??0?$PxStrideIterator@$$CBG@physx@@QEAA@PEBGI@Z 0000000180033f70 f i ClothFabricCooker.obj
 0001:00032f80       ?grow@?$Array@V?$Pair@V?$Pair@II@ps@cloth@nv@@W4Enum@ClothFabricPhaseType@34@@ps@cloth@nv@@VNonTrackingAllocator@234@@ps@cloth@nv@@IEAAXI@Z 0000000180033f80 f i ClothFabricCooker.obj
 0001:00032f90       ?destroy@?$Array@V?$Pair@V?$Pair@II@ps@cloth@nv@@W4Enum@ClothFabricPhaseType@34@@ps@cloth@nv@@VNonTrackingAllocator@234@@ps@cloth@nv@@KAXPEAV?$Pair@V?$Pair@II@ps@cloth@nv@@W4Enum@ClothFabricPhaseType@34@@234@0@Z 0000000180033f90 f i ClothFabricCooker.obj
 0001:00032fa0       ?deallocate@?$Array@V?$Pair@V?$Pair@II@ps@cloth@nv@@W4Enum@ClothFabricPhaseType@34@@ps@cloth@nv@@VNonTrackingAllocator@234@@ps@cloth@nv@@IEAAXPEAX@Z 0000000180033fa0 f i ClothFabricCooker.obj
 0001:00032fc0       ?isInUserMemory@?$Array@V?$Pair@V?$Pair@II@ps@cloth@nv@@W4Enum@ClothFabricPhaseType@34@@ps@cloth@nv@@VNonTrackingAllocator@234@@ps@cloth@nv@@QEBAIXZ 0000000180033fc0 f i ClothFabricCooker.obj
 0001:00032fd0       ?capacity@?$Array@V?$Pair@V?$Pair@II@ps@cloth@nv@@W4Enum@ClothFabricPhaseType@34@@ps@cloth@nv@@VNonTrackingAllocator@234@@ps@cloth@nv@@QEBAIXZ 0000000180033fd0 f i ClothFabricCooker.obj
 0001:00032fe0       ?byteAdd@?$PxStrideIterator@$$CBM@physx@@CAPEBMPEBMI@Z 0000000180033fe0 f i ClothFabricCooker.obj
 0001:00032ff0       ?stride@?$PxStrideIterator@$$CBM@physx@@QEBAIXZ 0000000180033ff0 f i ClothFabricCooker.obj
 0001:00033000       ?byteAdd@?$PxStrideIterator@$$CBVPxVec3@physx@@@physx@@CAPEBVPxVec3@2@PEBV32@I@Z 0000000180034000 f i ClothFabricCooker.obj
 0001:00033010       ?stride@?$PxStrideIterator@$$CBVPxVec3@physx@@@physx@@QEBAIXZ 0000000180034010 f i ClothFabricCooker.obj
 0001:00033020       ??0?$Pair@V?$Pair@II@ps@cloth@nv@@W4Enum@ClothFabricPhaseType@34@@ps@cloth@nv@@QEAA@AEBV0123@@Z 0000000180034020 f i ClothFabricCooker.obj
 0001:00033040       ??0?$Pair@II@ps@cloth@nv@@QEAA@AEBV0123@@Z 0000000180034040 f i ClothFabricCooker.obj
 0001:00033050       ?destroy@?$Array@UClothFabricPhase@cloth@nv@@VNonTrackingAllocator@ps@23@@ps@cloth@nv@@KAXPEAUClothFabricPhase@34@0@Z 0000000180034050 f i ClothFabricCooker.obj
 0001:00033060       ?create@?$Array@UClothFabricPhase@cloth@nv@@VNonTrackingAllocator@ps@23@@ps@cloth@nv@@KAXPEAUClothFabricPhase@34@0AEBU534@@Z 0000000180034060 f i ClothFabricCooker.obj
 0001:000330f0       ?deallocate@?$Array@UClothFabricPhase@cloth@nv@@VNonTrackingAllocator@ps@23@@ps@cloth@nv@@IEAAXPEAX@Z 00000001800340f0 f i ClothFabricCooker.obj
 0001:00033110       ?isInUserMemory@?$Array@UClothFabricPhase@cloth@nv@@VNonTrackingAllocator@ps@23@@ps@cloth@nv@@QEBAIXZ 0000000180034110 f i ClothFabricCooker.obj
 0001:00033120       ?capacity@?$Array@UClothFabricPhase@cloth@nv@@VNonTrackingAllocator@ps@23@@ps@cloth@nv@@QEBAIXZ 0000000180034120 f i ClothFabricCooker.obj
 0001:00033130       ?reserve@?$Array@UClothFabricPhase@cloth@nv@@VNonTrackingAllocator@ps@23@@ps@cloth@nv@@QEAAXI@Z 0000000180034130 f i ClothFabricCooker.obj
 0001:00033140       ?end@?$Array@MVNonTrackingAllocator@ps@cloth@nv@@@ps@cloth@nv@@QEBAPEBMXZ 0000000180034140 f i ClothFabricCooker.obj
 0001:00033150       ?destroy@?$Array@W4Enum@ClothFabricPhaseType@cloth@nv@@VNonTrackingAllocator@ps@34@@ps@cloth@nv@@KAXPEAW4Enum@ClothFabricPhaseType@34@0@Z 0000000180034150 f i ClothFabricCooker.obj
 0001:00033160       ?deallocate@?$Array@W4Enum@ClothFabricPhaseType@cloth@nv@@VNonTrackingAllocator@ps@34@@ps@cloth@nv@@IEAAXPEAX@Z 0000000180034160 f i ClothFabricCooker.obj
 0001:00033180       ?isInUserMemory@?$Array@W4Enum@ClothFabricPhaseType@cloth@nv@@VNonTrackingAllocator@ps@34@@ps@cloth@nv@@QEBAIXZ 0000000180034180 f i ClothFabricCooker.obj
 0001:00033190       ?capacity@?$Array@W4Enum@ClothFabricPhaseType@cloth@nv@@VNonTrackingAllocator@ps@34@@ps@cloth@nv@@QEBAIXZ 0000000180034190 f i ClothFabricCooker.obj
 0001:000331a0       ?end@?$Array@W4Enum@ClothFabricPhaseType@cloth@nv@@VNonTrackingAllocator@ps@34@@ps@cloth@nv@@QEBAPEBW4Enum@ClothFabricPhaseType@34@XZ 00000001800341a0 f i ClothFabricCooker.obj
 0001:000331b0       ?begin@?$Array@W4Enum@ClothFabricPhaseType@cloth@nv@@VNonTrackingAllocator@ps@34@@ps@cloth@nv@@QEBAPEBW4Enum@ClothFabricPhaseType@34@XZ 00000001800341b0 f i ClothFabricCooker.obj
 0001:000331c0       ?destroy@?$Array@HVNonTrackingAllocator@ps@cloth@nv@@@ps@cloth@nv@@KAXPEAH0@Z 00000001800341c0 f i ClothFabricCooker.obj
 0001:000331d0       ?create@?$Array@HVNonTrackingAllocator@ps@cloth@nv@@@ps@cloth@nv@@KAXPEAH0AEBH@Z 00000001800341d0 f i ClothFabricCooker.obj
 0001:00033260       ?reserve@?$Array@HVNonTrackingAllocator@ps@cloth@nv@@@ps@cloth@nv@@QEAAXI@Z 0000000180034260 f i ClothFabricCooker.obj
 0001:00033380       ?recreate@?$Array@V?$Pair@V?$Pair@II@ps@cloth@nv@@W4Enum@ClothFabricPhaseType@34@@ps@cloth@nv@@VNonTrackingAllocator@234@@ps@cloth@nv@@IEAAXI@Z 0000000180034380 f i ClothFabricCooker.obj
 0001:000335e0       ?byteAdd@?$PxStrideIterator@$$CBI@physx@@CAPEBIPEBII@Z 00000001800345e0 f i ClothFabricCooker.obj
 0001:000335f0       ?stride@?$PxStrideIterator@$$CBI@physx@@QEBAIXZ 00000001800345f0 f i ClothFabricCooker.obj
 0001:00033600       ?byteAdd@?$PxStrideIterator@$$CBG@physx@@CAPEBGPEBGI@Z 0000000180034600 f i ClothFabricCooker.obj
 0001:00033610       ?stride@?$PxStrideIterator@$$CBG@physx@@QEBAIXZ 0000000180034610 f i ClothFabricCooker.obj
 0001:00033620       ?capacityIncrement@?$Array@V?$Pair@V?$Pair@II@ps@cloth@nv@@W4Enum@ClothFabricPhaseType@34@@ps@cloth@nv@@VNonTrackingAllocator@234@@ps@cloth@nv@@IEBAIXZ 0000000180034620 f i ClothFabricCooker.obj
 0001:00033640       ?copy@?$Array@V?$Pair@V?$Pair@II@ps@cloth@nv@@W4Enum@ClothFabricPhaseType@34@@ps@cloth@nv@@VNonTrackingAllocator@234@@ps@cloth@nv@@KAXPEAV?$Pair@V?$Pair@II@ps@cloth@nv@@W4Enum@ClothFabricPhaseType@34@@234@0PEBV5234@@Z 0000000180034640 f i ClothFabricCooker.obj
 0001:00033690       ?allocate@?$Array@V?$Pair@V?$Pair@II@ps@cloth@nv@@W4Enum@ClothFabricPhaseType@34@@ps@cloth@nv@@VNonTrackingAllocator@234@@ps@cloth@nv@@IEAAPEAV?$Pair@V?$Pair@II@ps@cloth@nv@@W4Enum@ClothFabricPhaseType@34@@234@I@Z 0000000180034690 f i ClothFabricCooker.obj
 0001:000336e0       ?equal@?$Hash@V?$Pair@II@ps@cloth@nv@@@ps@cloth@nv@@QEBA_NAEBV?$Pair@II@234@0@Z 00000001800346e0 f i ClothFabricCooker.obj
 0001:00033700       ?grow@?$Array@UClothFabricPhase@cloth@nv@@VNonTrackingAllocator@ps@23@@ps@cloth@nv@@IEAAXI@Z 0000000180034700 f i ClothFabricCooker.obj
 0001:00033710       ?clear@?$Array@MVNonTrackingAllocator@ps@cloth@nv@@@ps@cloth@nv@@QEAAXXZ 0000000180034710 f i ClothFabricCooker.obj
 0001:00033720       ?capacityIncrement@?$Array@W4Enum@ClothFabricPhaseType@cloth@nv@@VNonTrackingAllocator@ps@34@@ps@cloth@nv@@IEBAIXZ 0000000180034720 f i ClothFabricCooker.obj
 0001:00033740       ?copy@?$Array@W4Enum@ClothFabricPhaseType@cloth@nv@@VNonTrackingAllocator@ps@34@@ps@cloth@nv@@KAXPEAW4Enum@ClothFabricPhaseType@34@0PEBW45634@@Z 0000000180034740 f i ClothFabricCooker.obj
 0001:00033760       ?allocate@?$Array@W4Enum@ClothFabricPhaseType@cloth@nv@@VNonTrackingAllocator@ps@34@@ps@cloth@nv@@IEAAPEAW4Enum@ClothFabricPhaseType@34@I@Z 0000000180034760 f i ClothFabricCooker.obj
 0001:000337b0       ?clear@?$Array@IVNonTrackingAllocator@ps@cloth@nv@@@ps@cloth@nv@@QEAAXXZ 00000001800347b0 f i ClothFabricCooker.obj
 0001:000337c0       ?grow@?$Array@HVNonTrackingAllocator@ps@cloth@nv@@@ps@cloth@nv@@IEAAXI@Z 00000001800347c0 f i ClothFabricCooker.obj
 0001:000337d0       ?capacity@?$Array@HVNonTrackingAllocator@ps@cloth@nv@@@ps@cloth@nv@@QEBAIXZ 00000001800347d0 f i ClothFabricCooker.obj
 0001:000337e0       ?recreate@?$Array@HVNonTrackingAllocator@ps@cloth@nv@@@ps@cloth@nv@@IEAAXI@Z 00000001800347e0 f i ClothFabricCooker.obj
 0001:00033890       ?recreate@?$Array@UClothFabricPhase@cloth@nv@@VNonTrackingAllocator@ps@23@@ps@cloth@nv@@IEAAXI@Z 0000000180034890 f i ClothFabricCooker.obj
 0001:00033940       ??8?$Pair@II@ps@cloth@nv@@QEBA_NAEBV0123@@Z 0000000180034940 f i ClothFabricCooker.obj
 0001:00033960       ??R?$Hash@V?$Pair@II@ps@cloth@nv@@@ps@cloth@nv@@QEBAIAEBV?$Pair@II@123@@Z 0000000180034960 f i ClothFabricCooker.obj
 0001:000339d0       ?copy@?$Array@UClothFabricPhase@cloth@nv@@VNonTrackingAllocator@ps@23@@ps@cloth@nv@@KAXPEAUClothFabricPhase@34@0PEBU534@@Z 00000001800349d0 f i ClothFabricCooker.obj
 0001:00033a00       ?allocate@?$Array@UClothFabricPhase@cloth@nv@@VNonTrackingAllocator@ps@23@@ps@cloth@nv@@IEAAPEAUClothFabricPhase@34@I@Z 0000000180034a00 f i ClothFabricCooker.obj
 0001:00033a50       ?copy@?$Array@HVNonTrackingAllocator@ps@cloth@nv@@@ps@cloth@nv@@KAXPEAH0PEBH@Z 0000000180034a50 f i ClothFabricCooker.obj
 0001:00033a70       ?deallocate@?$Array@HVNonTrackingAllocator@ps@cloth@nv@@@ps@cloth@nv@@IEAAXPEAX@Z 0000000180034a70 f i ClothFabricCooker.obj
 0001:00033a90       ?allocate@?$Array@HVNonTrackingAllocator@ps@cloth@nv@@@ps@cloth@nv@@IEAAPEAHI@Z 0000000180034a90 f i ClothFabricCooker.obj
 0001:00033ae0       ?isInUserMemory@?$Array@HVNonTrackingAllocator@ps@cloth@nv@@@ps@cloth@nv@@QEBAIXZ 0000000180034ae0 f i ClothFabricCooker.obj
 0001:00033af0       ??$hash@II@ps@cloth@nv@@YAIAEBV?$Pair@II@012@@Z 0000000180034af0 f i ClothFabricCooker.obj
 0001:00033b60       ?PxMemCopy@physx@@YAPEAXPEAXPEBXI@Z 0000000180034b60 f i ClothGeodesicTetherCooker.obj
 0001:00033b70       ??1ClothTetherCooker@cloth@nv@@UEAA@XZ 0000000180034b70 f i ClothGeodesicTetherCooker.obj
 0001:00033b80       ??_EClothTetherCooker@cloth@nv@@UEAAPEAXI@Z 0000000180034b80 f i * CIL library *:* CIL module *
 0001:00033b80       ??_GClothTetherCooker@cloth@nv@@UEAAPEAXI@Z 0000000180034b80 f i ClothGeodesicTetherCooker.obj
 0001:00033bd0       ??0ClothGeodesicTetherCooker@cloth@nv@@QEAA@XZ 0000000180034bd0 f i ClothGeodesicTetherCooker.obj
 0001:00033c30       ??0ClothTetherCooker@cloth@nv@@QEAA@XZ 0000000180034c30 f i ClothGeodesicTetherCooker.obj
 0001:00033c40       ??_EClothGeodesicTetherCooker@cloth@nv@@UEAAPEAXI@Z 0000000180034c40 f i * CIL library *:* CIL module *
 0001:00033c40       ??_GClothGeodesicTetherCooker@cloth@nv@@UEAAPEAXI@Z 0000000180034c40 f i ClothGeodesicTetherCooker.obj
 0001:00033ca0       ??1ClothGeodesicTetherCooker@cloth@nv@@UEAA@XZ 0000000180034ca0 f i ClothGeodesicTetherCooker.obj
 0001:00033df0       ??$swap@H@ps@cloth@nv@@YAXAEAH0@Z 0000000180034df0 f i ClothGeodesicTetherCooker.obj
 0001:000353f0       ?resize@?$Array@EVNonTrackingAllocator@ps@cloth@nv@@@ps@cloth@nv@@QEAAXIAEBE@Z 00000001800363f0 f i ClothGeodesicTetherCooker.obj
 0001:000354b0       ??A?$Array@EVNonTrackingAllocator@ps@cloth@nv@@@ps@cloth@nv@@QEAAAEAEI@Z 00000001800364b0 f i ClothGeodesicTetherCooker.obj
 0001:000354c0       ??1?$Array@EVNonTrackingAllocator@ps@cloth@nv@@@ps@cloth@nv@@QEAA@XZ 00000001800364c0 f i ClothGeodesicTetherCooker.obj
 0001:000354f0       ??0?$Array@EVNonTrackingAllocator@ps@cloth@nv@@@ps@cloth@nv@@QEAA@AEBVNonTrackingAllocator@123@@Z 00000001800364f0 f i ClothGeodesicTetherCooker.obj
 0001:00035d50       ?destroy@?$Array@EVNonTrackingAllocator@ps@cloth@nv@@@ps@cloth@nv@@KAXPEAE0@Z 0000000180036d50 f i ClothGeodesicTetherCooker.obj
 0001:00035d60       ?create@?$Array@EVNonTrackingAllocator@ps@cloth@nv@@@ps@cloth@nv@@KAXPEAE0AEBE@Z 0000000180036d60 f i ClothGeodesicTetherCooker.obj
 0001:00035df0       ?deallocate@?$Array@EVNonTrackingAllocator@ps@cloth@nv@@@ps@cloth@nv@@IEAAXPEAX@Z 0000000180036df0 f i ClothGeodesicTetherCooker.obj
 0001:00035e10       ?isInUserMemory@?$Array@EVNonTrackingAllocator@ps@cloth@nv@@@ps@cloth@nv@@QEBAIXZ 0000000180036e10 f i ClothGeodesicTetherCooker.obj
 0001:00035e20       ?capacity@?$Array@EVNonTrackingAllocator@ps@cloth@nv@@@ps@cloth@nv@@QEBAIXZ 0000000180036e20 f i ClothGeodesicTetherCooker.obj
 0001:00035e30       ?reserve@?$Array@EVNonTrackingAllocator@ps@cloth@nv@@@ps@cloth@nv@@QEAAXI@Z 0000000180036e30 f i ClothGeodesicTetherCooker.obj
 0001:000360f0       ?grow@?$Array@EVNonTrackingAllocator@ps@cloth@nv@@@ps@cloth@nv@@IEAAXI@Z 00000001800370f0 f i ClothGeodesicTetherCooker.obj
 0001:00036100       ?recreate@?$Array@EVNonTrackingAllocator@ps@cloth@nv@@@ps@cloth@nv@@IEAAXI@Z 0000000180037100 f i ClothGeodesicTetherCooker.obj
 0001:000361b0       ?copy@?$Array@EVNonTrackingAllocator@ps@cloth@nv@@@ps@cloth@nv@@KAXPEAE0PEBE@Z 00000001800371b0 f i ClothGeodesicTetherCooker.obj
 0001:000361d0       ?allocate@?$Array@EVNonTrackingAllocator@ps@cloth@nv@@@ps@cloth@nv@@IEAAPEAEI@Z 00000001800371d0 f i ClothGeodesicTetherCooker.obj
 0001:00036210       ??0StridedData@cloth@nv@@QEAA@XZ 0000000180037210 f i ClothMeshQuadifier.obj
 0001:00036220       ??0BoundedData@cloth@nv@@QEAA@XZ 0000000180037220 f i ClothMeshQuadifier.obj
 0001:00036230       ??0ClothMeshDesc@cloth@nv@@QEAA@XZ 0000000180037230 f i ClothMeshQuadifier.obj
 0001:00036270       ??1ClothMeshQuadifier@cloth@nv@@UEAA@XZ 0000000180037270 f i ClothMeshQuadifier.obj
 0001:00036280       ??_EClothMeshQuadifier@cloth@nv@@UEAAPEAXI@Z 0000000180037280 f i * CIL library *:* CIL module *
 0001:00036280       ??_GClothMeshQuadifier@cloth@nv@@UEAAPEAXI@Z 0000000180037280 f i ClothMeshQuadifier.obj
 0001:000362d0       ?degToRad@ps@cloth@nv@@YAMM@Z 00000001800372d0 f i ClothMeshQuadifier.obj
 0001:000362e0       ??_H@YAXPEAX_K1P6APEAX0@Z@Z 00000001800372e0 f i ClothMeshQuadifier.obj
 0001:00036310       ??0ClothMeshQuadifierImpl@cloth@nv@@QEAA@XZ 0000000180037310 f i ClothMeshQuadifier.obj
 0001:00036380       ??0ClothMeshQuadifier@cloth@nv@@QEAA@XZ 0000000180037380 f i ClothMeshQuadifier.obj
 0001:00036390       ??_EClothMeshQuadifierImpl@cloth@nv@@UEAAPEAXI@Z 0000000180037390 f i * CIL library *:* CIL module *
 0001:00036390       ??_GClothMeshQuadifierImpl@cloth@nv@@UEAAPEAXI@Z 0000000180037390 f i ClothMeshQuadifier.obj
 0001:00036450       ??1ClothMeshQuadifierImpl@cloth@nv@@UEAA@XZ 0000000180037450 f i ClothMeshQuadifier.obj
 0001:00037c00       ?getNbTethersPerParticle@ClothSimpleTetherCooker@cloth@nv@@UEBAIXZ 0000000180038c00 f i ClothSimpleTetherCooker.obj
 0001:00037c10       ??0ClothSimpleTetherCooker@cloth@nv@@QEAA@XZ 0000000180038c10 f i ClothSimpleTetherCooker.obj
 0001:00037c30       ??_EClothSimpleTetherCooker@cloth@nv@@UEAAPEAXI@Z 0000000180038c30 f i * CIL library *:* CIL module *
 0001:00037c30       ??_GClothSimpleTetherCooker@cloth@nv@@UEAAPEAXI@Z 0000000180038c30 f i ClothSimpleTetherCooker.obj
 0001:00037ce0       ??1ClothSimpleTetherCooker@cloth@nv@@UEAA@XZ 0000000180038ce0 f i ClothSimpleTetherCooker.obj
 0001:00037d50       ?pushBack@?$Array@MVNonTrackingAllocator@ps@cloth@nv@@@ps@cloth@nv@@QEAAAEAMAEBM@Z 0000000180038d50 f i ClothSimpleTetherCooker.obj
 0001:00037d90       ?growAndPushBack@?$Array@MVNonTrackingAllocator@ps@cloth@nv@@@ps@cloth@nv@@IEAAAEAMAEBM@Z 0000000180038d90 f i ClothSimpleTetherCooker.obj
 0001:00037eb0       ?capacityIncrement@?$Array@MVNonTrackingAllocator@ps@cloth@nv@@@ps@cloth@nv@@IEBAIXZ 0000000180038eb0 f i ClothSimpleTetherCooker.obj
 0001:00037ed0       cuArray3DCreate            0000000180038ed0 f   cuda:cuda_driverloader_generated_cuda_driverloader_cuda.obj
 0001:00037f30       cuArray3DCreate_v2         0000000180038f30 f   cuda:cuda_driverloader_generated_cuda_driverloader_cuda.obj
 0001:00037f90       cuArray3DGetDescriptor     0000000180038f90 f   cuda:cuda_driverloader_generated_cuda_driverloader_cuda.obj
 0001:00037ff0       cuArray3DGetDescriptor_v2  0000000180038ff0 f   cuda:cuda_driverloader_generated_cuda_driverloader_cuda.obj
 0001:00038050       cuArrayCreate              0000000180039050 f   cuda:cuda_driverloader_generated_cuda_driverloader_cuda.obj
 0001:000380b0       cuArrayCreate_v2           00000001800390b0 f   cuda:cuda_driverloader_generated_cuda_driverloader_cuda.obj
 0001:00038110       cuArrayDestroy             0000000180039110 f   cuda:cuda_driverloader_generated_cuda_driverloader_cuda.obj
 0001:00038150       cuArrayGetDescriptor       0000000180039150 f   cuda:cuda_driverloader_generated_cuda_driverloader_cuda.obj
 0001:000381b0       cuArrayGetDescriptor_v2    00000001800391b0 f   cuda:cuda_driverloader_generated_cuda_driverloader_cuda.obj
 0001:00038210       cuArrayGetMemoryRequirements 0000000180039210 f   cuda:cuda_driverloader_generated_cuda_driverloader_cuda.obj
 0001:00038280       cuArrayGetPlane            0000000180039280 f   cuda:cuda_driverloader_generated_cuda_driverloader_cuda.obj
 0001:000382f0       cuArrayGetSparseProperties 00000001800392f0 f   cuda:cuda_driverloader_generated_cuda_driverloader_cuda.obj
 0001:00038350       cuCheckpointProcessCheckpoint 0000000180039350 f   cuda:cuda_driverloader_generated_cuda_driverloader_cuda.obj
 0001:000383b0       cuCheckpointProcessGetRestoreThreadId 00000001800393b0 f   cuda:cuda_driverloader_generated_cuda_driverloader_cuda.obj
 0001:00038410       cuCheckpointProcessGetState 0000000180039410 f   cuda:cuda_driverloader_generated_cuda_driverloader_cuda.obj
 0001:00038470       cuCheckpointProcessLock    0000000180039470 f   cuda:cuda_driverloader_generated_cuda_driverloader_cuda.obj
 0001:000384d0       cuCheckpointProcessRestore 00000001800394d0 f   cuda:cuda_driverloader_generated_cuda_driverloader_cuda.obj
 0001:00038530       cuCheckpointProcessUnlock  0000000180039530 f   cuda:cuda_driverloader_generated_cuda_driverloader_cuda.obj
 0001:00038590       cuCoredumpGetAttribute     0000000180039590 f   cuda:cuda_driverloader_generated_cuda_driverloader_cuda.obj
 0001:00038600       cuCoredumpGetAttributeGlobal 0000000180039600 f   cuda:cuda_driverloader_generated_cuda_driverloader_cuda.obj
 0001:00038670       cuCoredumpSetAttribute     0000000180039670 f   cuda:cuda_driverloader_generated_cuda_driverloader_cuda.obj
 0001:000386e0       cuCoredumpSetAttributeGlobal 00000001800396e0 f   cuda:cuda_driverloader_generated_cuda_driverloader_cuda.obj
 0001:00038750       cuCtxAttach                0000000180039750 f   cuda:cuda_driverloader_generated_cuda_driverloader_cuda.obj
 0001:000387b0       cuCtxCreate                00000001800397b0 f   cuda:cuda_driverloader_generated_cuda_driverloader_cuda.obj
 0001:00038820       cuCtxCreate_v2             0000000180039820 f   cuda:cuda_driverloader_generated_cuda_driverloader_cuda.obj
 0001:00038890       cuCtxCreate_v3             0000000180039890 f   cuda:cuda_driverloader_generated_cuda_driverloader_cuda.obj
 0001:00038910       cuCtxCreate_v4             0000000180039910 f   cuda:cuda_driverloader_generated_cuda_driverloader_cuda.obj
 0001:00038980       cuCtxDestroy               0000000180039980 f   cuda:cuda_driverloader_generated_cuda_driverloader_cuda.obj
 0001:000389c0       cuCtxDestroy_v2            00000001800399c0 f   cuda:cuda_driverloader_generated_cuda_driverloader_cuda.obj
 0001:00038a00       cuCtxDetach                0000000180039a00 f   cuda:cuda_driverloader_generated_cuda_driverloader_cuda.obj
 0001:00038a40       cuCtxDisablePeerAccess     0000000180039a40 f   cuda:cuda_driverloader_generated_cuda_driverloader_cuda.obj
 0001:00038a80       cuCtxEnablePeerAccess      0000000180039a80 f   cuda:cuda_driverloader_generated_cuda_driverloader_cuda.obj
 0001:00038ae0       cuCtxFromGreenCtx          0000000180039ae0 f   cuda:cuda_driverloader_generated_cuda_driverloader_cuda.obj
 0001:00038b40       cuCtxGetApiVersion         0000000180039b40 f   cuda:cuda_driverloader_generated_cuda_driverloader_cuda.obj
 0001:00038ba0       cuCtxGetCacheConfig        0000000180039ba0 f   cuda:cuda_driverloader_generated_cuda_driverloader_cuda.obj
 0001:00038be0       cuCtxGetCurrent            0000000180039be0 f   cuda:cuda_driverloader_generated_cuda_driverloader_cuda.obj
 0001:00038c20       cuCtxGetDevResource        0000000180039c20 f   cuda:cuda_driverloader_generated_cuda_driverloader_cuda.obj
 0001:00038c90       cuCtxGetDevice             0000000180039c90 f   cuda:cuda_driverloader_generated_cuda_driverloader_cuda.obj
 0001:00038cd0       cuCtxGetDevice_v2          0000000180039cd0 f   cuda:cuda_driverloader_generated_cuda_driverloader_cuda.obj
 0001:00038d30       cuCtxGetExecAffinity       0000000180039d30 f   cuda:cuda_driverloader_generated_cuda_driverloader_cuda.obj
 0001:00038d90       cuCtxGetFlags              0000000180039d90 f   cuda:cuda_driverloader_generated_cuda_driverloader_cuda.obj
 0001:00038dd0       cuCtxGetId                 0000000180039dd0 f   cuda:cuda_driverloader_generated_cuda_driverloader_cuda.obj
 0001:00038e30       cuCtxGetLimit              0000000180039e30 f   cuda:cuda_driverloader_generated_cuda_driverloader_cuda.obj
 0001:00038e90       cuCtxGetSharedMemConfig    0000000180039e90 f   cuda:cuda_driverloader_generated_cuda_driverloader_cuda.obj
 0001:00038ed0       cuCtxGetStreamPriorityRange 0000000180039ed0 f   cuda:cuda_driverloader_generated_cuda_driverloader_cuda.obj
 0001:00038f30       cuCtxPopCurrent            0000000180039f30 f   cuda:cuda_driverloader_generated_cuda_driverloader_cuda.obj
 0001:00038f70       cuCtxPopCurrent_v2         0000000180039f70 f   cuda:cuda_driverloader_generated_cuda_driverloader_cuda.obj
 0001:00038fb0       cuCtxPushCurrent           0000000180039fb0 f   cuda:cuda_driverloader_generated_cuda_driverloader_cuda.obj
 0001:00038ff0       cuCtxPushCurrent_v2        0000000180039ff0 f   cuda:cuda_driverloader_generated_cuda_driverloader_cuda.obj
 0001:00039030       cuCtxRecordEvent           000000018003a030 f   cuda:cuda_driverloader_generated_cuda_driverloader_cuda.obj
 0001:00039090       cuCtxResetPersistingL2Cache 000000018003a090 f   cuda:cuda_driverloader_generated_cuda_driverloader_cuda.obj
 0001:000390d0       cuCtxSetCacheConfig        000000018003a0d0 f   cuda:cuda_driverloader_generated_cuda_driverloader_cuda.obj
 0001:00039110       cuCtxSetCurrent            000000018003a110 f   cuda:cuda_driverloader_generated_cuda_driverloader_cuda.obj
 0001:00039150       cuCtxSetFlags              000000018003a150 f   cuda:cuda_driverloader_generated_cuda_driverloader_cuda.obj
 0001:00039190       cuCtxSetLimit              000000018003a190 f   cuda:cuda_driverloader_generated_cuda_driverloader_cuda.obj
 0001:000391f0       cuCtxSetSharedMemConfig    000000018003a1f0 f   cuda:cuda_driverloader_generated_cuda_driverloader_cuda.obj
 0001:00039230       cuCtxSynchronize           000000018003a230 f   cuda:cuda_driverloader_generated_cuda_driverloader_cuda.obj
 0001:00039270       cuCtxSynchronize_v2        000000018003a270 f   cuda:cuda_driverloader_generated_cuda_driverloader_cuda.obj
 0001:000392b0       cuCtxWaitEvent             000000018003a2b0 f   cuda:cuda_driverloader_generated_cuda_driverloader_cuda.obj
 0001:00039310       cuDestroyExternalMemory    000000018003a310 f   cuda:cuda_driverloader_generated_cuda_driverloader_cuda.obj
 0001:00039350       cuDestroyExternalSemaphore 000000018003a350 f   cuda:cuda_driverloader_generated_cuda_driverloader_cuda.obj
 0001:00039390       cuDevResourceGenerateDesc  000000018003a390 f   cuda:cuda_driverloader_generated_cuda_driverloader_cuda.obj
 0001:00039400       cuDevSmResourceSplitByCount 000000018003a400 f   cuda:cuda_driverloader_generated_cuda_driverloader_cuda.obj
 0001:00039480       cuDeviceCanAccessPeer      000000018003a480 f   cuda:cuda_driverloader_generated_cuda_driverloader_cuda.obj
 0001:000394f0       cuDeviceComputeCapability  000000018003a4f0 f   cuda:cuda_driverloader_generated_cuda_driverloader_cuda.obj
 0001:00039560       cuDeviceGet                000000018003a560 f   cuda:cuda_driverloader_generated_cuda_driverloader_cuda.obj
 0001:000395c0       cuDeviceGetAttribute       000000018003a5c0 f   cuda:cuda_driverloader_generated_cuda_driverloader_cuda.obj
 0001:00039630       cuDeviceGetByPCIBusId      000000018003a630 f   cuda:cuda_driverloader_generated_cuda_driverloader_cuda.obj
 0001:00039690       cuDeviceGetCount           000000018003a690 f   cuda:cuda_driverloader_generated_cuda_driverloader_cuda.obj
 0001:000396d0       cuDeviceGetDefaultMemPool  000000018003a6d0 f   cuda:cuda_driverloader_generated_cuda_driverloader_cuda.obj
 0001:00039730       cuDeviceGetDevResource     000000018003a730 f   cuda:cuda_driverloader_generated_cuda_driverloader_cuda.obj
 0001:000397a0       cuDeviceGetExecAffinitySupport 000000018003a7a0 f   cuda:cuda_driverloader_generated_cuda_driverloader_cuda.obj
 0001:00039810       cuDeviceGetGraphMemAttribute 000000018003a810 f   cuda:cuda_driverloader_generated_cuda_driverloader_cuda.obj
 0001:00039880       cuDeviceGetHostAtomicCapabilities 000000018003a880 f   cuda:cuda_driverloader_generated_cuda_driverloader_cuda.obj
 0001:000398f0       cuDeviceGetLuid            000000018003a8f0 f   cuda:cuda_driverloader_generated_cuda_driverloader_cuda.obj
 0001:00039960       cuDeviceGetMemPool         000000018003a960 f   cuda:cuda_driverloader_generated_cuda_driverloader_cuda.obj
 0001:000399c0       cuDeviceGetName            000000018003a9c0 f   cuda:cuda_driverloader_generated_cuda_driverloader_cuda.obj
 0001:00039a30       cuDeviceGetNvSciSyncAttributes 000000018003aa30 f   cuda:cuda_driverloader_generated_cuda_driverloader_cuda.obj
 0001:00039aa0       cuDeviceGetP2PAtomicCapabilities 000000018003aaa0 f   cuda:cuda_driverloader_generated_cuda_driverloader_cuda.obj
 0001:00039b20       cuDeviceGetP2PAttribute    000000018003ab20 f   cuda:cuda_driverloader_generated_cuda_driverloader_cuda.obj
 0001:00039b90       cuDeviceGetPCIBusId        000000018003ab90 f   cuda:cuda_driverloader_generated_cuda_driverloader_cuda.obj
 0001:00039c00       cuDeviceGetProperties      000000018003ac00 f   cuda:cuda_driverloader_generated_cuda_driverloader_cuda.obj
 0001:00039c60       cuDeviceGetTexture1DLinearMaxWidth 000000018003ac60 f   cuda:cuda_driverloader_generated_cuda_driverloader_cuda.obj
 0001:00039cd0       cuDeviceGetUuid            000000018003acd0 f   cuda:cuda_driverloader_generated_cuda_driverloader_cuda.obj
 0001:00039d30       cuDeviceGetUuid_v2         000000018003ad30 f   cuda:cuda_driverloader_generated_cuda_driverloader_cuda.obj
 0001:00039d90       cuDeviceGraphMemTrim       000000018003ad90 f   cuda:cuda_driverloader_generated_cuda_driverloader_cuda.obj
 0001:00039dd0       cuDevicePrimaryCtxGetState 000000018003add0 f   cuda:cuda_driverloader_generated_cuda_driverloader_cuda.obj
 0001:00039e40       cuDevicePrimaryCtxRelease  000000018003ae40 f   cuda:cuda_driverloader_generated_cuda_driverloader_cuda.obj
 0001:00039e80       cuDevicePrimaryCtxRelease_v2 000000018003ae80 f   cuda:cuda_driverloader_generated_cuda_driverloader_cuda.obj
 0001:00039ec0       cuDevicePrimaryCtxReset    000000018003aec0 f   cuda:cuda_driverloader_generated_cuda_driverloader_cuda.obj
 0001:00039f00       cuDevicePrimaryCtxReset_v2 000000018003af00 f   cuda:cuda_driverloader_generated_cuda_driverloader_cuda.obj
 0001:00039f40       cuDevicePrimaryCtxRetain   000000018003af40 f   cuda:cuda_driverloader_generated_cuda_driverloader_cuda.obj
 0001:00039fa0       cuDevicePrimaryCtxSetFlags 000000018003afa0 f   cuda:cuda_driverloader_generated_cuda_driverloader_cuda.obj
 0001:00039ff0       cuDevicePrimaryCtxSetFlags_v2 000000018003aff0 f   cuda:cuda_driverloader_generated_cuda_driverloader_cuda.obj
 0001:0003a040       cuDeviceRegisterAsyncNotification 000000018003b040 f   cuda:cuda_driverloader_generated_cuda_driverloader_cuda.obj
 0001:0003a0b0       cuDeviceSetGraphMemAttribute 000000018003b0b0 f   cuda:cuda_driverloader_generated_cuda_driverloader_cuda.obj
 0001:0003a120       cuDeviceSetMemPool         000000018003b120 f   cuda:cuda_driverloader_generated_cuda_driverloader_cuda.obj
 0001:0003a180       cuDeviceTotalMem           000000018003b180 f   cuda:cuda_driverloader_generated_cuda_driverloader_cuda.obj
 0001:0003a1e0       cuDeviceTotalMem_v2        000000018003b1e0 f   cuda:cuda_driverloader_generated_cuda_driverloader_cuda.obj
 0001:0003a240       cuDeviceUnregisterAsyncNotification 000000018003b240 f   cuda:cuda_driverloader_generated_cuda_driverloader_cuda.obj
 0001:0003a2a0       cuDriverGetVersion         000000018003b2a0 f   cuda:cuda_driverloader_generated_cuda_driverloader_cuda.obj
 0001:0003a2e0       cuEventCreate              000000018003b2e0 f   cuda:cuda_driverloader_generated_cuda_driverloader_cuda.obj
 0001:0003a340       cuEventDestroy             000000018003b340 f   cuda:cuda_driverloader_generated_cuda_driverloader_cuda.obj
 0001:0003a380       cuEventDestroy_v2          000000018003b380 f   cuda:cuda_driverloader_generated_cuda_driverloader_cuda.obj
 0001:0003a3c0       cuEventElapsedTime         000000018003b3c0 f   cuda:cuda_driverloader_generated_cuda_driverloader_cuda.obj
 0001:0003a430       cuEventElapsedTime_v2      000000018003b430 f   cuda:cuda_driverloader_generated_cuda_driverloader_cuda.obj
 0001:0003a4a0       cuEventQuery               000000018003b4a0 f   cuda:cuda_driverloader_generated_cuda_driverloader_cuda.obj
 0001:0003a4e0       cuEventRecord              000000018003b4e0 f   cuda:cuda_driverloader_generated_cuda_driverloader_cuda.obj
 0001:0003a540       cuEventRecordWithFlags     000000018003b540 f   cuda:cuda_driverloader_generated_cuda_driverloader_cuda.obj
 0001:0003a5b0       cuEventRecordWithFlags_ptsz 000000018003b5b0 f   cuda:cuda_driverloader_generated_cuda_driverloader_cuda.obj
 0001:0003a620       cuEventRecord_ptsz         000000018003b620 f   cuda:cuda_driverloader_generated_cuda_driverloader_cuda.obj
 0001:0003a680       cuEventSynchronize         000000018003b680 f   cuda:cuda_driverloader_generated_cuda_driverloader_cuda.obj
 0001:0003a6c0       cuExternalMemoryGetMappedBuffer 000000018003b6c0 f   cuda:cuda_driverloader_generated_cuda_driverloader_cuda.obj
 0001:0003a730       cuExternalMemoryGetMappedMipmappedArray 000000018003b730 f   cuda:cuda_driverloader_generated_cuda_driverloader_cuda.obj
 0001:0003a7a0       cuFlushGPUDirectRDMAWrites 000000018003b7a0 f   cuda:cuda_driverloader_generated_cuda_driverloader_cuda.obj
 0001:0003a7f0       cuFuncGetAttribute         000000018003b7f0 f   cuda:cuda_driverloader_generated_cuda_driverloader_cuda.obj
 0001:0003a860       cuFuncGetModule            000000018003b860 f   cuda:cuda_driverloader_generated_cuda_driverloader_cuda.obj
 0001:0003a8c0       cuFuncGetName              000000018003b8c0 f   cuda:cuda_driverloader_generated_cuda_driverloader_cuda.obj
 0001:0003a920       cuFuncGetParamInfo         000000018003b920 f   cuda:cuda_driverloader_generated_cuda_driverloader_cuda.obj
 0001:0003a990       cuFuncIsLoaded             000000018003b990 f   cuda:cuda_driverloader_generated_cuda_driverloader_cuda.obj
 0001:0003a9f0       cuFuncLoad                 000000018003b9f0 f   cuda:cuda_driverloader_generated_cuda_driverloader_cuda.obj
 0001:0003aa30       cuFuncSetAttribute         000000018003ba30 f   cuda:cuda_driverloader_generated_cuda_driverloader_cuda.obj
 0001:0003aaa0       cuFuncSetBlockShape        000000018003baa0 f   cuda:cuda_driverloader_generated_cuda_driverloader_cuda.obj
 0001:0003ab10       cuFuncSetCacheConfig       000000018003bb10 f   cuda:cuda_driverloader_generated_cuda_driverloader_cuda.obj
 0001:0003ab70       cuFuncSetSharedMemConfig   000000018003bb70 f   cuda:cuda_driverloader_generated_cuda_driverloader_cuda.obj
 0001:0003abd0       cuFuncSetSharedSize        000000018003bbd0 f   cuda:cuda_driverloader_generated_cuda_driverloader_cuda.obj
 0001:0003ac30       cuGetErrorName             000000018003bc30 f   cuda:cuda_driverloader_generated_cuda_driverloader_cuda.obj
 0001:0003ac90       cuGetErrorString           000000018003bc90 f   cuda:cuda_driverloader_generated_cuda_driverloader_cuda.obj
 0001:0003acf0       cuGetExportTable           000000018003bcf0 f   cuda:cuda_driverloader_generated_cuda_driverloader_cuda.obj
 0001:0003ad50       cuGetProcAddress           000000018003bd50 f   cuda:cuda_driverloader_generated_cuda_driverloader_cuda.obj
 0001:0003adc0       cuGetProcAddress_v2        000000018003bdc0 f   cuda:cuda_driverloader_generated_cuda_driverloader_cuda.obj
 0001:0003ae40       cuGraphAddBatchMemOpNode   000000018003be40 f   cuda:cuda_driverloader_generated_cuda_driverloader_cuda.obj
 0001:0003aec0       cuGraphAddChildGraphNode   000000018003bec0 f   cuda:cuda_driverloader_generated_cuda_driverloader_cuda.obj
 0001:0003af40       cuGraphAddDependencies     000000018003bf40 f   cuda:cuda_driverloader_generated_cuda_driverloader_cuda.obj
 0001:0003afb0       cuGraphAddDependencies_v2  000000018003bfb0 f   cuda:cuda_driverloader_generated_cuda_driverloader_cuda.obj
 0001:0003b030       cuGraphAddEmptyNode        000000018003c030 f   cuda:cuda_driverloader_generated_cuda_driverloader_cuda.obj
 0001:0003b0a0       cuGraphAddEventRecordNode  000000018003c0a0 f   cuda:cuda_driverloader_generated_cuda_driverloader_cuda.obj
 0001:0003b120       cuGraphAddEventWaitNode    000000018003c120 f   cuda:cuda_driverloader_generated_cuda_driverloader_cuda.obj
 0001:0003b1a0       cuGraphAddExternalSemaphoresSignalNode 000000018003c1a0 f   cuda:cuda_driverloader_generated_cuda_driverloader_cuda.obj
 0001:0003b220       cuGraphAddExternalSemaphoresWaitNode 000000018003c220 f   cuda:cuda_driverloader_generated_cuda_driverloader_cuda.obj
 0001:0003b2a0       cuGraphAddHostNode         000000018003c2a0 f   cuda:cuda_driverloader_generated_cuda_driverloader_cuda.obj
 0001:0003b320       cuGraphAddKernelNode       000000018003c320 f   cuda:cuda_driverloader_generated_cuda_driverloader_cuda.obj
 0001:0003b3a0       cuGraphAddKernelNode_v2    000000018003c3a0 f   cuda:cuda_driverloader_generated_cuda_driverloader_cuda.obj
 0001:0003b420       cuGraphAddMemAllocNode     000000018003c420 f   cuda:cuda_driverloader_generated_cuda_driverloader_cuda.obj
 0001:0003b4a0       cuGraphAddMemFreeNode      000000018003c4a0 f   cuda:cuda_driverloader_generated_cuda_driverloader_cuda.obj
 0001:0003b520       cuGraphAddMemcpyNode       000000018003c520 f   cuda:cuda_driverloader_generated_cuda_driverloader_cuda.obj
 0001:0003b5a0       cuGraphAddMemsetNode       000000018003c5a0 f   cuda:cuda_driverloader_generated_cuda_driverloader_cuda.obj
 0001:0003b620       cuGraphAddNode             000000018003c620 f   cuda:cuda_driverloader_generated_cuda_driverloader_cuda.obj
 0001:0003b6a0       cuGraphAddNode_v2          000000018003c6a0 f   cuda:cuda_driverloader_generated_cuda_driverloader_cuda.obj
 0001:0003b720       cuGraphBatchMemOpNodeGetParams 000000018003c720 f   cuda:cuda_driverloader_generated_cuda_driverloader_cuda.obj
 0001:0003b780       cuGraphBatchMemOpNodeSetParams 000000018003c780 f   cuda:cuda_driverloader_generated_cuda_driverloader_cuda.obj
 0001:0003b7e0       cuGraphChildGraphNodeGetGraph 000000018003c7e0 f   cuda:cuda_driverloader_generated_cuda_driverloader_cuda.obj
 0001:0003b840       cuGraphClone               000000018003c840 f   cuda:cuda_driverloader_generated_cuda_driverloader_cuda.obj
 0001:0003b8a0       cuGraphConditionalHandleCreate 000000018003c8a0 f   cuda:cuda_driverloader_generated_cuda_driverloader_cuda.obj
 0001:0003b920       cuGraphCreate              000000018003c920 f   cuda:cuda_driverloader_generated_cuda_driverloader_cuda.obj
 0001:0003b980       cuGraphDebugDotPrint       000000018003c980 f   cuda:cuda_driverloader_generated_cuda_driverloader_cuda.obj
 0001:0003b9f0       cuGraphDestroy             000000018003c9f0 f   cuda:cuda_driverloader_generated_cuda_driverloader_cuda.obj
 0001:0003ba30       cuGraphDestroyNode         000000018003ca30 f   cuda:cuda_driverloader_generated_cuda_driverloader_cuda.obj
 0001:0003ba70       cuGraphEventRecordNodeGetEvent 000000018003ca70 f   cuda:cuda_driverloader_generated_cuda_driverloader_cuda.obj
 0001:0003bad0       cuGraphEventRecordNodeSetEvent 000000018003cad0 f   cuda:cuda_driverloader_generated_cuda_driverloader_cuda.obj
 0001:0003bb30       cuGraphEventWaitNodeGetEvent 000000018003cb30 f   cuda:cuda_driverloader_generated_cuda_driverloader_cuda.obj
 0001:0003bb90       cuGraphEventWaitNodeSetEvent 000000018003cb90 f   cuda:cuda_driverloader_generated_cuda_driverloader_cuda.obj
 0001:0003bbf0       cuGraphExecBatchMemOpNodeSetParams 000000018003cbf0 f   cuda:cuda_driverloader_generated_cuda_driverloader_cuda.obj
 0001:0003bc60       cuGraphExecChildGraphNodeSetParams 000000018003cc60 f   cuda:cuda_driverloader_generated_cuda_driverloader_cuda.obj
 0001:0003bcd0       cuGraphExecDestroy         000000018003ccd0 f   cuda:cuda_driverloader_generated_cuda_driverloader_cuda.obj
 0001:0003bd10       cuGraphExecEventRecordNodeSetEvent 000000018003cd10 f   cuda:cuda_driverloader_generated_cuda_driverloader_cuda.obj
 0001:0003bd80       cuGraphExecEventWaitNodeSetEvent 000000018003cd80 f   cuda:cuda_driverloader_generated_cuda_driverloader_cuda.obj
 0001:0003bdf0       cuGraphExecExternalSemaphoresSignalNodeSetParams 000000018003cdf0 f   cuda:cuda_driverloader_generated_cuda_driverloader_cuda.obj
 0001:0003be60       cuGraphExecExternalSemaphoresWaitNodeSetParams 000000018003ce60 f   cuda:cuda_driverloader_generated_cuda_driverloader_cuda.obj
 0001:0003bed0       cuGraphExecGetFlags        000000018003ced0 f   cuda:cuda_driverloader_generated_cuda_driverloader_cuda.obj
 0001:0003bf30       cuGraphExecHostNodeSetParams 000000018003cf30 f   cuda:cuda_driverloader_generated_cuda_driverloader_cuda.obj
 0001:0003bfa0       cuGraphExecKernelNodeSetParams 000000018003cfa0 f   cuda:cuda_driverloader_generated_cuda_driverloader_cuda.obj
 0001:0003c010       cuGraphExecKernelNodeSetParams_v2 000000018003d010 f   cuda:cuda_driverloader_generated_cuda_driverloader_cuda.obj
 0001:0003c080       cuGraphExecMemcpyNodeSetParams 000000018003d080 f   cuda:cuda_driverloader_generated_cuda_driverloader_cuda.obj
 0001:0003c0f0       cuGraphExecMemsetNodeSetParams 000000018003d0f0 f   cuda:cuda_driverloader_generated_cuda_driverloader_cuda.obj
 0001:0003c160       cuGraphExecNodeSetParams   000000018003d160 f   cuda:cuda_driverloader_generated_cuda_driverloader_cuda.obj
 0001:0003c1d0       cuGraphExecUpdate          000000018003d1d0 f   cuda:cuda_driverloader_generated_cuda_driverloader_cuda.obj
 0001:0003c240       cuGraphExecUpdate_v2       000000018003d240 f   cuda:cuda_driverloader_generated_cuda_driverloader_cuda.obj
 0001:0003c2b0       cuGraphExternalSemaphoresSignalNodeGetParams 000000018003d2b0 f   cuda:cuda_driverloader_generated_cuda_driverloader_cuda.obj
 0001:0003c310       cuGraphExternalSemaphoresSignalNodeSetParams 000000018003d310 f   cuda:cuda_driverloader_generated_cuda_driverloader_cuda.obj
 0001:0003c370       cuGraphExternalSemaphoresWaitNodeGetParams 000000018003d370 f   cuda:cuda_driverloader_generated_cuda_driverloader_cuda.obj
 0001:0003c3d0       cuGraphExternalSemaphoresWaitNodeSetParams 000000018003d3d0 f   cuda:cuda_driverloader_generated_cuda_driverloader_cuda.obj
 0001:0003c430       cuGraphGetEdges            000000018003d430 f   cuda:cuda_driverloader_generated_cuda_driverloader_cuda.obj
 0001:0003c4a0       cuGraphGetEdges_v2         000000018003d4a0 f   cuda:cuda_driverloader_generated_cuda_driverloader_cuda.obj
 0001:0003c520       cuGraphGetNodes            000000018003d520 f   cuda:cuda_driverloader_generated_cuda_driverloader_cuda.obj
 0001:0003c590       cuGraphGetRootNodes        000000018003d590 f   cuda:cuda_driverloader_generated_cuda_driverloader_cuda.obj
 0001:0003c600       cuGraphHostNodeGetParams   000000018003d600 f   cuda:cuda_driverloader_generated_cuda_driverloader_cuda.obj
 0001:0003c660       cuGraphHostNodeSetParams   000000018003d660 f   cuda:cuda_driverloader_generated_cuda_driverloader_cuda.obj
 0001:0003c6c0       cuGraphInstantiate         000000018003d6c0 f   cuda:cuda_driverloader_generated_cuda_driverloader_cuda.obj
 0001:0003c740       cuGraphInstantiateWithFlags 000000018003d740 f   cuda:cuda_driverloader_generated_cuda_driverloader_cuda.obj
 0001:0003c7b0       cuGraphInstantiateWithParams 000000018003d7b0 f   cuda:cuda_driverloader_generated_cuda_driverloader_cuda.obj
 0001:0003c820       cuGraphInstantiateWithParams_ptsz 000000018003d820 f   cuda:cuda_driverloader_generated_cuda_driverloader_cuda.obj
 0001:0003c890       cuGraphInstantiate_v2      000000018003d890 f   cuda:cuda_driverloader_generated_cuda_driverloader_cuda.obj
 0001:0003c910       cuGraphKernelNodeCopyAttributes 000000018003d910 f   cuda:cuda_driverloader_generated_cuda_driverloader_cuda.obj
 0001:0003c970       cuGraphKernelNodeGetAttribute 000000018003d970 f   cuda:cuda_driverloader_generated_cuda_driverloader_cuda.obj
 0001:0003c9e0       cuGraphKernelNodeGetParams 000000018003d9e0 f   cuda:cuda_driverloader_generated_cuda_driverloader_cuda.obj
 0001:0003ca40       cuGraphKernelNodeGetParams_v2 000000018003da40 f   cuda:cuda_driverloader_generated_cuda_driverloader_cuda.obj
 0001:0003caa0       cuGraphKernelNodeSetAttribute 000000018003daa0 f   cuda:cuda_driverloader_generated_cuda_driverloader_cuda.obj
 0001:0003cb10       cuGraphKernelNodeSetParams 000000018003db10 f   cuda:cuda_driverloader_generated_cuda_driverloader_cuda.obj
 0001:0003cb70       cuGraphKernelNodeSetParams_v2 000000018003db70 f   cuda:cuda_driverloader_generated_cuda_driverloader_cuda.obj
 0001:0003cbd0       cuGraphLaunch              000000018003dbd0 f   cuda:cuda_driverloader_generated_cuda_driverloader_cuda.obj
 0001:0003cc30       cuGraphLaunch_ptsz         000000018003dc30 f   cuda:cuda_driverloader_generated_cuda_driverloader_cuda.obj
 0001:0003cc90       cuGraphMemAllocNodeGetParams 000000018003dc90 f   cuda:cuda_driverloader_generated_cuda_driverloader_cuda.obj
 0001:0003ccf0       cuGraphMemFreeNodeGetParams 000000018003dcf0 f   cuda:cuda_driverloader_generated_cuda_driverloader_cuda.obj
 0001:0003cd50       cuGraphMemcpyNodeGetParams 000000018003dd50 f   cuda:cuda_driverloader_generated_cuda_driverloader_cuda.obj
 0001:0003cdb0       cuGraphMemcpyNodeSetParams 000000018003ddb0 f   cuda:cuda_driverloader_generated_cuda_driverloader_cuda.obj
 0001:0003ce10       cuGraphMemsetNodeGetParams 000000018003de10 f   cuda:cuda_driverloader_generated_cuda_driverloader_cuda.obj
 0001:0003ce70       cuGraphMemsetNodeSetParams 000000018003de70 f   cuda:cuda_driverloader_generated_cuda_driverloader_cuda.obj
 0001:0003ced0       cuGraphNodeFindInClone     000000018003ded0 f   cuda:cuda_driverloader_generated_cuda_driverloader_cuda.obj
 0001:0003cf40       cuGraphNodeGetDependencies 000000018003df40 f   cuda:cuda_driverloader_generated_cuda_driverloader_cuda.obj
 0001:0003cfb0       cuGraphNodeGetDependencies_v2 000000018003dfb0 f   cuda:cuda_driverloader_generated_cuda_driverloader_cuda.obj
 0001:0003d020       cuGraphNodeGetDependentNodes 000000018003e020 f   cuda:cuda_driverloader_generated_cuda_driverloader_cuda.obj
 0001:0003d090       cuGraphNodeGetDependentNodes_v2 000000018003e090 f   cuda:cuda_driverloader_generated_cuda_driverloader_cuda.obj
 0001:0003d100       cuGraphNodeGetEnabled      000000018003e100 f   cuda:cuda_driverloader_generated_cuda_driverloader_cuda.obj
 0001:0003d170       cuGraphNodeGetType         000000018003e170 f   cuda:cuda_driverloader_generated_cuda_driverloader_cuda.obj
 0001:0003d1d0       cuGraphNodeSetEnabled      000000018003e1d0 f   cuda:cuda_driverloader_generated_cuda_driverloader_cuda.obj
 0001:0003d240       cuGraphNodeSetParams       000000018003e240 f   cuda:cuda_driverloader_generated_cuda_driverloader_cuda.obj
 0001:0003d2a0       cuGraphReleaseUserObject   000000018003e2a0 f   cuda:cuda_driverloader_generated_cuda_driverloader_cuda.obj
 0001:0003d310       cuGraphRemoveDependencies  000000018003e310 f   cuda:cuda_driverloader_generated_cuda_driverloader_cuda.obj
 0001:0003d380       cuGraphRemoveDependencies_v2 000000018003e380 f   cuda:cuda_driverloader_generated_cuda_driverloader_cuda.obj
 0001:0003d400       cuGraphRetainUserObject    000000018003e400 f   cuda:cuda_driverloader_generated_cuda_driverloader_cuda.obj
 0001:0003d470       cuGraphUpload              000000018003e470 f   cuda:cuda_driverloader_generated_cuda_driverloader_cuda.obj
 0001:0003d4d0       cuGraphUpload_ptsz         000000018003e4d0 f   cuda:cuda_driverloader_generated_cuda_driverloader_cuda.obj
 0001:0003d530       cuGraphicsMapResources     000000018003e530 f   cuda:cuda_driverloader_generated_cuda_driverloader_cuda.obj
 0001:0003d5a0       cuGraphicsMapResources_ptsz 000000018003e5a0 f   cuda:cuda_driverloader_generated_cuda_driverloader_cuda.obj
 0001:0003d610       cuGraphicsResourceGetMappedMipmappedArray 000000018003e610 f   cuda:cuda_driverloader_generated_cuda_driverloader_cuda.obj
 0001:0003d670       cuGraphicsResourceGetMappedPointer 000000018003e670 f   cuda:cuda_driverloader_generated_cuda_driverloader_cuda.obj
 0001:0003d6e0       cuGraphicsResourceGetMappedPointer_v2 000000018003e6e0 f   cuda:cuda_driverloader_generated_cuda_driverloader_cuda.obj
 0001:0003d750       cuGraphicsResourceSetMapFlags 000000018003e750 f   cuda:cuda_driverloader_generated_cuda_driverloader_cuda.obj
 0001:0003d7b0       cuGraphicsResourceSetMapFlags_v2 000000018003e7b0 f   cuda:cuda_driverloader_generated_cuda_driverloader_cuda.obj
 0001:0003d810       cuGraphicsSubResourceGetMappedArray 000000018003e810 f   cuda:cuda_driverloader_generated_cuda_driverloader_cuda.obj
 0001:0003d880       cuGraphicsUnmapResources   000000018003e880 f   cuda:cuda_driverloader_generated_cuda_driverloader_cuda.obj
 0001:0003d8f0       cuGraphicsUnmapResources_ptsz 000000018003e8f0 f   cuda:cuda_driverloader_generated_cuda_driverloader_cuda.obj
 0001:0003d960       cuGraphicsUnregisterResource 000000018003e960 f   cuda:cuda_driverloader_generated_cuda_driverloader_cuda.obj
 0001:0003d9a0       cuGreenCtxCreate           000000018003e9a0 f   cuda:cuda_driverloader_generated_cuda_driverloader_cuda.obj
 0001:0003da10       cuGreenCtxDestroy          000000018003ea10 f   cuda:cuda_driverloader_generated_cuda_driverloader_cuda.obj
 0001:0003da50       cuGreenCtxGetDevResource   000000018003ea50 f   cuda:cuda_driverloader_generated_cuda_driverloader_cuda.obj
 0001:0003dac0       cuGreenCtxGetId            000000018003eac0 f   cuda:cuda_driverloader_generated_cuda_driverloader_cuda.obj
 0001:0003db20       cuGreenCtxRecordEvent      000000018003eb20 f   cuda:cuda_driverloader_generated_cuda_driverloader_cuda.obj
 0001:0003db80       cuGreenCtxStreamCreate     000000018003eb80 f   cuda:cuda_driverloader_generated_cuda_driverloader_cuda.obj
 0001:0003dbf0       cuGreenCtxWaitEvent        000000018003ebf0 f   cuda:cuda_driverloader_generated_cuda_driverloader_cuda.obj
 0001:0003dc50       cuImportExternalMemory     000000018003ec50 f   cuda:cuda_driverloader_generated_cuda_driverloader_cuda.obj
 0001:0003dcb0       cuImportExternalSemaphore  000000018003ecb0 f   cuda:cuda_driverloader_generated_cuda_driverloader_cuda.obj
 0001:0003dd10       cuInit                     000000018003ed10 f   cuda:cuda_driverloader_generated_cuda_driverloader_cuda.obj
 0001:0003dd50       cuIpcCloseMemHandle        000000018003ed50 f   cuda:cuda_driverloader_generated_cuda_driverloader_cuda.obj
 0001:0003dd90       cuIpcGetEventHandle        000000018003ed90 f   cuda:cuda_driverloader_generated_cuda_driverloader_cuda.obj
 0001:0003ddf0       cuIpcGetMemHandle          000000018003edf0 f   cuda:cuda_driverloader_generated_cuda_driverloader_cuda.obj
 0001:0003de50       cuIpcOpenEventHandle       000000018003ee50 f   cuda:cuda_driverloader_generated_cuda_driverloader_cuda.obj
 0001:0003ded0       cuIpcOpenMemHandle         000000018003eed0 f   cuda:cuda_driverloader_generated_cuda_driverloader_cuda.obj
 0001:0003df60       cuIpcOpenMemHandle_v2      000000018003ef60 f   cuda:cuda_driverloader_generated_cuda_driverloader_cuda.obj
 0001:0003dff0       cuKernelGetAttribute       000000018003eff0 f   cuda:cuda_driverloader_generated_cuda_driverloader_cuda.obj
 0001:0003e060       cuKernelGetFunction        000000018003f060 f   cuda:cuda_driverloader_generated_cuda_driverloader_cuda.obj
 0001:0003e0c0       cuKernelGetLibrary         000000018003f0c0 f   cuda:cuda_driverloader_generated_cuda_driverloader_cuda.obj
 0001:0003e120       cuKernelGetName            000000018003f120 f   cuda:cuda_driverloader_generated_cuda_driverloader_cuda.obj
 0001:0003e180       cuKernelGetParamInfo       000000018003f180 f   cuda:cuda_driverloader_generated_cuda_driverloader_cuda.obj
 0001:0003e1f0       cuKernelSetAttribute       000000018003f1f0 f   cuda:cuda_driverloader_generated_cuda_driverloader_cuda.obj
 0001:0003e260       cuKernelSetCacheConfig     000000018003f260 f   cuda:cuda_driverloader_generated_cuda_driverloader_cuda.obj
 0001:0003e2d0       cuLaunch                   000000018003f2d0 f   cuda:cuda_driverloader_generated_cuda_driverloader_cuda.obj
 0001:0003e310       cuLaunchCooperativeKernel  000000018003f310 f   cuda:cuda_driverloader_generated_cuda_driverloader_cuda.obj
 0001:0003e3c0       cuLaunchCooperativeKernelMultiDevice 000000018003f3c0 f   cuda:cuda_driverloader_generated_cuda_driverloader_cuda.obj
 0001:0003e430       cuLaunchCooperativeKernel_ptsz 000000018003f430 f   cuda:cuda_driverloader_generated_cuda_driverloader_cuda.obj
 0001:0003e4e0       cuLaunchGrid               000000018003f4e0 f   cuda:cuda_driverloader_generated_cuda_driverloader_cuda.obj
 0001:0003e550       cuLaunchGridAsync          000000018003f550 f   cuda:cuda_driverloader_generated_cuda_driverloader_cuda.obj
 0001:0003e5c0       cuLaunchHostFunc           000000018003f5c0 f   cuda:cuda_driverloader_generated_cuda_driverloader_cuda.obj
 0001:0003e630       cuLaunchHostFunc_ptsz      000000018003f630 f   cuda:cuda_driverloader_generated_cuda_driverloader_cuda.obj
 0001:0003e6a0       cuLaunchKernel             000000018003f6a0 f   cuda:cuda_driverloader_generated_cuda_driverloader_cuda.obj
 0001:0003e760       cuLaunchKernelEx           000000018003f760 f   cuda:cuda_driverloader_generated_cuda_driverloader_cuda.obj
 0001:0003e7d0       cuLaunchKernelEx_ptsz      000000018003f7d0 f   cuda:cuda_driverloader_generated_cuda_driverloader_cuda.obj
 0001:0003e840       cuLaunchKernel_ptsz        000000018003f840 f   cuda:cuda_driverloader_generated_cuda_driverloader_cuda.obj
 0001:0003e900       cuLibraryEnumerateKernels  000000018003f900 f   cuda:cuda_driverloader_generated_cuda_driverloader_cuda.obj
 0001:0003e970       cuLibraryGetGlobal         000000018003f970 f   cuda:cuda_driverloader_generated_cuda_driverloader_cuda.obj
 0001:0003e9e0       cuLibraryGetKernel         000000018003f9e0 f   cuda:cuda_driverloader_generated_cuda_driverloader_cuda.obj
 0001:0003ea50       cuLibraryGetKernelCount    000000018003fa50 f   cuda:cuda_driverloader_generated_cuda_driverloader_cuda.obj
 0001:0003eab0       cuLibraryGetManaged        000000018003fab0 f   cuda:cuda_driverloader_generated_cuda_driverloader_cuda.obj
 0001:0003eb20       cuLibraryGetModule         000000018003fb20 f   cuda:cuda_driverloader_generated_cuda_driverloader_cuda.obj
 0001:0003eb80       cuLibraryGetUnifiedFunction 000000018003fb80 f   cuda:cuda_driverloader_generated_cuda_driverloader_cuda.obj
 0001:0003ebf0       cuLibraryLoadData          000000018003fbf0 f   cuda:cuda_driverloader_generated_cuda_driverloader_cuda.obj
 0001:0003ec90       cuLibraryLoadFromFile      000000018003fc90 f   cuda:cuda_driverloader_generated_cuda_driverloader_cuda.obj
 0001:0003ed30       cuLibraryUnload            000000018003fd30 f   cuda:cuda_driverloader_generated_cuda_driverloader_cuda.obj
 0001:0003ed70       cuLinkAddData              000000018003fd70 f   cuda:cuda_driverloader_generated_cuda_driverloader_cuda.obj
 0001:0003ee10       cuLinkAddData_v2           000000018003fe10 f   cuda:cuda_driverloader_generated_cuda_driverloader_cuda.obj
 0001:0003eeb0       cuLinkAddFile              000000018003feb0 f   cuda:cuda_driverloader_generated_cuda_driverloader_cuda.obj
 0001:0003ef30       cuLinkAddFile_v2           000000018003ff30 f   cuda:cuda_driverloader_generated_cuda_driverloader_cuda.obj
 0001:0003efb0       cuLinkComplete             000000018003ffb0 f   cuda:cuda_driverloader_generated_cuda_driverloader_cuda.obj
 0001:0003f020       cuLinkCreate               0000000180040020 f   cuda:cuda_driverloader_generated_cuda_driverloader_cuda.obj
 0001:0003f090       cuLinkCreate_v2            0000000180040090 f   cuda:cuda_driverloader_generated_cuda_driverloader_cuda.obj
 0001:0003f100       cuLinkDestroy              0000000180040100 f   cuda:cuda_driverloader_generated_cuda_driverloader_cuda.obj
 0001:0003f140       cuLogsCurrent              0000000180040140 f   cuda:cuda_driverloader_generated_cuda_driverloader_cuda.obj
 0001:0003f1a0       cuLogsDumpToFile           00000001800401a0 f   cuda:cuda_driverloader_generated_cuda_driverloader_cuda.obj
 0001:0003f210       cuLogsDumpToMemory         0000000180040210 f   cuda:cuda_driverloader_generated_cuda_driverloader_cuda.obj
 0001:0003f280       cuLogsRegisterCallback     0000000180040280 f   cuda:cuda_driverloader_generated_cuda_driverloader_cuda.obj
 0001:0003f2f0       cuLogsUnregisterCallback   00000001800402f0 f   cuda:cuda_driverloader_generated_cuda_driverloader_cuda.obj
 0001:0003f330       cuMemAddressFree           0000000180040330 f   cuda:cuda_driverloader_generated_cuda_driverloader_cuda.obj
 0001:0003f390       cuMemAddressReserve        0000000180040390 f   cuda:cuda_driverloader_generated_cuda_driverloader_cuda.obj
 0001:0003f410       cuMemAdvise                0000000180040410 f   cuda:cuda_driverloader_generated_cuda_driverloader_cuda.obj
 0001:0003f480       cuMemAdvise_v2             0000000180040480 f   cuda:cuda_driverloader_generated_cuda_driverloader_cuda.obj
 0001:0003f500       cuMemAlloc                 0000000180040500 f   cuda:cuda_driverloader_generated_cuda_driverloader_cuda.obj
 0001:0003f560       cuMemAllocAsync            0000000180040560 f   cuda:cuda_driverloader_generated_cuda_driverloader_cuda.obj
 0001:0003f5d0       cuMemAllocAsync_ptsz       00000001800405d0 f   cuda:cuda_driverloader_generated_cuda_driverloader_cuda.obj
 0001:0003f640       cuMemAllocFromPoolAsync    0000000180040640 f   cuda:cuda_driverloader_generated_cuda_driverloader_cuda.obj
 0001:0003f6b0       cuMemAllocFromPoolAsync_ptsz 00000001800406b0 f   cuda:cuda_driverloader_generated_cuda_driverloader_cuda.obj
 0001:0003f720       cuMemAllocHost             0000000180040720 f   cuda:cuda_driverloader_generated_cuda_driverloader_cuda.obj
 0001:0003f780       cuMemAllocHost_v2          0000000180040780 f   cuda:cuda_driverloader_generated_cuda_driverloader_cuda.obj
 0001:0003f7e0       cuMemAllocManaged          00000001800407e0 f   cuda:cuda_driverloader_generated_cuda_driverloader_cuda.obj
 0001:0003f850       cuMemAllocPitch            0000000180040850 f   cuda:cuda_driverloader_generated_cuda_driverloader_cuda.obj
 0001:0003f8d0       cuMemAllocPitch_v2         00000001800408d0 f   cuda:cuda_driverloader_generated_cuda_driverloader_cuda.obj
 0001:0003f950       cuMemAlloc_v2              0000000180040950 f   cuda:cuda_driverloader_generated_cuda_driverloader_cuda.obj
 0001:0003f9b0       cuMemBatchDecompressAsync  00000001800409b0 f   cuda:cuda_driverloader_generated_cuda_driverloader_cuda.obj
 0001:0003fa30       cuMemBatchDecompressAsync_ptsz 0000000180040a30 f   cuda:cuda_driverloader_generated_cuda_driverloader_cuda.obj
 0001:0003fab0       cuMemCreate                0000000180040ab0 f   cuda:cuda_driverloader_generated_cuda_driverloader_cuda.obj
 0001:0003fb20       cuMemDiscardAndPrefetchBatchAsync 0000000180040b20 f   cuda:cuda_driverloader_generated_cuda_driverloader_cuda.obj
 0001:0003fbc0       cuMemDiscardAndPrefetchBatchAsync_ptsz 0000000180040bc0 f   cuda:cuda_driverloader_generated_cuda_driverloader_cuda.obj
 0001:0003fc60       cuMemDiscardBatchAsync     0000000180040c60 f   cuda:cuda_driverloader_generated_cuda_driverloader_cuda.obj
 0001:0003fce0       cuMemDiscardBatchAsync_ptsz 0000000180040ce0 f   cuda:cuda_driverloader_generated_cuda_driverloader_cuda.obj
 0001:0003fd60       cuMemExportToShareableHandle 0000000180040d60 f   cuda:cuda_driverloader_generated_cuda_driverloader_cuda.obj
 0001:0003fdd0       cuMemFree                  0000000180040dd0 f   cuda:cuda_driverloader_generated_cuda_driverloader_cuda.obj
 0001:0003fe10       cuMemFreeAsync             0000000180040e10 f   cuda:cuda_driverloader_generated_cuda_driverloader_cuda.obj
 0001:0003fe70       cuMemFreeAsync_ptsz        0000000180040e70 f   cuda:cuda_driverloader_generated_cuda_driverloader_cuda.obj
 0001:0003fed0       cuMemFreeHost              0000000180040ed0 f   cuda:cuda_driverloader_generated_cuda_driverloader_cuda.obj
 0001:0003ff10       cuMemFree_v2               0000000180040f10 f   cuda:cuda_driverloader_generated_cuda_driverloader_cuda.obj
 0001:0003ff50       cuMemGetAccess             0000000180040f50 f   cuda:cuda_driverloader_generated_cuda_driverloader_cuda.obj
 0001:0003ffc0       cuMemGetAddressRange       0000000180040fc0 f   cuda:cuda_driverloader_generated_cuda_driverloader_cuda.obj
 0001:00040030       cuMemGetAddressRange_v2    0000000180041030 f   cuda:cuda_driverloader_generated_cuda_driverloader_cuda.obj
 0001:000400a0       cuMemGetAllocationGranularity 00000001800410a0 f   cuda:cuda_driverloader_generated_cuda_driverloader_cuda.obj
 0001:00040110       cuMemGetAllocationPropertiesFromHandle 0000000180041110 f   cuda:cuda_driverloader_generated_cuda_driverloader_cuda.obj
 0001:00040170       cuMemGetDefaultMemPool     0000000180041170 f   cuda:cuda_driverloader_generated_cuda_driverloader_cuda.obj
 0001:000401e0       cuMemGetHandleForAddressRange 00000001800411e0 f   cuda:cuda_driverloader_generated_cuda_driverloader_cuda.obj
 0001:00040260       cuMemGetInfo               0000000180041260 f   cuda:cuda_driverloader_generated_cuda_driverloader_cuda.obj
 0001:000402c0       cuMemGetInfo_v2            00000001800412c0 f   cuda:cuda_driverloader_generated_cuda_driverloader_cuda.obj
 0001:00040320       cuMemGetMemPool            0000000180041320 f   cuda:cuda_driverloader_generated_cuda_driverloader_cuda.obj
 0001:00040390       cuMemHostAlloc             0000000180041390 f   cuda:cuda_driverloader_generated_cuda_driverloader_cuda.obj
 0001:00040400       cuMemHostGetDevicePointer  0000000180041400 f   cuda:cuda_driverloader_generated_cuda_driverloader_cuda.obj
 0001:00040470       cuMemHostGetDevicePointer_v2 0000000180041470 f   cuda:cuda_driverloader_generated_cuda_driverloader_cuda.obj
 0001:000404e0       cuMemHostGetFlags          00000001800414e0 f   cuda:cuda_driverloader_generated_cuda_driverloader_cuda.obj
 0001:00040540       cuMemHostRegister          0000000180041540 f   cuda:cuda_driverloader_generated_cuda_driverloader_cuda.obj
 0001:000405b0       cuMemHostRegister_v2       00000001800415b0 f   cuda:cuda_driverloader_generated_cuda_driverloader_cuda.obj
 0001:00040620       cuMemHostUnregister        0000000180041620 f   cuda:cuda_driverloader_generated_cuda_driverloader_cuda.obj
 0001:00040660       cuMemImportFromShareableHandle 0000000180041660 f   cuda:cuda_driverloader_generated_cuda_driverloader_cuda.obj
 0001:000406d0       cuMemMap                   00000001800416d0 f   cuda:cuda_driverloader_generated_cuda_driverloader_cuda.obj
 0001:00040750       cuMemMapArrayAsync         0000000180041750 f   cuda:cuda_driverloader_generated_cuda_driverloader_cuda.obj
 0001:000407c0       cuMemMapArrayAsync_ptsz    00000001800417c0 f   cuda:cuda_driverloader_generated_cuda_driverloader_cuda.obj
 0001:00040830       cuMemPoolCreate            0000000180041830 f   cuda:cuda_driverloader_generated_cuda_driverloader_cuda.obj
 0001:00040890       cuMemPoolDestroy           0000000180041890 f   cuda:cuda_driverloader_generated_cuda_driverloader_cuda.obj
 0001:000408d0       cuMemPoolExportPointer     00000001800418d0 f   cuda:cuda_driverloader_generated_cuda_driverloader_cuda.obj
 0001:00040930       cuMemPoolExportToShareableHandle 0000000180041930 f   cuda:cuda_driverloader_generated_cuda_driverloader_cuda.obj
 0001:000409a0       cuMemPoolGetAccess         00000001800419a0 f   cuda:cuda_driverloader_generated_cuda_driverloader_cuda.obj
 0001:00040a10       cuMemPoolGetAttribute      0000000180041a10 f   cuda:cuda_driverloader_generated_cuda_driverloader_cuda.obj
 0001:00040a80       cuMemPoolImportFromShareableHandle 0000000180041a80 f   cuda:cuda_driverloader_generated_cuda_driverloader_cuda.obj
 0001:00040af0       cuMemPoolImportPointer     0000000180041af0 f   cuda:cuda_driverloader_generated_cuda_driverloader_cuda.obj
 0001:00040b60       cuMemPoolSetAccess         0000000180041b60 f   cuda:cuda_driverloader_generated_cuda_driverloader_cuda.obj
 0001:00040bd0       cuMemPoolSetAttribute      0000000180041bd0 f   cuda:cuda_driverloader_generated_cuda_driverloader_cuda.obj
 0001:00040c40       cuMemPoolTrimTo            0000000180041c40 f   cuda:cuda_driverloader_generated_cuda_driverloader_cuda.obj
 0001:00040ca0       cuMemPrefetchAsync         0000000180041ca0 f   cuda:cuda_driverloader_generated_cuda_driverloader_cuda.obj
 0001:00040d10       cuMemPrefetchAsync_ptsz    0000000180041d10 f   cuda:cuda_driverloader_generated_cuda_driverloader_cuda.obj
 0001:00040d80       cuMemPrefetchAsync_v2      0000000180041d80 f   cuda:cuda_driverloader_generated_cuda_driverloader_cuda.obj
 0001:00040e00       cuMemPrefetchAsync_v2_ptsz 0000000180041e00 f   cuda:cuda_driverloader_generated_cuda_driverloader_cuda.obj
 0001:00040e80       cuMemPrefetchBatchAsync    0000000180041e80 f   cuda:cuda_driverloader_generated_cuda_driverloader_cuda.obj
 0001:00040f20       cuMemPrefetchBatchAsync_ptsz 0000000180041f20 f   cuda:cuda_driverloader_generated_cuda_driverloader_cuda.obj
 0001:00040fc0       cuMemRangeGetAttribute     0000000180041fc0 f   cuda:cuda_driverloader_generated_cuda_driverloader_cuda.obj
 0001:00041040       cuMemRangeGetAttributes    0000000180042040 f   cuda:cuda_driverloader_generated_cuda_driverloader_cuda.obj
 0001:000410c0       cuMemRelease               00000001800420c0 f   cuda:cuda_driverloader_generated_cuda_driverloader_cuda.obj
 0001:00041100       cuMemRetainAllocationHandle 0000000180042100 f   cuda:cuda_driverloader_generated_cuda_driverloader_cuda.obj
 0001:00041160       cuMemSetAccess             0000000180042160 f   cuda:cuda_driverloader_generated_cuda_driverloader_cuda.obj
 0001:000411d0       cuMemSetMemPool            00000001800421d0 f   cuda:cuda_driverloader_generated_cuda_driverloader_cuda.obj
 0001:00041240       cuMemUnmap                 0000000180042240 f   cuda:cuda_driverloader_generated_cuda_driverloader_cuda.obj
 0001:000412a0       cuMemcpy                   00000001800422a0 f   cuda:cuda_driverloader_generated_cuda_driverloader_cuda.obj
 0001:00041310       cuMemcpy2D                 0000000180042310 f   cuda:cuda_driverloader_generated_cuda_driverloader_cuda.obj
 0001:00041350       cuMemcpy2DAsync            0000000180042350 f   cuda:cuda_driverloader_generated_cuda_driverloader_cuda.obj
 0001:000413b0       cuMemcpy2DAsync_v2         00000001800423b0 f   cuda:cuda_driverloader_generated_cuda_driverloader_cuda.obj
 0001:00041410       cuMemcpy2DAsync_v2_ptsz    0000000180042410 f   cuda:cuda_driverloader_generated_cuda_driverloader_cuda.obj
 0001:00041470       cuMemcpy2DUnaligned        0000000180042470 f   cuda:cuda_driverloader_generated_cuda_driverloader_cuda.obj
 0001:000414b0       cuMemcpy2DUnaligned_v2     00000001800424b0 f   cuda:cuda_driverloader_generated_cuda_driverloader_cuda.obj
 0001:000414f0       cuMemcpy2DUnaligned_v2_ptds 00000001800424f0 f   cuda:cuda_driverloader_generated_cuda_driverloader_cuda.obj
 0001:00041530       cuMemcpy2D_v2              0000000180042530 f   cuda:cuda_driverloader_generated_cuda_driverloader_cuda.obj
 0001:00041570       cuMemcpy2D_v2_ptds         0000000180042570 f   cuda:cuda_driverloader_generated_cuda_driverloader_cuda.obj
 0001:000415b0       cuMemcpy3D                 00000001800425b0 f   cuda:cuda_driverloader_generated_cuda_driverloader_cuda.obj
 0001:000415f0       cuMemcpy3DAsync            00000001800425f0 f   cuda:cuda_driverloader_generated_cuda_driverloader_cuda.obj
 0001:00041650       cuMemcpy3DAsync_v2         0000000180042650 f   cuda:cuda_driverloader_generated_cuda_driverloader_cuda.obj
 0001:000416b0       cuMemcpy3DAsync_v2_ptsz    00000001800426b0 f   cuda:cuda_driverloader_generated_cuda_driverloader_cuda.obj
 0001:00041710       cuMemcpy3DBatchAsync       0000000180042710 f   cuda:cuda_driverloader_generated_cuda_driverloader_cuda.obj
 0001:00041790       cuMemcpy3DBatchAsync_ptsz  0000000180042790 f   cuda:cuda_driverloader_generated_cuda_driverloader_cuda.obj
 0001:00041810       cuMemcpy3DBatchAsync_v2    0000000180042810 f   cuda:cuda_driverloader_generated_cuda_driverloader_cuda.obj
 0001:00041880       cuMemcpy3DBatchAsync_v2_ptsz 0000000180042880 f   cuda:cuda_driverloader_generated_cuda_driverloader_cuda.obj
 0001:000418f0       cuMemcpy3DPeer             00000001800428f0 f   cuda:cuda_driverloader_generated_cuda_driverloader_cuda.obj
 0001:00041930       cuMemcpy3DPeerAsync        0000000180042930 f   cuda:cuda_driverloader_generated_cuda_driverloader_cuda.obj
 0001:00041990       cuMemcpy3DPeerAsync_ptsz   0000000180042990 f   cuda:cuda_driverloader_generated_cuda_driverloader_cuda.obj
 0001:000419f0       cuMemcpy3DPeer_ptds        00000001800429f0 f   cuda:cuda_driverloader_generated_cuda_driverloader_cuda.obj
 0001:00041a30       cuMemcpy3D_v2              0000000180042a30 f   cuda:cuda_driverloader_generated_cuda_driverloader_cuda.obj
 0001:00041a70       cuMemcpy3D_v2_ptds         0000000180042a70 f   cuda:cuda_driverloader_generated_cuda_driverloader_cuda.obj
 0001:00041ab0       cuMemcpyAsync              0000000180042ab0 f   cuda:cuda_driverloader_generated_cuda_driverloader_cuda.obj
 0001:00041b20       cuMemcpyAsync_ptsz         0000000180042b20 f   cuda:cuda_driverloader_generated_cuda_driverloader_cuda.obj
 0001:00041b90       cuMemcpyAtoA               0000000180042b90 f   cuda:cuda_driverloader_generated_cuda_driverloader_cuda.obj
 0001:00041c10       cuMemcpyAtoA_v2            0000000180042c10 f   cuda:cuda_driverloader_generated_cuda_driverloader_cuda.obj
 0001:00041c90       cuMemcpyAtoA_v2_ptds       0000000180042c90 f   cuda:cuda_driverloader_generated_cuda_driverloader_cuda.obj
 0001:00041d10       cuMemcpyAtoD               0000000180042d10 f   cuda:cuda_driverloader_generated_cuda_driverloader_cuda.obj
 0001:00041d80       cuMemcpyAtoD_v2            0000000180042d80 f   cuda:cuda_driverloader_generated_cuda_driverloader_cuda.obj
 0001:00041df0       cuMemcpyAtoD_v2_ptds       0000000180042df0 f   cuda:cuda_driverloader_generated_cuda_driverloader_cuda.obj
 0001:00041e60       cuMemcpyAtoH               0000000180042e60 f   cuda:cuda_driverloader_generated_cuda_driverloader_cuda.obj
 0001:00041ed0       cuMemcpyAtoHAsync          0000000180042ed0 f   cuda:cuda_driverloader_generated_cuda_driverloader_cuda.obj
 0001:00041f50       cuMemcpyAtoHAsync_v2       0000000180042f50 f   cuda:cuda_driverloader_generated_cuda_driverloader_cuda.obj
 0001:00041fd0       cuMemcpyAtoHAsync_v2_ptsz  0000000180042fd0 f   cuda:cuda_driverloader_generated_cuda_driverloader_cuda.obj
 0001:00042050       cuMemcpyAtoH_v2            0000000180043050 f   cuda:cuda_driverloader_generated_cuda_driverloader_cuda.obj
 0001:000420c0       cuMemcpyAtoH_v2_ptds       00000001800430c0 f   cuda:cuda_driverloader_generated_cuda_driverloader_cuda.obj
 0001:00042130       cuMemcpyBatchAsync         0000000180043130 f   cuda:cuda_driverloader_generated_cuda_driverloader_cuda.obj
 0001:000421e0       cuMemcpyBatchAsync_ptsz    00000001800431e0 f   cuda:cuda_driverloader_generated_cuda_driverloader_cuda.obj
 0001:00042290       cuMemcpyBatchAsync_v2      0000000180043290 f   cuda:cuda_driverloader_generated_cuda_driverloader_cuda.obj
 0001:00042330       cuMemcpyBatchAsync_v2_ptsz 0000000180043330 f   cuda:cuda_driverloader_generated_cuda_driverloader_cuda.obj
 0001:000423d0       cuMemcpyDtoA               00000001800433d0 f   cuda:cuda_driverloader_generated_cuda_driverloader_cuda.obj
 0001:00042440       cuMemcpyDtoA_v2            0000000180043440 f   cuda:cuda_driverloader_generated_cuda_driverloader_cuda.obj
 0001:000424b0       cuMemcpyDtoA_v2_ptds       00000001800434b0 f   cuda:cuda_driverloader_generated_cuda_driverloader_cuda.obj
 0001:00042520       cuMemcpyDtoD               0000000180043520 f   cuda:cuda_driverloader_generated_cuda_driverloader_cuda.obj
 0001:00042590       cuMemcpyDtoDAsync          0000000180043590 f   cuda:cuda_driverloader_generated_cuda_driverloader_cuda.obj
 0001:00042600       cuMemcpyDtoDAsync_v2       0000000180043600 f   cuda:cuda_driverloader_generated_cuda_driverloader_cuda.obj
 0001:00042670       cuMemcpyDtoDAsync_v2_ptsz  0000000180043670 f   cuda:cuda_driverloader_generated_cuda_driverloader_cuda.obj
 0001:000426e0       cuMemcpyDtoD_v2            00000001800436e0 f   cuda:cuda_driverloader_generated_cuda_driverloader_cuda.obj
 0001:00042750       cuMemcpyDtoD_v2_ptds       0000000180043750 f   cuda:cuda_driverloader_generated_cuda_driverloader_cuda.obj
 0001:000427c0       cuMemcpyDtoH               00000001800437c0 f   cuda:cuda_driverloader_generated_cuda_driverloader_cuda.obj
 0001:00042830       cuMemcpyDtoHAsync          0000000180043830 f   cuda:cuda_driverloader_generated_cuda_driverloader_cuda.obj
 0001:000428a0       cuMemcpyDtoHAsync_v2       00000001800438a0 f   cuda:cuda_driverloader_generated_cuda_driverloader_cuda.obj
 0001:00042910       cuMemcpyDtoHAsync_v2_ptsz  0000000180043910 f   cuda:cuda_driverloader_generated_cuda_driverloader_cuda.obj
 0001:00042980       cuMemcpyDtoH_v2            0000000180043980 f   cuda:cuda_driverloader_generated_cuda_driverloader_cuda.obj
 0001:000429f0       cuMemcpyDtoH_v2_ptds       00000001800439f0 f   cuda:cuda_driverloader_generated_cuda_driverloader_cuda.obj
 0001:00042a60       cuMemcpyHtoA               0000000180043a60 f   cuda:cuda_driverloader_generated_cuda_driverloader_cuda.obj
 0001:00042ad0       cuMemcpyHtoAAsync          0000000180043ad0 f   cuda:cuda_driverloader_generated_cuda_driverloader_cuda.obj
 0001:00042b50       cuMemcpyHtoAAsync_v2       0000000180043b50 f   cuda:cuda_driverloader_generated_cuda_driverloader_cuda.obj
 0001:00042bd0       cuMemcpyHtoAAsync_v2_ptsz  0000000180043bd0 f   cuda:cuda_driverloader_generated_cuda_driverloader_cuda.obj
 0001:00042c50       cuMemcpyHtoA_v2            0000000180043c50 f   cuda:cuda_driverloader_generated_cuda_driverloader_cuda.obj
 0001:00042cc0       cuMemcpyHtoA_v2_ptds       0000000180043cc0 f   cuda:cuda_driverloader_generated_cuda_driverloader_cuda.obj
 0001:00042d30       cuMemcpyHtoD               0000000180043d30 f   cuda:cuda_driverloader_generated_cuda_driverloader_cuda.obj
 0001:00042da0       cuMemcpyHtoDAsync          0000000180043da0 f   cuda:cuda_driverloader_generated_cuda_driverloader_cuda.obj
 0001:00042e10       cuMemcpyHtoDAsync_v2       0000000180043e10 f   cuda:cuda_driverloader_generated_cuda_driverloader_cuda.obj
 0001:00042e80       cuMemcpyHtoDAsync_v2_ptsz  0000000180043e80 f   cuda:cuda_driverloader_generated_cuda_driverloader_cuda.obj
 0001:00042ef0       cuMemcpyHtoD_v2            0000000180043ef0 f   cuda:cuda_driverloader_generated_cuda_driverloader_cuda.obj
 0001:00042f60       cuMemcpyHtoD_v2_ptds       0000000180043f60 f   cuda:cuda_driverloader_generated_cuda_driverloader_cuda.obj
 0001:00042fd0       cuMemcpyPeer               0000000180043fd0 f   cuda:cuda_driverloader_generated_cuda_driverloader_cuda.obj
 0001:00043050       cuMemcpyPeerAsync          0000000180044050 f   cuda:cuda_driverloader_generated_cuda_driverloader_cuda.obj
 0001:000430d0       cuMemcpyPeerAsync_ptsz     00000001800440d0 f   cuda:cuda_driverloader_generated_cuda_driverloader_cuda.obj
 0001:00043150       cuMemcpyPeer_ptds          0000000180044150 f   cuda:cuda_driverloader_generated_cuda_driverloader_cuda.obj
 0001:000431d0       cuMemcpy_ptds              00000001800441d0 f   cuda:cuda_driverloader_generated_cuda_driverloader_cuda.obj
 0001:00043240       cuMemsetD16                0000000180044240 f   cuda:cuda_driverloader_generated_cuda_driverloader_cuda.obj
 0001:000432b0       cuMemsetD16Async           00000001800442b0 f   cuda:cuda_driverloader_generated_cuda_driverloader_cuda.obj
 0001:00043320       cuMemsetD16Async_ptsz      0000000180044320 f   cuda:cuda_driverloader_generated_cuda_driverloader_cuda.obj
 0001:00043390       cuMemsetD16_v2             0000000180044390 f   cuda:cuda_driverloader_generated_cuda_driverloader_cuda.obj
 0001:00043400       cuMemsetD16_v2_ptds        0000000180044400 f   cuda:cuda_driverloader_generated_cuda_driverloader_cuda.obj
 0001:00043470       cuMemsetD2D16              0000000180044470 f   cuda:cuda_driverloader_generated_cuda_driverloader_cuda.obj
 0001:000434f0       cuMemsetD2D16Async         00000001800444f0 f   cuda:cuda_driverloader_generated_cuda_driverloader_cuda.obj
 0001:00043580       cuMemsetD2D16Async_ptsz    0000000180044580 f   cuda:cuda_driverloader_generated_cuda_driverloader_cuda.obj
 0001:00043610       cuMemsetD2D16_v2           0000000180044610 f   cuda:cuda_driverloader_generated_cuda_driverloader_cuda.obj
 0001:00043690       cuMemsetD2D16_v2_ptds      0000000180044690 f   cuda:cuda_driverloader_generated_cuda_driverloader_cuda.obj
 0001:00043710       cuMemsetD2D32              0000000180044710 f   cuda:cuda_driverloader_generated_cuda_driverloader_cuda.obj
 0001:00043780       cuMemsetD2D32Async         0000000180044780 f   cuda:cuda_driverloader_generated_cuda_driverloader_cuda.obj
 0001:00043800       cuMemsetD2D32Async_ptsz    0000000180044800 f   cuda:cuda_driverloader_generated_cuda_driverloader_cuda.obj
 0001:00043880       cuMemsetD2D32_v2           0000000180044880 f   cuda:cuda_driverloader_generated_cuda_driverloader_cuda.obj
 0001:00043900       cuMemsetD2D32_v2_ptds      0000000180044900 f   cuda:cuda_driverloader_generated_cuda_driverloader_cuda.obj
 0001:00043980       cuMemsetD2D8               0000000180044980 f   cuda:cuda_driverloader_generated_cuda_driverloader_cuda.obj
 0001:00043a00       cuMemsetD2D8Async          0000000180044a00 f   cuda:cuda_driverloader_generated_cuda_driverloader_cuda.obj
 0001:00043a90       cuMemsetD2D8Async_ptsz     0000000180044a90 f   cuda:cuda_driverloader_generated_cuda_driverloader_cuda.obj
 0001:00043b20       cuMemsetD2D8_v2            0000000180044b20 f   cuda:cuda_driverloader_generated_cuda_driverloader_cuda.obj
 0001:00043ba0       cuMemsetD2D8_v2_ptds       0000000180044ba0 f   cuda:cuda_driverloader_generated_cuda_driverloader_cuda.obj
 0001:00043c20       cuMemsetD32                0000000180044c20 f   cuda:cuda_driverloader_generated_cuda_driverloader_cuda.obj
 0001:00043c90       cuMemsetD32Async           0000000180044c90 f   cuda:cuda_driverloader_generated_cuda_driverloader_cuda.obj
 0001:00043d00       cuMemsetD32Async_ptsz      0000000180044d00 f   cuda:cuda_driverloader_generated_cuda_driverloader_cuda.obj
 0001:00043d70       cuMemsetD32_v2             0000000180044d70 f   cuda:cuda_driverloader_generated_cuda_driverloader_cuda.obj
 0001:00043de0       cuMemsetD32_v2_ptds        0000000180044de0 f   cuda:cuda_driverloader_generated_cuda_driverloader_cuda.obj
 0001:00043e50       cuMemsetD8                 0000000180044e50 f   cuda:cuda_driverloader_generated_cuda_driverloader_cuda.obj
 0001:00043ec0       cuMemsetD8Async            0000000180044ec0 f   cuda:cuda_driverloader_generated_cuda_driverloader_cuda.obj
 0001:00043f30       cuMemsetD8Async_ptsz       0000000180044f30 f   cuda:cuda_driverloader_generated_cuda_driverloader_cuda.obj
 0001:00043fa0       cuMemsetD8_v2              0000000180044fa0 f   cuda:cuda_driverloader_generated_cuda_driverloader_cuda.obj
 0001:00044010       cuMemsetD8_v2_ptds         0000000180045010 f   cuda:cuda_driverloader_generated_cuda_driverloader_cuda.obj
 0001:00044080       cuMipmappedArrayCreate     0000000180045080 f   cuda:cuda_driverloader_generated_cuda_driverloader_cuda.obj
 0001:000440f0       cuMipmappedArrayDestroy    00000001800450f0 f   cuda:cuda_driverloader_generated_cuda_driverloader_cuda.obj
 0001:00044130       cuMipmappedArrayGetLevel   0000000180045130 f   cuda:cuda_driverloader_generated_cuda_driverloader_cuda.obj
 0001:000441a0       cuMipmappedArrayGetMemoryRequirements 00000001800451a0 f   cuda:cuda_driverloader_generated_cuda_driverloader_cuda.obj
 0001:00044210       cuMipmappedArrayGetSparseProperties 0000000180045210 f   cuda:cuda_driverloader_generated_cuda_driverloader_cuda.obj
 0001:00044270       cuModuleEnumerateFunctions 0000000180045270 f   cuda:cuda_driverloader_generated_cuda_driverloader_cuda.obj
 0001:000442e0       cuModuleGetFunction        00000001800452e0 f   cuda:cuda_driverloader_generated_cuda_driverloader_cuda.obj
 0001:00044350       cuModuleGetFunctionCount   0000000180045350 f   cuda:cuda_driverloader_generated_cuda_driverloader_cuda.obj
 0001:000443b0       cuModuleGetGlobal          00000001800453b0 f   cuda:cuda_driverloader_generated_cuda_driverloader_cuda.obj
 0001:00044420       cuModuleGetGlobal_v2       0000000180045420 f   cuda:cuda_driverloader_generated_cuda_driverloader_cuda.obj
 0001:00044490       cuModuleGetLoadingMode     0000000180045490 f   cuda:cuda_driverloader_generated_cuda_driverloader_cuda.obj
 0001:000444d0       cuModuleGetSurfRef         00000001800454d0 f   cuda:cuda_driverloader_generated_cuda_driverloader_cuda.obj
 0001:00044540       cuModuleGetTexRef          0000000180045540 f   cuda:cuda_driverloader_generated_cuda_driverloader_cuda.obj
 0001:000445b0       cuModuleLoad               00000001800455b0 f   cuda:cuda_driverloader_generated_cuda_driverloader_cuda.obj
 0001:00044610       cuModuleLoadData           0000000180045610 f   cuda:cuda_driverloader_generated_cuda_driverloader_cuda.obj
 0001:00044670       cuModuleLoadDataEx         0000000180045670 f   cuda:cuda_driverloader_generated_cuda_driverloader_cuda.obj
 0001:000446f0       cuModuleLoadFatBinary      00000001800456f0 f   cuda:cuda_driverloader_generated_cuda_driverloader_cuda.obj
 0001:00044750       cuModuleUnload             0000000180045750 f   cuda:cuda_driverloader_generated_cuda_driverloader_cuda.obj
 0001:00044790       cuMulticastAddDevice       0000000180045790 f   cuda:cuda_driverloader_generated_cuda_driverloader_cuda.obj
 0001:000447f0       cuMulticastBindAddr        00000001800457f0 f   cuda:cuda_driverloader_generated_cuda_driverloader_cuda.obj
 0001:00044870       cuMulticastBindMem         0000000180045870 f   cuda:cuda_driverloader_generated_cuda_driverloader_cuda.obj
 0001:000448f0       cuMulticastCreate          00000001800458f0 f   cuda:cuda_driverloader_generated_cuda_driverloader_cuda.obj
 0001:00044950       cuMulticastGetGranularity  0000000180045950 f   cuda:cuda_driverloader_generated_cuda_driverloader_cuda.obj
 0001:000449c0       cuMulticastUnbind          00000001800459c0 f   cuda:cuda_driverloader_generated_cuda_driverloader_cuda.obj
 0001:00044a30       cuOccupancyAvailableDynamicSMemPerBlock 0000000180045a30 f   cuda:cuda_driverloader_generated_cuda_driverloader_cuda.obj
 0001:00044aa0       cuOccupancyMaxActiveBlocksPerMultiprocessor 0000000180045aa0 f   cuda:cuda_driverloader_generated_cuda_driverloader_cuda.obj
 0001:00044b10       cuOccupancyMaxActiveBlocksPerMultiprocessorWithFlags 0000000180045b10 f   cuda:cuda_driverloader_generated_cuda_driverloader_cuda.obj
 0001:00044b90       cuOccupancyMaxActiveClusters 0000000180045b90 f   cuda:cuda_driverloader_generated_cuda_driverloader_cuda.obj
 0001:00044c00       cuOccupancyMaxPotentialBlockSize 0000000180045c00 f   cuda:cuda_driverloader_generated_cuda_driverloader_cuda.obj
 0001:00044c80       cuOccupancyMaxPotentialBlockSizeWithFlags 0000000180045c80 f   cuda:cuda_driverloader_generated_cuda_driverloader_cuda.obj
 0001:00044d10       cuOccupancyMaxPotentialClusterSize 0000000180045d10 f   cuda:cuda_driverloader_generated_cuda_driverloader_cuda.obj
 0001:00044d80       cuParamSetSize             0000000180045d80 f   cuda:cuda_driverloader_generated_cuda_driverloader_cuda.obj
 0001:00044de0       cuParamSetTexRef           0000000180045de0 f   cuda:cuda_driverloader_generated_cuda_driverloader_cuda.obj
 0001:00044e50       cuParamSetf                0000000180045e50 f   cuda:cuda_driverloader_generated_cuda_driverloader_cuda.obj
 0001:00044ec0       cuParamSeti                0000000180045ec0 f   cuda:cuda_driverloader_generated_cuda_driverloader_cuda.obj
 0001:00044f30       cuParamSetv                0000000180045f30 f   cuda:cuda_driverloader_generated_cuda_driverloader_cuda.obj
 0001:00044fa0       cuPointerGetAttribute      0000000180045fa0 f   cuda:cuda_driverloader_generated_cuda_driverloader_cuda.obj
 0001:00045010       cuPointerGetAttributes     0000000180046010 f   cuda:cuda_driverloader_generated_cuda_driverloader_cuda.obj
 0001:00045080       cuPointerSetAttribute      0000000180046080 f   cuda:cuda_driverloader_generated_cuda_driverloader_cuda.obj
 0001:000450f0       cuSignalExternalSemaphoresAsync 00000001800460f0 f   cuda:cuda_driverloader_generated_cuda_driverloader_cuda.obj
 0001:00045160       cuSignalExternalSemaphoresAsync_ptsz 0000000180046160 f   cuda:cuda_driverloader_generated_cuda_driverloader_cuda.obj
 0001:000451d0       cuStreamAddCallback        00000001800461d0 f   cuda:cuda_driverloader_generated_cuda_driverloader_cuda.obj
 0001:00045240       cuStreamAddCallback_ptsz   0000000180046240 f   cuda:cuda_driverloader_generated_cuda_driverloader_cuda.obj
 0001:000452b0       cuStreamAttachMemAsync     00000001800462b0 f   cuda:cuda_driverloader_generated_cuda_driverloader_cuda.obj
 0001:00045320       cuStreamAttachMemAsync_ptsz 0000000180046320 f   cuda:cuda_driverloader_generated_cuda_driverloader_cuda.obj
 0001:00045390       cuStreamBatchMemOp         0000000180046390 f   cuda:cuda_driverloader_generated_cuda_driverloader_cuda.obj
 0001:00045400       cuStreamBatchMemOp_ptsz    0000000180046400 f   cuda:cuda_driverloader_generated_cuda_driverloader_cuda.obj
 0001:00045470       cuStreamBatchMemOp_v2      0000000180046470 f   cuda:cuda_driverloader_generated_cuda_driverloader_cuda.obj
 0001:000454e0       cuStreamBatchMemOp_v2_ptsz 00000001800464e0 f   cuda:cuda_driverloader_generated_cuda_driverloader_cuda.obj
 0001:00045550       cuStreamBeginCapture       0000000180046550 f   cuda:cuda_driverloader_generated_cuda_driverloader_cuda.obj
 0001:00045590       cuStreamBeginCaptureToGraph 0000000180046590 f   cuda:cuda_driverloader_generated_cuda_driverloader_cuda.obj
 0001:00045610       cuStreamBeginCaptureToGraph_ptsz 0000000180046610 f   cuda:cuda_driverloader_generated_cuda_driverloader_cuda.obj
 0001:00045690       cuStreamBeginCapture_ptsz  0000000180046690 f   cuda:cuda_driverloader_generated_cuda_driverloader_cuda.obj
 0001:000456d0       cuStreamBeginCapture_v2    00000001800466d0 f   cuda:cuda_driverloader_generated_cuda_driverloader_cuda.obj
 0001:00045730       cuStreamBeginCapture_v2_ptsz 0000000180046730 f   cuda:cuda_driverloader_generated_cuda_driverloader_cuda.obj
 0001:00045790       cuStreamCopyAttributes     0000000180046790 f   cuda:cuda_driverloader_generated_cuda_driverloader_cuda.obj
 0001:000457f0       cuStreamCopyAttributes_ptsz 00000001800467f0 f   cuda:cuda_driverloader_generated_cuda_driverloader_cuda.obj
 0001:00045850       cuStreamCreate             0000000180046850 f   cuda:cuda_driverloader_generated_cuda_driverloader_cuda.obj
 0001:000458b0       cuStreamCreateWithPriority 00000001800468b0 f   cuda:cuda_driverloader_generated_cuda_driverloader_cuda.obj
 0001:00045920       cuStreamDestroy            0000000180046920 f   cuda:cuda_driverloader_generated_cuda_driverloader_cuda.obj
 0001:00045960       cuStreamDestroy_v2         0000000180046960 f   cuda:cuda_driverloader_generated_cuda_driverloader_cuda.obj
 0001:000459a0       cuStreamEndCapture         00000001800469a0 f   cuda:cuda_driverloader_generated_cuda_driverloader_cuda.obj
 0001:00045a00       cuStreamEndCapture_ptsz    0000000180046a00 f   cuda:cuda_driverloader_generated_cuda_driverloader_cuda.obj
 0001:00045a60       cuStreamGetAttribute       0000000180046a60 f   cuda:cuda_driverloader_generated_cuda_driverloader_cuda.obj
 0001:00045ad0       cuStreamGetAttribute_ptsz  0000000180046ad0 f   cuda:cuda_driverloader_generated_cuda_driverloader_cuda.obj
 0001:00045b40       cuStreamGetCaptureInfo     0000000180046b40 f   cuda:cuda_driverloader_generated_cuda_driverloader_cuda.obj
 0001:00045bb0       cuStreamGetCaptureInfo_ptsz 0000000180046bb0 f   cuda:cuda_driverloader_generated_cuda_driverloader_cuda.obj
 0001:00045c20       cuStreamGetCaptureInfo_v2  0000000180046c20 f   cuda:cuda_driverloader_generated_cuda_driverloader_cuda.obj
 0001:00045ca0       cuStreamGetCaptureInfo_v2_ptsz 0000000180046ca0 f   cuda:cuda_driverloader_generated_cuda_driverloader_cuda.obj
 0001:00045d20       cuStreamGetCaptureInfo_v3  0000000180046d20 f   cuda:cuda_driverloader_generated_cuda_driverloader_cuda.obj
 0001:00045db0       cuStreamGetCaptureInfo_v3_ptsz 0000000180046db0 f   cuda:cuda_driverloader_generated_cuda_driverloader_cuda.obj
 0001:00045e40       cuStreamGetCtx             0000000180046e40 f   cuda:cuda_driverloader_generated_cuda_driverloader_cuda.obj
 0001:00045ea0       cuStreamGetCtx_ptsz        0000000180046ea0 f   cuda:cuda_driverloader_generated_cuda_driverloader_cuda.obj
 0001:00045f00       cuStreamGetCtx_v2          0000000180046f00 f   cuda:cuda_driverloader_generated_cuda_driverloader_cuda.obj
 0001:00045f70       cuStreamGetCtx_v2_ptsz     0000000180046f70 f   cuda:cuda_driverloader_generated_cuda_driverloader_cuda.obj
 0001:00045fe0       cuStreamGetDevice          0000000180046fe0 f   cuda:cuda_driverloader_generated_cuda_driverloader_cuda.obj
 0001:00046040       cuStreamGetDevice_ptsz     0000000180047040 f   cuda:cuda_driverloader_generated_cuda_driverloader_cuda.obj
 0001:000460a0       cuStreamGetFlags           00000001800470a0 f   cuda:cuda_driverloader_generated_cuda_driverloader_cuda.obj
 0001:00046100       cuStreamGetFlags_ptsz      0000000180047100 f   cuda:cuda_driverloader_generated_cuda_driverloader_cuda.obj
 0001:00046160       cuStreamGetGreenCtx        0000000180047160 f   cuda:cuda_driverloader_generated_cuda_driverloader_cuda.obj
 0001:000461c0       cuStreamGetId              00000001800471c0 f   cuda:cuda_driverloader_generated_cuda_driverloader_cuda.obj
 0001:00046220       cuStreamGetId_ptsz         0000000180047220 f   cuda:cuda_driverloader_generated_cuda_driverloader_cuda.obj
 0001:00046280       cuStreamGetPriority        0000000180047280 f   cuda:cuda_driverloader_generated_cuda_driverloader_cuda.obj
 0001:000462e0       cuStreamGetPriority_ptsz   00000001800472e0 f   cuda:cuda_driverloader_generated_cuda_driverloader_cuda.obj
 0001:00046340       cuStreamIsCapturing        0000000180047340 f   cuda:cuda_driverloader_generated_cuda_driverloader_cuda.obj
 0001:000463a0       cuStreamIsCapturing_ptsz   00000001800473a0 f   cuda:cuda_driverloader_generated_cuda_driverloader_cuda.obj
 0001:00046400       cuStreamQuery              0000000180047400 f   cuda:cuda_driverloader_generated_cuda_driverloader_cuda.obj
 0001:00046440       cuStreamQuery_ptsz         0000000180047440 f   cuda:cuda_driverloader_generated_cuda_driverloader_cuda.obj
 0001:00046480       cuStreamSetAttribute       0000000180047480 f   cuda:cuda_driverloader_generated_cuda_driverloader_cuda.obj
 0001:000464f0       cuStreamSetAttribute_ptsz  00000001800474f0 f   cuda:cuda_driverloader_generated_cuda_driverloader_cuda.obj
 0001:00046560       cuStreamSynchronize        0000000180047560 f   cuda:cuda_driverloader_generated_cuda_driverloader_cuda.obj
 0001:000465a0       cuStreamSynchronize_ptsz   00000001800475a0 f   cuda:cuda_driverloader_generated_cuda_driverloader_cuda.obj
 0001:000465e0       cuStreamUpdateCaptureDependencies 00000001800475e0 f   cuda:cuda_driverloader_generated_cuda_driverloader_cuda.obj
 0001:00046650       cuStreamUpdateCaptureDependencies_ptsz 0000000180047650 f   cuda:cuda_driverloader_generated_cuda_driverloader_cuda.obj
 0001:000466c0       cuStreamUpdateCaptureDependencies_v2 00000001800476c0 f   cuda:cuda_driverloader_generated_cuda_driverloader_cuda.obj
 0001:00046740       cuStreamUpdateCaptureDependencies_v2_ptsz 0000000180047740 f   cuda:cuda_driverloader_generated_cuda_driverloader_cuda.obj
 0001:000467c0       cuStreamWaitEvent          00000001800477c0 f   cuda:cuda_driverloader_generated_cuda_driverloader_cuda.obj
 0001:00046830       cuStreamWaitEvent_ptsz     0000000180047830 f   cuda:cuda_driverloader_generated_cuda_driverloader_cuda.obj
 0001:000468a0       cuStreamWaitValue32        00000001800478a0 f   cuda:cuda_driverloader_generated_cuda_driverloader_cuda.obj
 0001:00046910       cuStreamWaitValue32_ptsz   0000000180047910 f   cuda:cuda_driverloader_generated_cuda_driverloader_cuda.obj
 0001:00046980       cuStreamWaitValue32_v2     0000000180047980 f   cuda:cuda_driverloader_generated_cuda_driverloader_cuda.obj
 0001:000469f0       cuStreamWaitValue32_v2_ptsz 00000001800479f0 f   cuda:cuda_driverloader_generated_cuda_driverloader_cuda.obj
 0001:00046a60       cuStreamWaitValue64        0000000180047a60 f   cuda:cuda_driverloader_generated_cuda_driverloader_cuda.obj
 0001:00046ad0       cuStreamWaitValue64_ptsz   0000000180047ad0 f   cuda:cuda_driverloader_generated_cuda_driverloader_cuda.obj
 0001:00046b40       cuStreamWaitValue64_v2     0000000180047b40 f   cuda:cuda_driverloader_generated_cuda_driverloader_cuda.obj
 0001:00046bb0       cuStreamWaitValue64_v2_ptsz 0000000180047bb0 f   cuda:cuda_driverloader_generated_cuda_driverloader_cuda.obj
 0001:00046c20       cuStreamWriteValue32       0000000180047c20 f   cuda:cuda_driverloader_generated_cuda_driverloader_cuda.obj
 0001:00046c90       cuStreamWriteValue32_ptsz  0000000180047c90 f   cuda:cuda_driverloader_generated_cuda_driverloader_cuda.obj
 0001:00046d00       cuStreamWriteValue32_v2    0000000180047d00 f   cuda:cuda_driverloader_generated_cuda_driverloader_cuda.obj
 0001:00046d70       cuStreamWriteValue32_v2_ptsz 0000000180047d70 f   cuda:cuda_driverloader_generated_cuda_driverloader_cuda.obj
 0001:00046de0       cuStreamWriteValue64       0000000180047de0 f   cuda:cuda_driverloader_generated_cuda_driverloader_cuda.obj
 0001:00046e50       cuStreamWriteValue64_ptsz  0000000180047e50 f   cuda:cuda_driverloader_generated_cuda_driverloader_cuda.obj
 0001:00046ec0       cuStreamWriteValue64_v2    0000000180047ec0 f   cuda:cuda_driverloader_generated_cuda_driverloader_cuda.obj
 0001:00046f30       cuStreamWriteValue64_v2_ptsz 0000000180047f30 f   cuda:cuda_driverloader_generated_cuda_driverloader_cuda.obj
 0001:00046fa0       cuSurfObjectCreate         0000000180047fa0 f   cuda:cuda_driverloader_generated_cuda_driverloader_cuda.obj
 0001:00047000       cuSurfObjectDestroy        0000000180048000 f   cuda:cuda_driverloader_generated_cuda_driverloader_cuda.obj
 0001:00047040       cuSurfObjectGetResourceDesc 0000000180048040 f   cuda:cuda_driverloader_generated_cuda_driverloader_cuda.obj
 0001:000470a0       cuSurfRefGetArray          00000001800480a0 f   cuda:cuda_driverloader_generated_cuda_driverloader_cuda.obj
 0001:00047100       cuSurfRefSetArray          0000000180048100 f   cuda:cuda_driverloader_generated_cuda_driverloader_cuda.obj
 0001:00047170       cuTensorMapEncodeIm2col    0000000180048170 f   cuda:cuda_driverloader_generated_cuda_driverloader_cuda.obj
 0001:00047270       cuTensorMapEncodeIm2colWide 0000000180048270 f   cuda:cuda_driverloader_generated_cuda_driverloader_cuda.obj
 0001:00047370       cuTensorMapEncodeTiled     0000000180048370 f   cuda:cuda_driverloader_generated_cuda_driverloader_cuda.obj
 0001:00047440       cuTensorMapReplaceAddress  0000000180048440 f   cuda:cuda_driverloader_generated_cuda_driverloader_cuda.obj
 0001:000474a0       cuTexObjectCreate          00000001800484a0 f   cuda:cuda_driverloader_generated_cuda_driverloader_cuda.obj
 0001:00047510       cuTexObjectDestroy         0000000180048510 f   cuda:cuda_driverloader_generated_cuda_driverloader_cuda.obj
 0001:00047550       cuTexObjectGetResourceDesc 0000000180048550 f   cuda:cuda_driverloader_generated_cuda_driverloader_cuda.obj
 0001:000475b0       cuTexObjectGetResourceViewDesc 00000001800485b0 f   cuda:cuda_driverloader_generated_cuda_driverloader_cuda.obj
 0001:00047610       cuTexObjectGetTextureDesc  0000000180048610 f   cuda:cuda_driverloader_generated_cuda_driverloader_cuda.obj
 0001:00047670       cuTexRefCreate             0000000180048670 f   cuda:cuda_driverloader_generated_cuda_driverloader_cuda.obj
 0001:000476b0       cuTexRefDestroy            00000001800486b0 f   cuda:cuda_driverloader_generated_cuda_driverloader_cuda.obj
 0001:000476f0       cuTexRefGetAddress         00000001800486f0 f   cuda:cuda_driverloader_generated_cuda_driverloader_cuda.obj
 0001:00047750       cuTexRefGetAddressMode     0000000180048750 f   cuda:cuda_driverloader_generated_cuda_driverloader_cuda.obj
 0001:000477c0       cuTexRefGetAddress_v2      00000001800487c0 f   cuda:cuda_driverloader_generated_cuda_driverloader_cuda.obj
 0001:00047820       cuTexRefGetArray           0000000180048820 f   cuda:cuda_driverloader_generated_cuda_driverloader_cuda.obj
 0001:00047880       cuTexRefGetBorderColor     0000000180048880 f   cuda:cuda_driverloader_generated_cuda_driverloader_cuda.obj
 0001:000478e0       cuTexRefGetFilterMode      00000001800488e0 f   cuda:cuda_driverloader_generated_cuda_driverloader_cuda.obj
 0001:00047940       cuTexRefGetFlags           0000000180048940 f   cuda:cuda_driverloader_generated_cuda_driverloader_cuda.obj
 0001:000479a0       cuTexRefGetFormat          00000001800489a0 f   cuda:cuda_driverloader_generated_cuda_driverloader_cuda.obj
 0001:00047a10       cuTexRefGetMaxAnisotropy   0000000180048a10 f   cuda:cuda_driverloader_generated_cuda_driverloader_cuda.obj
 0001:00047a70       cuTexRefGetMipmapFilterMode 0000000180048a70 f   cuda:cuda_driverloader_generated_cuda_driverloader_cuda.obj
 0001:00047ad0       cuTexRefGetMipmapLevelBias 0000000180048ad0 f   cuda:cuda_driverloader_generated_cuda_driverloader_cuda.obj
 0001:00047b30       cuTexRefGetMipmapLevelClamp 0000000180048b30 f   cuda:cuda_driverloader_generated_cuda_driverloader_cuda.obj
 0001:00047ba0       cuTexRefGetMipmappedArray  0000000180048ba0 f   cuda:cuda_driverloader_generated_cuda_driverloader_cuda.obj
 0001:00047c00       cuTexRefSetAddress         0000000180048c00 f   cuda:cuda_driverloader_generated_cuda_driverloader_cuda.obj
 0001:00047c70       cuTexRefSetAddress2D       0000000180048c70 f   cuda:cuda_driverloader_generated_cuda_driverloader_cuda.obj
 0001:00047ce0       cuTexRefSetAddress2D_v2    0000000180048ce0 f   cuda:cuda_driverloader_generated_cuda_driverloader_cuda.obj
 0001:00047d50       cuTexRefSetAddress2D_v3    0000000180048d50 f   cuda:cuda_driverloader_generated_cuda_driverloader_cuda.obj
 0001:00047dc0       cuTexRefSetAddressMode     0000000180048dc0 f   cuda:cuda_driverloader_generated_cuda_driverloader_cuda.obj
 0001:00047e30       cuTexRefSetAddress_v2      0000000180048e30 f   cuda:cuda_driverloader_generated_cuda_driverloader_cuda.obj
 0001:00047ea0       cuTexRefSetArray           0000000180048ea0 f   cuda:cuda_driverloader_generated_cuda_driverloader_cuda.obj
 0001:00047f10       cuTexRefSetBorderColor     0000000180048f10 f   cuda:cuda_driverloader_generated_cuda_driverloader_cuda.obj
 0001:00047f70       cuTexRefSetFilterMode      0000000180048f70 f   cuda:cuda_driverloader_generated_cuda_driverloader_cuda.obj
 0001:00047fd0       cuTexRefSetFlags           0000000180048fd0 f   cuda:cuda_driverloader_generated_cuda_driverloader_cuda.obj
 0001:00048030       cuTexRefSetFormat          0000000180049030 f   cuda:cuda_driverloader_generated_cuda_driverloader_cuda.obj
 0001:000480a0       cuTexRefSetMaxAnisotropy   00000001800490a0 f   cuda:cuda_driverloader_generated_cuda_driverloader_cuda.obj
 0001:00048100       cuTexRefSetMipmapFilterMode 0000000180049100 f   cuda:cuda_driverloader_generated_cuda_driverloader_cuda.obj
 0001:00048160       cuTexRefSetMipmapLevelBias 0000000180049160 f   cuda:cuda_driverloader_generated_cuda_driverloader_cuda.obj
 0001:000481c0       cuTexRefSetMipmapLevelClamp 00000001800491c0 f   cuda:cuda_driverloader_generated_cuda_driverloader_cuda.obj
 0001:00048230       cuTexRefSetMipmappedArray  0000000180049230 f   cuda:cuda_driverloader_generated_cuda_driverloader_cuda.obj
 0001:000482a0       cuThreadExchangeStreamCaptureMode 00000001800492a0 f   cuda:cuda_driverloader_generated_cuda_driverloader_cuda.obj
 0001:000482e0       cuUserObjectCreate         00000001800492e0 f   cuda:cuda_driverloader_generated_cuda_driverloader_cuda.obj
 0001:00048360       cuUserObjectRelease        0000000180049360 f   cuda:cuda_driverloader_generated_cuda_driverloader_cuda.obj
 0001:000483c0       cuUserObjectRetain         00000001800493c0 f   cuda:cuda_driverloader_generated_cuda_driverloader_cuda.obj
 0001:00048420       cuWaitExternalSemaphoresAsync 0000000180049420 f   cuda:cuda_driverloader_generated_cuda_driverloader_cuda.obj
 0001:00048490       cuWaitExternalSemaphoresAsync_ptsz 0000000180049490 f   cuda:cuda_driverloader_generated_cuda_driverloader_cuda.obj
 0001:00048500       cudaDriverLoader_initialize_cuda_functionPointers 0000000180049500 f   cuda:cuda_driverloader_generated_cuda_driverloader_cuda.obj
 0001:0004d9b0       cudaDriverLoader_initializeLoader 000000018004e9b0 f   cuda:cuda_driverloader_driverLoaderCore.obj
 0001:0004da80       cudaDriverLoader_initialize_cudaHidden_functionPointers 000000018004ea80 f   cuda:cuda_driverloader_generated_cuda_driverloader_cudaHidden.obj
 0001:0004da90       cuProfilerInitialize       000000018004ea90 f   cuda:cuda_driverloader_generated_cuda_driverloader_cudaProfiler.obj
 0001:0004db00       cuProfilerStart            000000018004eb00 f   cuda:cuda_driverloader_generated_cuda_driverloader_cudaProfiler.obj
 0001:0004db40       cuProfilerStop             000000018004eb40 f   cuda:cuda_driverloader_generated_cuda_driverloader_cudaProfiler.obj
 0001:0004db80       cudaDriverLoader_initialize_cudaProfiler_functionPointers 000000018004eb80 f   cuda:cuda_driverloader_generated_cuda_driverloader_cudaProfiler.obj
 0001:0004dc00       cuGLCtxCreate              000000018004ec00 f   cuda:cuda_driverloader_generated_cuda_driverloader_cudaGL.obj
 0001:0004dc70       cuGLCtxCreate_v2           000000018004ec70 f   cuda:cuda_driverloader_generated_cuda_driverloader_cudaGL.obj
 0001:0004dce0       cuGLGetDevices             000000018004ece0 f   cuda:cuda_driverloader_generated_cuda_driverloader_cudaGL.obj
 0001:0004dd50       cuGLGetDevices_v2          000000018004ed50 f   cuda:cuda_driverloader_generated_cuda_driverloader_cudaGL.obj
 0001:0004ddc0       cuGLInit                   000000018004edc0 f   cuda:cuda_driverloader_generated_cuda_driverloader_cudaGL.obj
 0001:0004de00       cuGLMapBufferObject        000000018004ee00 f   cuda:cuda_driverloader_generated_cuda_driverloader_cudaGL.obj
 0001:0004de70       cuGLMapBufferObjectAsync   000000018004ee70 f   cuda:cuda_driverloader_generated_cuda_driverloader_cudaGL.obj
 0001:0004dee0       cuGLMapBufferObjectAsync_v2 000000018004eee0 f   cuda:cuda_driverloader_generated_cuda_driverloader_cudaGL.obj
 0001:0004df50       cuGLMapBufferObjectAsync_v2_ptsz 000000018004ef50 f   cuda:cuda_driverloader_generated_cuda_driverloader_cudaGL.obj
 0001:0004dfc0       cuGLMapBufferObject_v2     000000018004efc0 f   cuda:cuda_driverloader_generated_cuda_driverloader_cudaGL.obj
 0001:0004e030       cuGLMapBufferObject_v2_ptds 000000018004f030 f   cuda:cuda_driverloader_generated_cuda_driverloader_cudaGL.obj
 0001:0004e0a0       cuGLRegisterBufferObject   000000018004f0a0 f   cuda:cuda_driverloader_generated_cuda_driverloader_cudaGL.obj
 0001:0004e0e0       cuGLSetBufferObjectMapFlags 000000018004f0e0 f   cuda:cuda_driverloader_generated_cuda_driverloader_cudaGL.obj
 0001:0004e130       cuGLUnmapBufferObject      000000018004f130 f   cuda:cuda_driverloader_generated_cuda_driverloader_cudaGL.obj
 0001:0004e170       cuGLUnmapBufferObjectAsync 000000018004f170 f   cuda:cuda_driverloader_generated_cuda_driverloader_cudaGL.obj
 0001:0004e1d0       cuGLUnregisterBufferObject 000000018004f1d0 f   cuda:cuda_driverloader_generated_cuda_driverloader_cudaGL.obj
 0001:0004e210       cuGraphicsGLRegisterBuffer 000000018004f210 f   cuda:cuda_driverloader_generated_cuda_driverloader_cudaGL.obj
 0001:0004e280       cuGraphicsGLRegisterImage  000000018004f280 f   cuda:cuda_driverloader_generated_cuda_driverloader_cudaGL.obj
 0001:0004e2f0       cuWGLGetDevice             000000018004f2f0 f   cuda:cuda_driverloader_generated_cuda_driverloader_cudaGL.obj
 0001:0004e350       cudaDriverLoader_initialize_cudaGL_functionPointers 000000018004f350 f   cuda:cuda_driverloader_generated_cuda_driverloader_cudaGL.obj
 0001:0004e5f0       cuD3D9Begin                000000018004f5f0 f   cuda:cuda_driverloader_generated_cuda_driverloader_cudaD3D9.obj
 0001:0004e630       cuD3D9CtxCreate            000000018004f630 f   cuda:cuda_driverloader_generated_cuda_driverloader_cudaD3D9.obj
 0001:0004e6a0       cuD3D9CtxCreateOnDevice    000000018004f6a0 f   cuda:cuda_driverloader_generated_cuda_driverloader_cudaD3D9.obj
 0001:0004e710       cuD3D9CtxCreate_v2         000000018004f710 f   cuda:cuda_driverloader_generated_cuda_driverloader_cudaD3D9.obj
 0001:0004e780       cuD3D9End                  000000018004f780 f   cuda:cuda_driverloader_generated_cuda_driverloader_cudaD3D9.obj
 0001:0004e7c0       cuD3D9GetDevice            000000018004f7c0 f   cuda:cuda_driverloader_generated_cuda_driverloader_cudaD3D9.obj
 0001:0004e820       cuD3D9GetDevices           000000018004f820 f   cuda:cuda_driverloader_generated_cuda_driverloader_cudaD3D9.obj
 0001:0004e8a0       cuD3D9GetDirect3DDevice    000000018004f8a0 f   cuda:cuda_driverloader_generated_cuda_driverloader_cudaD3D9.obj
 0001:0004e8e0       cuD3D9MapResources         000000018004f8e0 f   cuda:cuda_driverloader_generated_cuda_driverloader_cudaD3D9.obj
 0001:0004e940       cuD3D9MapVertexBuffer      000000018004f940 f   cuda:cuda_driverloader_generated_cuda_driverloader_cudaD3D9.obj
 0001:0004e9b0       cuD3D9MapVertexBuffer_v2   000000018004f9b0 f   cuda:cuda_driverloader_generated_cuda_driverloader_cudaD3D9.obj
 0001:0004ea20       cuD3D9RegisterResource     000000018004fa20 f   cuda:cuda_driverloader_generated_cuda_driverloader_cudaD3D9.obj
 0001:0004ea80       cuD3D9RegisterVertexBuffer 000000018004fa80 f   cuda:cuda_driverloader_generated_cuda_driverloader_cudaD3D9.obj
 0001:0004eac0       cuD3D9ResourceGetMappedArray 000000018004fac0 f   cuda:cuda_driverloader_generated_cuda_driverloader_cudaD3D9.obj
 0001:0004eb30       cuD3D9ResourceGetMappedPitch 000000018004fb30 f   cuda:cuda_driverloader_generated_cuda_driverloader_cudaD3D9.obj
 0001:0004ebb0       cuD3D9ResourceGetMappedPitch_v2 000000018004fbb0 f   cuda:cuda_driverloader_generated_cuda_driverloader_cudaD3D9.obj
 0001:0004ec30       cuD3D9ResourceGetMappedPointer 000000018004fc30 f   cuda:cuda_driverloader_generated_cuda_driverloader_cudaD3D9.obj
 0001:0004eca0       cuD3D9ResourceGetMappedPointer_v2 000000018004fca0 f   cuda:cuda_driverloader_generated_cuda_driverloader_cudaD3D9.obj
 0001:0004ed10       cuD3D9ResourceGetMappedSize 000000018004fd10 f   cuda:cuda_driverloader_generated_cuda_driverloader_cudaD3D9.obj
 0001:0004ed80       cuD3D9ResourceGetMappedSize_v2 000000018004fd80 f   cuda:cuda_driverloader_generated_cuda_driverloader_cudaD3D9.obj
 0001:0004edf0       cuD3D9ResourceGetSurfaceDimensions 000000018004fdf0 f   cuda:cuda_driverloader_generated_cuda_driverloader_cudaD3D9.obj
 0001:0004ee70       cuD3D9ResourceGetSurfaceDimensions_v2 000000018004fe70 f   cuda:cuda_driverloader_generated_cuda_driverloader_cudaD3D9.obj
 0001:0004eef0       cuD3D9ResourceSetMapFlags  000000018004fef0 f   cuda:cuda_driverloader_generated_cuda_driverloader_cudaD3D9.obj
 0001:0004ef50       cuD3D9UnmapResources       000000018004ff50 f   cuda:cuda_driverloader_generated_cuda_driverloader_cudaD3D9.obj
 0001:0004efb0       cuD3D9UnmapVertexBuffer    000000018004ffb0 f   cuda:cuda_driverloader_generated_cuda_driverloader_cudaD3D9.obj
 0001:0004eff0       cuD3D9UnregisterResource   000000018004fff0 f   cuda:cuda_driverloader_generated_cuda_driverloader_cudaD3D9.obj
 0001:0004f030       cuD3D9UnregisterVertexBuffer 0000000180050030 f   cuda:cuda_driverloader_generated_cuda_driverloader_cudaD3D9.obj
 0001:0004f070       cuGraphicsD3D9RegisterResource 0000000180050070 f   cuda:cuda_driverloader_generated_cuda_driverloader_cudaD3D9.obj
 0001:0004f0e0       cudaDriverLoader_initialize_cudaD3D9_functionPointers 00000001800500e0 f   cuda:cuda_driverloader_generated_cuda_driverloader_cudaD3D9.obj
 0001:0004f4b0       cuD3D10CtxCreate           00000001800504b0 f   cuda:cuda_driverloader_generated_cuda_driverloader_cudaD3D10.obj
 0001:0004f520       cuD3D10CtxCreateOnDevice   0000000180050520 f   cuda:cuda_driverloader_generated_cuda_driverloader_cudaD3D10.obj
 0001:0004f590       cuD3D10CtxCreate_v2        0000000180050590 f   cuda:cuda_driverloader_generated_cuda_driverloader_cudaD3D10.obj
 0001:0004f600       cuD3D10GetDevice           0000000180050600 f   cuda:cuda_driverloader_generated_cuda_driverloader_cudaD3D10.obj
 0001:0004f660       cuD3D10GetDevices          0000000180050660 f   cuda:cuda_driverloader_generated_cuda_driverloader_cudaD3D10.obj
 0001:0004f6e0       cuD3D10GetDirect3DDevice   00000001800506e0 f   cuda:cuda_driverloader_generated_cuda_driverloader_cudaD3D10.obj
 0001:0004f720       cuD3D10MapResources        0000000180050720 f   cuda:cuda_driverloader_generated_cuda_driverloader_cudaD3D10.obj
 0001:0004f780       cuD3D10RegisterResource    0000000180050780 f   cuda:cuda_driverloader_generated_cuda_driverloader_cudaD3D10.obj
 0001:0004f7e0       cuD3D10ResourceGetMappedArray 00000001800507e0 f   cuda:cuda_driverloader_generated_cuda_driverloader_cudaD3D10.obj
 0001:0004f850       cuD3D10ResourceGetMappedPitch 0000000180050850 f   cuda:cuda_driverloader_generated_cuda_driverloader_cudaD3D10.obj
 0001:0004f8c0       cuD3D10ResourceGetMappedPitch_v2 00000001800508c0 f   cuda:cuda_driverloader_generated_cuda_driverloader_cudaD3D10.obj
 0001:0004f930       cuD3D10ResourceGetMappedPointer 0000000180050930 f   cuda:cuda_driverloader_generated_cuda_driverloader_cudaD3D10.obj
 0001:0004f9a0       cuD3D10ResourceGetMappedPointer_v2 00000001800509a0 f   cuda:cuda_driverloader_generated_cuda_driverloader_cudaD3D10.obj
 0001:0004fa10       cuD3D10ResourceGetMappedSize 0000000180050a10 f   cuda:cuda_driverloader_generated_cuda_driverloader_cudaD3D10.obj
 0001:0004fa80       cuD3D10ResourceGetMappedSize_v2 0000000180050a80 f   cuda:cuda_driverloader_generated_cuda_driverloader_cudaD3D10.obj
 0001:0004faf0       cuD3D10ResourceGetSurfaceDimensions 0000000180050af0 f   cuda:cuda_driverloader_generated_cuda_driverloader_cudaD3D10.obj
 0001:0004fb70       cuD3D10ResourceGetSurfaceDimensions_v2 0000000180050b70 f   cuda:cuda_driverloader_generated_cuda_driverloader_cudaD3D10.obj
 0001:0004fbf0       cuD3D10ResourceSetMapFlags 0000000180050bf0 f   cuda:cuda_driverloader_generated_cuda_driverloader_cudaD3D10.obj
 0001:0004fc50       cuD3D10UnmapResources      0000000180050c50 f   cuda:cuda_driverloader_generated_cuda_driverloader_cudaD3D10.obj
 0001:0004fcb0       cuD3D10UnregisterResource  0000000180050cb0 f   cuda:cuda_driverloader_generated_cuda_driverloader_cudaD3D10.obj
 0001:0004fcf0       cuGraphicsD3D10RegisterResource 0000000180050cf0 f   cuda:cuda_driverloader_generated_cuda_driverloader_cudaD3D10.obj
 0001:0004fd60       cudaDriverLoader_initialize_cudaD3D10_functionPointers 0000000180050d60 f   cuda:cuda_driverloader_generated_cuda_driverloader_cudaD3D10.obj
 0001:00050040       cuD3D11CtxCreate           0000000180051040 f   cuda:cuda_driverloader_generated_cuda_driverloader_cudaD3D11.obj
 0001:000500b0       cuD3D11CtxCreateOnDevice   00000001800510b0 f   cuda:cuda_driverloader_generated_cuda_driverloader_cudaD3D11.obj
 0001:00050120       cuD3D11CtxCreate_v2        0000000180051120 f   cuda:cuda_driverloader_generated_cuda_driverloader_cudaD3D11.obj
 0001:00050190       cuD3D11GetDevice           0000000180051190 f   cuda:cuda_driverloader_generated_cuda_driverloader_cudaD3D11.obj
 0001:000501f0       cuD3D11GetDevices          00000001800511f0 f   cuda:cuda_driverloader_generated_cuda_driverloader_cudaD3D11.obj
 0001:00050270       cuD3D11GetDirect3DDevice   0000000180051270 f   cuda:cuda_driverloader_generated_cuda_driverloader_cudaD3D11.obj
 0001:000502b0       cuGraphicsD3D11RegisterResource 00000001800512b0 f   cuda:cuda_driverloader_generated_cuda_driverloader_cudaD3D11.obj
 0001:00050320       cudaDriverLoader_initialize_cudaD3D11_functionPointers 0000000180051320 f   cuda:cuda_driverloader_generated_cuda_driverloader_cudaD3D11.obj
 0001:0005041c       InitOnceExecuteOnce        000000018005141c f   kernel32:KERNEL32.dll
 0001:00050422       GetProcAddress             0000000180051422 f   kernel32:KERNEL32.dll
 0001:00050428       LoadLibraryExA             0000000180051428 f   kernel32:KERNEL32.dll
 0001:00050430       ??2@YAPEAX_K@Z             0000000180051430 f   MSVCRT:new_scalar.obj
 0001:0005046c       ??3@YAXPEAX_K@Z            000000018005146c f   MSVCRT:delete_scalar_size.obj
 0001:00050474       ??_U@YAPEAX_K@Z            0000000180051474 f   MSVCRT:new_array.obj
 0001:0005047c       ??_V@YAXPEAX@Z             000000018005147c f   MSVCRT:delete_array.obj
 0001:00050484       ??_V@YAXPEAX_K@Z           0000000180051484 f   MSVCRT:delete_array_size.obj
 0001:0005048c       ??3@YAXPEAX@Z              000000018005148c f   MSVCRT:delete_scalar.obj
 0001:000507c4       _CRT_INIT                  00000001800517c4 f   MSVCRT:dll_dllmain.obj
 0001:000507cc       _DllMainCRTStartup         00000001800517cc f   MSVCRT:dll_dllmain.obj
 0001:0005080c       ??0bad_alloc@std@@AEAA@QEBD@Z 000000018005180c f i MSVCRT:throw_bad_alloc.obj
 0001:00050828       ??0bad_alloc@std@@QEAA@AEBV01@@Z 0000000180051828 f i MSVCRT:throw_bad_alloc.obj
 0001:00050864       ??0bad_alloc@std@@QEAA@XZ  0000000180051864 f i MSVCRT:throw_bad_alloc.obj
 0001:00050888       ??0bad_array_new_length@std@@QEAA@AEBV01@@Z 0000000180051888 f i MSVCRT:throw_bad_alloc.obj
 0001:000508c4       ??0bad_array_new_length@std@@QEAA@XZ 00000001800518c4 f i MSVCRT:throw_bad_alloc.obj
 0001:000508e8       ??0exception@std@@QEAA@AEBV01@@Z 00000001800518e8 f i MSVCRT:throw_bad_alloc.obj
 0001:0005091c       ??0exception@std@@QEAA@QEBDH@Z 000000018005191c f i MSVCRT:throw_bad_alloc.obj
 0001:00050938       ??1bad_alloc@std@@UEAA@XZ  0000000180051938 f i MSVCRT:throw_bad_alloc.obj
 0001:0005094c       ??1bad_array_new_length@std@@UEAA@XZ 000000018005194c f i MSVCRT:throw_bad_alloc.obj
 0001:00050960       ??1exception@std@@UEAA@XZ  0000000180051960 f i MSVCRT:throw_bad_alloc.obj
 0001:00050974       ??_Ebad_alloc@std@@UEAAPEAXI@Z 0000000180051974 f i MSVCRT:throw_bad_alloc.obj
 0001:00050974       ??_Gbad_alloc@std@@UEAAPEAXI@Z 0000000180051974 f i MSVCRT:throw_bad_alloc.obj
 0001:000509b8       ??_Ebad_array_new_length@std@@UEAAPEAXI@Z 00000001800519b8 f i MSVCRT:throw_bad_alloc.obj
 0001:000509b8       ??_Gbad_array_new_length@std@@UEAAPEAXI@Z 00000001800519b8 f i MSVCRT:throw_bad_alloc.obj
 0001:000509fc       ??_Eexception@std@@UEAAPEAXI@Z 00000001800519fc f i MSVCRT:throw_bad_alloc.obj
 0001:000509fc       ??_Gexception@std@@UEAAPEAXI@Z 00000001800519fc f i MSVCRT:throw_bad_alloc.obj
 0001:00050a40       ?__scrt_throw_std_bad_alloc@@YAXXZ 0000000180051a40 f   MSVCRT:throw_bad_alloc.obj
 0001:00050a60       ?__scrt_throw_std_bad_array_new_length@@YAXXZ 0000000180051a60 f   MSVCRT:throw_bad_alloc.obj
 0001:00050a80       ?what@exception@std@@UEBAPEBDXZ 0000000180051a80 f i MSVCRT:throw_bad_alloc.obj
 0001:00050b04       __security_init_cookie     0000000180051b04 f   MSVCRT:gs_support.obj
 0001:00050bb4       DllMain                    0000000180051bb4 f   MSVCRT:dll_dllmain_stub.obj
 0001:00050bd8       ?__scrt_initialize_type_info@@YAXXZ 0000000180051bd8 f   MSVCRT:tncleanup.obj
 0001:00050be8       ?__scrt_uninitialize_type_info@@YAXXZ 0000000180051be8 f   MSVCRT:tncleanup.obj
 0001:00050bf4       __local_stdio_scanf_options 0000000180051bf4 f i MSVCRT:default_local_stdio_options.obj
 0001:00050bfc       __scrt_initialize_default_local_stdio_options 0000000180051bfc f   MSVCRT:default_local_stdio_options.obj
 0001:00050c18       ?configure_argv@__scrt_narrow_argv_policy@@SAHXZ 0000000180051c18 f i MSVCRT:utility.obj
 0001:00050c78       ?initialize_environment@__scrt_narrow_environment_policy@@SAHXZ 0000000180051c78 f i MSVCRT:utility.obj
 0001:00050cb0       NtCurrentTeb               0000000180051cb0 f i MSVCRT:utility.obj
 0001:00050cbc       __scrt_acquire_startup_lock 0000000180051cbc f   MSVCRT:utility.obj
 0001:00050cf8       __scrt_dllmain_after_initialize_c 0000000180051cf8 f   MSVCRT:utility.obj
 0001:00050d2c       __scrt_dllmain_before_initialize_c 0000000180051d2c f   MSVCRT:utility.obj
 0001:00050d44       __scrt_dllmain_crt_thread_attach 0000000180051d44 f   MSVCRT:utility.obj
 0001:00050d6c       __scrt_dllmain_crt_thread_detach 0000000180051d6c f   MSVCRT:utility.obj
 0001:00050d84       __scrt_dllmain_exception_filter 0000000180051d84 f   MSVCRT:utility.obj
 0001:00050de4       __scrt_dllmain_uninitialize_c 0000000180051de4 f   MSVCRT:utility.obj
 0001:00050e14       __scrt_dllmain_uninitialize_critical 0000000180051e14 f   MSVCRT:utility.obj
 0001:00050e28       __scrt_initialize_crt      0000000180051e28 f   MSVCRT:utility.obj
 0001:00050e64       __scrt_initialize_onexit_tables 0000000180051e64 f   MSVCRT:utility.obj
 0001:00050ef0       __scrt_is_nonwritable_in_current_image 0000000180051ef0 f   MSVCRT:utility.obj
 0001:00050f88       __scrt_release_startup_lock 0000000180051f88 f   MSVCRT:utility.obj
 0001:00050fac       __scrt_uninitialize_crt    0000000180051fac f   MSVCRT:utility.obj
 0001:00050fd8       _onexit                    0000000180051fd8 f   MSVCRT:utility.obj
 0001:00051014       at_quick_exit              0000000180052014 f   MSVCRT:utility.obj
 0001:00051034       atexit                     0000000180052034 f   MSVCRT:utility.obj
 0001:0005104c       __scrt_get_dyn_tls_init_callback 000000018005204c f   MSVCRT:dyn_tls_init.obj
 0001:00051054       __crt_debugger_hook        0000000180052054 f   MSVCRT:utility_desktop.obj
 0001:00051060       __scrt_fastfail            0000000180052060 f   MSVCRT:utility_desktop.obj
 0001:000511ac       __scrt_get_show_window_mode 00000001800521ac f   MSVCRT:utility_desktop.obj
 0001:000511e8       __scrt_initialize_mta      00000001800521e8 f   MSVCRT:utility_desktop.obj
 0001:000511f0       __scrt_initialize_winrt    00000001800521f0 f   MSVCRT:utility_desktop.obj
 0001:000511f4       __scrt_is_managed_app      00000001800521f4 f   MSVCRT:utility_desktop.obj
 0001:00051248       __scrt_set_unhandled_exception_filter 0000000180052248 f   MSVCRT:utility_desktop.obj
 0001:00051258       __scrt_exe_initialize_mta  0000000180052258 f   MSVCRT:utility_desktop.obj
 0001:00051258       __scrt_stub_for_initialize_mta 0000000180052258 f   MSVCRT:utility_desktop.obj
 0001:0005125c       __scrt_unhandled_exception_filter 000000018005225c f   MSVCRT:utility_desktop.obj
 0001:000512c0       _RTC_Initialize            00000001800522c0 f   MSVCRT:initsect.obj
 0001:000512fc       _RTC_Terminate             00000001800522fc f   MSVCRT:initsect.obj
 0001:00051338       _guard_check_icall_nop     0000000180052338 f i MSVCRT:guard_support.obj
 0001:0005133c       ReadNoFence64              000000018005233c f i MSVCRT:guard_support.obj
 0001:00051340       ReadPointerNoFence         0000000180052340 f i MSVCRT:guard_support.obj
 0001:00051344       __castguard_check_failure_debugbreak 0000000180052344 f i MSVCRT:guard_support.obj
 0001:00051360       __castguard_check_failure_fastfail 0000000180052360 f i MSVCRT:guard_support.obj
 0001:00051384       __castguard_check_failure_nop 0000000180052384 f i MSVCRT:guard_support.obj
 0001:00051388       __castguard_check_failure_os_handled 0000000180052388 f i MSVCRT:guard_support.obj
 0001:000513d4       __castguard_check_failure_user_handled 00000001800523d4 f i MSVCRT:guard_support.obj
 0001:00051448       __castguard_set_user_handler 0000000180052448 f i MSVCRT:guard_support.obj
 0001:00051454       __castguard_slow_path_check_debugbreak 0000000180052454 f i MSVCRT:guard_support.obj
 0001:00051488       __castguard_slow_path_check_fastfail 0000000180052488 f i MSVCRT:guard_support.obj
 0001:000514c4       __castguard_slow_path_check_nop 00000001800524c4 f i MSVCRT:guard_support.obj
 0001:000514c8       __castguard_slow_path_check_os_handled 00000001800524c8 f i MSVCRT:guard_support.obj
 0001:00051514       __castguard_slow_path_check_user_handled 0000000180052514 f i MSVCRT:guard_support.obj
 0001:00051580       _guard_icall_checks_enforced 0000000180052580 f i MSVCRT:guard_support.obj
 0001:00051598       _guard_rf_checks_enforced  0000000180052598 f i MSVCRT:guard_support.obj
 0001:0005159c       ??1type_info@@UEAA@XZ      000000018005259c f   MSVCRT:std_type_info_static.obj
 0001:000515a8       ??_Etype_info@@UEAAPEAXI@Z 00000001800525a8 f i MSVCRT:std_type_info_static.obj
 0001:000515a8       ??_Gtype_info@@UEAAPEAXI@Z 00000001800525a8 f i MSVCRT:std_type_info_static.obj
 0001:000515d4       __isa_available_init       00000001800525d4 f   MSVCRT:cpu_disp.obj
 0001:0005186c       _get_startup_argv_mode     000000018005286c f   MSVCRT:argv_mode.obj
 0001:00051874       __scrt_is_ucrt_dll_in_use  0000000180052874 f   MSVCRT:ucrt_detection.obj
 0001:00051880       _purecall                  0000000180052880 f   vcruntime:VCRUNTIME140.dll
 0001:00051886       __C_specific_handler       0000000180052886 f   vcruntime:VCRUNTIME140.dll
 0001:0005188c       __std_exception_copy       000000018005288c f   vcruntime:VCRUNTIME140.dll
 0001:00051892       __std_exception_destroy    0000000180052892 f   vcruntime:VCRUNTIME140.dll
 0001:00051898       _CxxThrowException         0000000180052898 f   vcruntime:VCRUNTIME140.dll
 0001:0005189e       __std_type_info_destroy_list 000000018005289e f   vcruntime:VCRUNTIME140.dll
 0001:000518a4       __current_exception        00000001800528a4 f   vcruntime:VCRUNTIME140.dll
 0001:000518aa       __current_exception_context 00000001800528aa f   vcruntime:VCRUNTIME140.dll
 0001:000518b0       memset                     00000001800528b0 f   vcruntime:VCRUNTIME140.dll
 0001:000518b6       __stdio_common_vsnprintf_s 00000001800528b6 f   ucrt:api-ms-win-crt-stdio-l1-1-0.dll
 0001:000518bc       _callnewh                  00000001800528bc f   ucrt:api-ms-win-crt-heap-l1-1-0.dll
 0001:000518c2       malloc                     00000001800528c2 f   ucrt:api-ms-win-crt-heap-l1-1-0.dll
 0001:000518c8       free                       00000001800528c8 f   ucrt:api-ms-win-crt-heap-l1-1-0.dll
 0001:000518ce       _initterm                  00000001800528ce f   ucrt:api-ms-win-crt-runtime-l1-1-0.dll
 0001:000518d4       _initterm_e                00000001800528d4 f   ucrt:api-ms-win-crt-runtime-l1-1-0.dll
 0001:000518da       _seh_filter_dll            00000001800528da f   ucrt:api-ms-win-crt-runtime-l1-1-0.dll
 0001:000518e0       _configure_narrow_argv     00000001800528e0 f   ucrt:api-ms-win-crt-runtime-l1-1-0.dll
 0001:000518e6       _initialize_narrow_environment 00000001800528e6 f   ucrt:api-ms-win-crt-runtime-l1-1-0.dll
 0001:000518ec       _initialize_onexit_table   00000001800528ec f   ucrt:api-ms-win-crt-runtime-l1-1-0.dll
 0001:000518f2       _register_onexit_function  00000001800528f2 f   ucrt:api-ms-win-crt-runtime-l1-1-0.dll
 0001:000518f8       _execute_onexit_table      00000001800528f8 f   ucrt:api-ms-win-crt-runtime-l1-1-0.dll
 0001:000518fe       _crt_atexit                00000001800528fe f   ucrt:api-ms-win-crt-runtime-l1-1-0.dll
 0001:00051904       _crt_at_quick_exit         0000000180052904 f   ucrt:api-ms-win-crt-runtime-l1-1-0.dll
 0001:0005190a       _cexit                     000000018005290a f   ucrt:api-ms-win-crt-runtime-l1-1-0.dll
 0001:00051910       terminate                  0000000180052910 f   ucrt:api-ms-win-crt-runtime-l1-1-0.dll
 0001:00051916       QueryPerformanceCounter    0000000180052916 f   kernel32:KERNEL32.dll
 0001:0005191c       GetCurrentProcessId        000000018005291c f   kernel32:KERNEL32.dll
 0001:00051922       GetCurrentThreadId         0000000180052922 f   kernel32:KERNEL32.dll
 0001:00051928       GetSystemTimeAsFileTime    0000000180052928 f   kernel32:KERNEL32.dll
 0001:0005192e       DisableThreadLibraryCalls  000000018005292e f   kernel32:KERNEL32.dll
 0001:00051934       InitializeSListHead        0000000180052934 f   kernel32:KERNEL32.dll
 0001:0005193a       RtlCaptureContext          000000018005293a f   kernel32:KERNEL32.dll
 0001:00051940       RtlLookupFunctionEntry     0000000180052940 f   kernel32:KERNEL32.dll
 0001:00051946       RtlVirtualUnwind           0000000180052946 f   kernel32:KERNEL32.dll
 0001:0005194c       IsDebuggerPresent          000000018005294c f   kernel32:KERNEL32.dll
 0001:00051952       UnhandledExceptionFilter   0000000180052952 f   kernel32:KERNEL32.dll
 0001:00051958       SetUnhandledExceptionFilter 0000000180052958 f   kernel32:KERNEL32.dll
 0001:0005195e       GetStartupInfoW            000000018005295e f   kernel32:KERNEL32.dll
 0001:00051964       IsProcessorFeaturePresent  0000000180052964 f   kernel32:KERNEL32.dll
 0001:0005196a       GetModuleHandleW           000000018005296a f   kernel32:KERNEL32.dll
 0001:00051970       __acrt_initialize          0000000180052970 f   MSVCRT:ucrt_stubs.obj
 0001:00051970       __scrt_stub_for_acrt_initialize 0000000180052970 f   MSVCRT:ucrt_stubs.obj
 0001:00051970       __vcrt_initialize          0000000180052970 f   MSVCRT:ucrt_stubs.obj
 0001:00051974       __acrt_thread_attach       0000000180052974 f   MSVCRT:ucrt_stubs.obj
 0001:00051974       __scrt_stub_for_acrt_thread_attach 0000000180052974 f   MSVCRT:ucrt_stubs.obj
 0001:00051974       __vcrt_thread_attach       0000000180052974 f   MSVCRT:ucrt_stubs.obj
 0001:00051978       __acrt_thread_detach       0000000180052978 f   MSVCRT:ucrt_stubs.obj
 0001:00051978       __scrt_stub_for_acrt_thread_detach 0000000180052978 f   MSVCRT:ucrt_stubs.obj
 0001:00051978       __vcrt_thread_detach       0000000180052978 f   MSVCRT:ucrt_stubs.obj
 0001:0005197c       __acrt_uninitialize        000000018005297c f   MSVCRT:ucrt_stubs.obj
 0001:0005197c       __scrt_stub_for_acrt_uninitialize 000000018005297c f   MSVCRT:ucrt_stubs.obj
 0001:0005197c       __vcrt_uninitialize        000000018005297c f   MSVCRT:ucrt_stubs.obj
 0001:00051980       __acrt_uninitialize_critical 0000000180052980 f   MSVCRT:ucrt_stubs.obj
 0001:00051980       __scrt_stub_for_acrt_uninitialize_critical 0000000180052980 f   MSVCRT:ucrt_stubs.obj
 0001:00051980       __vcrt_uninitialize_critical 0000000180052980 f   MSVCRT:ucrt_stubs.obj
 0001:00051984       __scrt_stub_for_is_c_termination_complete 0000000180052984 f   MSVCRT:ucrt_stubs.obj
 0001:00051984       _is_c_termination_complete 0000000180052984 f   MSVCRT:ucrt_stubs.obj
 0001:00051990       ?atomicMax@ps@cloth@nv@@YAHPECHH@Z 0000000180052990 f   PsWindowsAtomic.obj
 0001:000519c0       ?atomicAdd@ps@cloth@nv@@YAHPECHH@Z 00000001800529c0 f   PsWindowsAtomic.obj
 0001:000519e0       ?atomicDecrement@ps@cloth@nv@@YAHPECH@Z 00000001800529e0 f   PsWindowsAtomic.obj
 0001:00051a00       ?atomicIncrement@ps@cloth@nv@@YAHPECH@Z 0000000180052a00 f   PsWindowsAtomic.obj
 0001:00051a20       ?atomicCompareExchangePointer@ps@cloth@nv@@YAPEAXPEAPECXPEAX1@Z 0000000180052a20 f   PsWindowsAtomic.obj
 0001:00051a30       ?atomicCompareExchange@ps@cloth@nv@@YAHPECHHH@Z 0000000180052a30 f   PsWindowsAtomic.obj
 0001:00051a40       ?atomicExchange@ps@cloth@nv@@YAHPECHH@Z 0000000180052a40 f   PsWindowsAtomic.obj
 0001:00051a50       ?setVirtualParticles@CuCloth@cloth@nv@@UEAAXU?$Range@$$BY03$$CBI@23@U?$Range@$$CBVPxVec3@physx@@@23@@Z 0000000180052a50 f   CuCloth.obj
 0001:00051f30       ?clearParticleAccelerations@CuCloth@cloth@nv@@UEAAXXZ 0000000180052f30 f   CuCloth.obj
 0001:00052020       ?getParticleAccelerations@CuCloth@cloth@nv@@UEAA?AU?$Range@VPxVec4@physx@@@23@XZ 0000000180053020 f   CuCloth.obj
 0001:000521a0       ?getNumVirtualParticles@CuCloth@cloth@nv@@UEBAIXZ 00000001800531a0 f   CuCloth.obj
 0001:000521c0       ?setSelfCollisionIndices@CuCloth@cloth@nv@@UEAAXU?$Range@$$CBI@23@@Z 00000001800531c0 f   CuCloth.obj
 0001:000522b0       ?setPhaseConfig@CuCloth@cloth@nv@@UEAAXU?$Range@$$CBUPhaseConfig@cloth@nv@@@23@@Z 00000001800532b0 f   CuCloth.obj
 0001:00052400       ?getGpuParticles@CuCloth@cloth@nv@@UEAA?AUGpuParticles@23@XZ 0000000180053400 f   CuCloth.obj
 0001:000524f0       ?getPreviousParticles@CuCloth@cloth@nv@@UEBA?AU?$MappedRange@$$CBVPxVec4@physx@@@23@XZ 00000001800534f0 f   CuCloth.obj
 0001:00052540       ?getPreviousParticles@CuCloth@cloth@nv@@UEAA?AU?$MappedRange@VPxVec4@physx@@@23@XZ 0000000180053540 f   CuCloth.obj
 0001:000525a0       ?getCurrentParticles@CuCloth@cloth@nv@@UEBA?AU?$MappedRange@$$CBVPxVec4@physx@@@23@XZ 00000001800535a0 f   CuCloth.obj
 0001:000525e0       ?getCurrentParticles@CuCloth@cloth@nv@@UEAA?AU?$MappedRange@VPxVec4@physx@@@23@XZ 00000001800535e0 f   CuCloth.obj
 0001:00052630       ?unlockParticles@CuCloth@cloth@nv@@UEBAXXZ 0000000180053630 f   CuCloth.obj
 0001:00052640       ?lockParticles@CuCloth@cloth@nv@@UEBAXXZ 0000000180053640 f   CuCloth.obj
 0001:000526f0       ?getNumParticles@CuCloth@cloth@nv@@UEBAIXZ 00000001800536f0 f   CuCloth.obj
 0001:00052700       ?clampTriangleCount@CuCloth@cloth@nv@@QEAA?AU?$Range@$$CBVPxVec3@physx@@@23@U423@I@Z 0000000180053700 f   CuCloth.obj
 0001:00052790       ?syncHostParticles@CuCloth@cloth@nv@@QEAAXXZ 0000000180053790 f   CuCloth.obj
 0001:00052840       ?syncDeviceParticles@CuCloth@cloth@nv@@QEAAXXZ 0000000180053840 f   CuCloth.obj
 0001:000528f0       ?clear@CuCloth@cloth@nv@@QEAAXAEAUCuConstraints@23@@Z 00000001800538f0 f   CuCloth.obj
 0001:000529a0       ?push@CuCloth@cloth@nv@@QEAA?AU?$Range@VPxVec4@physx@@@23@AEAUCuConstraints@23@@Z 00000001800539a0 f   CuCloth.obj
 0001:00052b60       ?setPhaseConfigInternal@CuCloth@cloth@nv@@QEAAXU?$Range@$$CBUPhaseConfig@cloth@nv@@@23@@Z 0000000180053b60 f   CuCloth.obj
 0001:00052d90       ?getSharedMemorySize@CuCloth@cloth@nv@@QEBAIXZ 0000000180053d90 f   CuCloth.obj
 0001:00052eb0       ?updateClothData@CuCloth@cloth@nv@@QEAA_NAEAUCuClothData@23@@Z 0000000180053eb0 f   CuCloth.obj
 0001:00053130       ?notifyChanged@CuCloth@cloth@nv@@QEAAXXZ 0000000180054130 f   CuCloth.obj
 0001:00053140       ??1CuCloth@cloth@nv@@UEAA@XZ 0000000180054140 f   CuCloth.obj
 0001:00053560       ??0CuCloth@cloth@nv@@QEAA@AEAVCuFactory@12@AEBV012@@Z 0000000180054560 f   CuCloth.obj
 0001:000539e0       ??0CuCloth@cloth@nv@@QEAA@AEAVCuFactory@12@AEAVCuFabric@12@U?$Range@$$CBVPxVec4@physx@@@12@@Z 00000001800549e0 f   CuCloth.obj
 0001:00053f30       ?clone@CuFactory@cloth@nv@@UEAAPEAVCloth@23@AEBV423@@Z 0000000180054f30 f   CuClothClone.obj
 0001:00053f90       ?getSelfCollisionIndices@cloth@nv@@YA?AU?$Range@$$CBI@12@AEBVCuCloth@12@@Z 0000000180054f90 f   CuClothClone.obj
 0001:00053fd0       ?getParticleAccelerations@cloth@nv@@YA?AU?$Range@$$CBVPxVec4@physx@@@12@AEBVCuCloth@12@@Z 0000000180054fd0 f   CuClothClone.obj
 0001:00054010       ?setPhaseConfigs@cloth@nv@@YAXAEAVCuCloth@12@U?$Range@$$CBUPhaseConfig@cloth@nv@@@12@@Z 0000000180055010 f   CuClothClone.obj
 0001:00054040       ?getPhaseConfigs@cloth@nv@@YA?AU?$Range@$$CBUPhaseConfig@cloth@nv@@@12@AEBVCuCloth@12@@Z 0000000180055040 f   CuClothClone.obj
 0001:00054090       ?clone@CuCloth@cloth@nv@@UEBAPEAVCloth@23@AEAVFactory@23@@Z 0000000180055090 f   CuClothClone.obj
 0001:00054140       ??0CuIterationData@cloth@nv@@QEAA@AEBU?$IterationState@T__m128@@@12@@Z 0000000180055140 f   CuClothData.obj
 0001:00054270       ??0CuFrameData@cloth@nv@@QEAA@AEAVCuCloth@12@IAEBU?$IterationState@T__m128@@@12@PEBUCuIterationData@12@@Z 0000000180055270 f   CuClothData.obj
 0001:00054790       ??0CuClothData@cloth@nv@@QEAA@AEAVCuCloth@12@@Z 0000000180055790 f   CuClothData.obj
 0001:00054a30       ?release@CuContextLock@cloth@nv@@QEAAXXZ 0000000180055a30 f   CuContextLock.obj
 0001:00054a60       ?acquire@CuContextLock@cloth@nv@@QEAAXXZ 0000000180055a60 f   CuContextLock.obj
 0001:00054a90       ??1CuContextLock@cloth@nv@@QEAA@XZ 0000000180055a90 f   CuContextLock.obj
 0001:00054ac0       ??0CuContextLock@cloth@nv@@QEAA@AEBVCuFactory@12@@Z 0000000180055ac0 f   CuContextLock.obj
 0001:00054b00       ?scaleTetherLengths@CuFabric@cloth@nv@@UEAAXM@Z 0000000180055b00 f   CuFabric.obj
 0001:00054b20       ?scaleRestvalues@CuFabric@cloth@nv@@UEAAXM@Z 0000000180055b20 f   CuFabric.obj
 0001:00054d00       ?getNumTriangles@CuFabric@cloth@nv@@UEBAIXZ 0000000180055d00 f   CuFabric.obj
 0001:00054d30       ?getNumTethers@CuFabric@cloth@nv@@UEBAIXZ 0000000180055d30 f   CuFabric.obj
 0001:00054d50       ?getNumParticles@CuFabric@cloth@nv@@UEBAIXZ 0000000180055d50 f   CuFabric.obj
 0001:00054d60       ?getNumIndices@CuFabric@cloth@nv@@UEBAIXZ 0000000180055d60 f   CuFabric.obj
 0001:00054d80       ?getNumSets@CuFabric@cloth@nv@@UEBAIXZ 0000000180055d80 f   CuFabric.obj
 0001:00054da0       ?getNumStiffnessValues@CuFabric@cloth@nv@@UEBAIXZ 0000000180055da0 f   CuFabric.obj
 0001:00054dc0       ?getNumRestvalues@CuFabric@cloth@nv@@UEBAIXZ 0000000180055dc0 f   CuFabric.obj
 0001:00054de0       ?getNumPhases@CuFabric@cloth@nv@@UEBAIXZ 0000000180055de0 f   CuFabric.obj
 0001:00054e00       ?getFactory@CuFabric@cloth@nv@@UEBAAEAVFactory@23@XZ 0000000180055e00 f   CuFabric.obj
 0001:00054e10       ??1CuFabric@cloth@nv@@UEAA@XZ 0000000180055e10 f   CuFabric.obj
 0001:00055030       ??0CuFabric@cloth@nv@@QEAA@AEAVCuFactory@12@IU?$Range@$$CBI@12@1U?$Range@$$CBM@12@21121I@Z 0000000180056030 f   CuFabric.obj
 0001:00055840       ??0CuTether@cloth@nv@@QEAA@GG@Z 0000000180056840 f   CuFabric.obj
 0001:00055850       ?extractRestPositions@CuFactory@cloth@nv@@UEBAXAEBVCloth@23@U?$Range@VPxVec4@physx@@@23@@Z 0000000180056850 f   CuFactory.obj
 0001:00055870       ?extractSelfCollisionIndices@CuFactory@cloth@nv@@UEBAXAEBVCloth@23@U?$Range@I@23@@Z 0000000180056870 f   CuFactory.obj
 0001:00055890       ?extractVirtualParticles@CuFactory@cloth@nv@@UEBAXAEBVCloth@23@U?$Range@$$BY03I@23@U?$Range@VPxVec3@physx@@@23@@Z 0000000180056890 f   CuFactory.obj
 0001:00055ab0       ?extractParticleAccelerations@CuFactory@cloth@nv@@UEBAXAEBVCloth@23@U?$Range@VPxVec4@physx@@@23@@Z 0000000180056ab0 f   CuFactory.obj
 0001:00055ae0       ?extractSeparationConstraints@CuFactory@cloth@nv@@UEBAXAEBVCloth@23@U?$Range@VPxVec4@physx@@@23@@Z 0000000180056ae0 f   CuFactory.obj
 0001:00055bc0       ?extractMotionConstraints@CuFactory@cloth@nv@@UEBAXAEBVCloth@23@U?$Range@VPxVec4@physx@@@23@@Z 0000000180056bc0 f   CuFactory.obj
 0001:00055ca0       ?extractCollisionData@CuFactory@cloth@nv@@UEBAXAEBVCloth@23@U?$Range@VPxVec4@physx@@@23@U?$Range@I@23@12U?$Range@VPxVec3@physx@@@23@@Z 0000000180056ca0 f   CuFactory.obj
 0001:00055d90       ?extractFabricData@CuFactory@cloth@nv@@UEBAXAEBVFabric@23@U?$Range@I@23@1U?$Range@M@23@21121@Z 0000000180056d90 f   CuFactory.obj
 0001:00056070       ?createSolver@CuFactory@cloth@nv@@UEAAPEAVSolver@23@XZ 0000000180057070 f   CuFactory.obj
 0001:000560f0       ?createCloth@CuFactory@cloth@nv@@UEAAPEAVCloth@23@U?$Range@$$CBVPxVec4@physx@@@23@AEAVFabric@23@@Z 00000001800570f0 f   CuFactory.obj
 0001:00056180       ?createFabric@CuFactory@cloth@nv@@UEAAPEAVFabric@23@IU?$Range@$$CBI@23@0U?$Range@$$CBM@23@10010@Z 0000000180057180 f   CuFactory.obj
 0001:00056300       ??1CuFactory@cloth@nv@@UEAA@XZ 0000000180057300 f   CuFactory.obj
 0001:00056360       ??0CuFactory@cloth@nv@@QEAA@PEAUCUctx_st@@@Z 0000000180057360 f   CuFactory.obj
 0001:00056580       ?copyToHost@CuFactory@cloth@nv@@QEBAXPEBX0PEAX@Z 0000000180057580 f   CuFactory.obj
 0001:00056610       ?checkSuccessImpl@cloth@nv@@YAXW4cudaError_enum@@PEBDH@Z 0000000180057610 f   CuFactory.obj
 0001:00056ae0       ?interCollision@CuSolver@cloth@nv@@AEAAXXZ 0000000180057ae0 f   CuSolver.obj
 0001:000570c0       ?endFrame@CuSolver@cloth@nv@@AEAAXXZ 00000001800580c0 f   CuSolver.obj
 0001:00057490       ?executeKernel@CuSolver@cloth@nv@@AEAAXXZ 0000000180058490 f   CuSolver.obj
 0001:000575e0       ?KernelFinished@CuSolver@cloth@nv@@CAXPEAUCUstream_st@@W4cudaError_enum@@PEAX@Z 00000001800585e0 f   CuSolver.obj
 0001:000575f0       ?beginFrame@CuSolver@cloth@nv@@AEAAXXZ 00000001800585f0 f   CuSolver.obj
 0001:00058090       ?getSimulationChunkCount@CuSolver@cloth@nv@@UEBAHXZ 0000000180059090 f   CuSolver.obj
 0001:000580b0       ?endSimulation@CuSolver@cloth@nv@@UEAAXXZ 00000001800590b0 f   CuSolver.obj
 0001:000580c0       ?simulateChunk@CuSolver@cloth@nv@@UEAAXH@Z 00000001800590c0 f   CuSolver.obj
 0001:00058210       ?beginSimulation@CuSolver@cloth@nv@@UEAA_NM@Z 0000000180059210 f   CuSolver.obj
 0001:00058240       ?getClothList@CuSolver@cloth@nv@@UEBAPEBQEAVCloth@23@XZ 0000000180059240 f   CuSolver.obj
 0001:00058270       ?getNumCloths@CuSolver@cloth@nv@@UEBAHXZ 0000000180059270 f   CuSolver.obj
 0001:00058280       ?removeCloth@CuSolver@cloth@nv@@UEAAXPEAVCloth@23@@Z 0000000180059280 f   CuSolver.obj
 0001:00058410       ?addCloths@CuSolver@cloth@nv@@UEAAXU?$Range@PEAVCloth@cloth@nv@@@23@@Z 0000000180059410 f   CuSolver.obj
 0001:000584b0       ?addCloth@CuSolver@cloth@nv@@UEAAXPEAVCloth@23@@Z 00000001800594b0 f   CuSolver.obj
 0001:00058510       ?updateKernelData@CuSolver@cloth@nv@@AEAAXXZ 0000000180059510 f   CuSolver.obj
 0001:00058570       ?addClothUpdateData@CuSolver@cloth@nv@@AEAAXXZ 0000000180059570 f   CuSolver.obj
 0001:00058640       ?addClothAppend@CuSolver@cloth@nv@@AEAAXPEAVCloth@23@@Z 0000000180059640 f   CuSolver.obj
 0001:000586a0       ??1CuSolver@cloth@nv@@UEAA@XZ 00000001800596a0 f   CuSolver.obj
 0001:00058870       ?getKernelFunctionName@cloth@nv@@YAPEBDXZ 0000000180059870 f   CuSolver.obj
 0001:000588b0       ??0CuSolver@cloth@nv@@QEAA@AEAVCuFactory@12@@Z 00000001800598b0 f   CuSolver.obj
 0001:00058b40       ??$exp2@$01@avx@@YA?AT__m256@@AEBT1@@Z 0000000180059b40 f   SwSolveConstraints.obj
 0001:00058bd0       ??$fnmadd_ps@$01@avx@@YA?AT__m256@@T1@00@Z 0000000180059bd0 f   SwSolveConstraints.obj
 0001:00058bf0       ??$fmadd_ps@$01@avx@@YA?AT__m256@@T1@00@Z 0000000180059bf0 f   SwSolveConstraints.obj
 0001:00058c10       ?initialize@avx@@YAXXZ     0000000180059c10 f   SwSolveConstraints.obj
 0001:00058c60       ?deallocate@Allocator@ps@cloth@nv@@QEAAXPEAX@Z 0000000180059c60 f   PsAllocator.obj
 0001:00058c80       ?allocate@Allocator@ps@cloth@nv@@QEAAPEAX_KPEBDH@Z 0000000180059c80 f   PsAllocator.obj
 0001:00058cc0       ?deallocate@cloth@nv@@YAXPEAX@Z 0000000180059cc0 f   Allocator.obj
 0001:00058ce0       ?allocate@cloth@nv@@YAPEAX_K@Z 0000000180059ce0 f   Allocator.obj
 0001:00058d20       GetNvClothAssertHandler    0000000180059d20 f   Callbacks.obj
 0001:00058d30       ?LogInfoFn@cloth@nv@@YAXPEBDH0ZZ 0000000180059d30 f   Callbacks.obj
 0001:00058d70       ?LogInvalidParameterFn@cloth@nv@@YAXPEBDH0ZZ 0000000180059d70 f   Callbacks.obj
 0001:00058db0       ?LogFn@cloth@nv@@YAXW4Enum@PxErrorCode@physx@@PEBDH1PEAD@Z 0000000180059db0 f   Callbacks.obj
 0001:00058e60       InitializeNvCloth          0000000180059e60 f   Callbacks.obj
 0001:00058e90       ?GetNvClothProfiler@cloth@nv@@YAPEAVPxProfilerCallback@physx@@XZ 0000000180059e90 f   Callbacks.obj
 0001:00058ea0       ?LogErrorFn@cloth@nv@@YAXPEBDH0ZZ 0000000180059ea0 f   Callbacks.obj
 0001:00058ee0       ?LogWarningFn@cloth@nv@@YAXPEBDH0ZZ 0000000180059ee0 f   Callbacks.obj
 0001:00058f20       GetNvClothAllocator        0000000180059f20 f   Callbacks.obj
 0001:00058f30       NvClothCompiledWithDxSupport 0000000180059f30 f   Factory.obj
 0001:00058f40       NvClothCompiledWithCudaSupport 0000000180059f40 f   Factory.obj
 0001:00058f50       NvClothDestroyFactory      0000000180059f50 f   Factory.obj
 0001:00058f70       NvClothCreateFactoryDX11   0000000180059f70 f   Factory.obj
 0001:00058f80       NvClothCreateFactoryCUDA   0000000180059f80 f   Factory.obj
 0001:000590f0       NvClothCreateFactoryCPU    000000018005a0f0 f   Factory.obj
 0001:00059150       ?getNextFabricId@cloth@nv@@YAIXZ 000000018005a150 f   Factory.obj
 0001:00059160       ?transform@cloth@nv@@YA?AUPhaseConfig@12@AEBU312@@Z 000000018005a160 f   PhaseConfig.obj
 0001:00059230       ?setVirtualParticles@SwCloth@cloth@nv@@UEAAXU?$Range@$$BY03$$CBI@23@U?$Range@$$CBVPxVec3@physx@@@23@@Z 000000018005a230 f   SwCloth.obj
 0001:00059530       ?clearParticleAccelerations@SwCloth@cloth@nv@@UEAAXXZ 000000018005a530 f   SwCloth.obj
 0001:00059590       ?getParticleAccelerations@SwCloth@cloth@nv@@UEAA?AU?$Range@VPxVec4@physx@@@23@XZ 000000018005a590 f   SwCloth.obj
 0001:00059610       ?getNumVirtualParticles@SwCloth@cloth@nv@@UEBAIXZ 000000018005a610 f   SwCloth.obj
 0001:00059620       ?setSelfCollisionIndices@SwCloth@cloth@nv@@UEAAXU?$Range@$$CBI@23@@Z 000000018005a620 f   SwCloth.obj
 0001:000596b0       ?setPhaseConfig@SwCloth@cloth@nv@@UEAAXU?$Range@$$CBUPhaseConfig@cloth@nv@@@23@@Z 000000018005a6b0 f   SwCloth.obj
 0001:00059790       ?getGpuParticles@SwCloth@cloth@nv@@UEAA?AUGpuParticles@23@XZ 000000018005a790 f   SwCloth.obj
 0001:000597b0       ?getPreviousParticles@SwCloth@cloth@nv@@UEBA?AU?$MappedRange@$$CBVPxVec4@physx@@@23@XZ 000000018005a7b0 f   SwCloth.obj
 0001:000597e0       ?getPreviousParticles@SwCloth@cloth@nv@@UEAA?AU?$MappedRange@VPxVec4@physx@@@23@XZ 000000018005a7e0 f   SwCloth.obj
 0001:00059810       ?getCurrentParticles@SwCloth@cloth@nv@@UEBA?AU?$MappedRange@$$CBVPxVec4@physx@@@23@XZ 000000018005a810 f   SwCloth.obj
 0001:00059840       ?getCurrentParticles@SwCloth@cloth@nv@@UEAA?AU?$MappedRange@VPxVec4@physx@@@23@XZ 000000018005a840 f   SwCloth.obj
 0001:00059870       ?unlockParticles@SwCloth@cloth@nv@@UEBAXXZ 000000018005a870 f   SwCloth.obj
 0001:00059880       ?lockParticles@SwCloth@cloth@nv@@UEBAXXZ 000000018005a880 f   SwCloth.obj
 0001:00059890       ?getNumParticles@SwCloth@cloth@nv@@UEBAIXZ 000000018005a890 f   SwCloth.obj
 0001:000598a0       ?clone@SwCloth@cloth@nv@@UEBAPEAVCloth@23@AEAVFactory@23@@Z 000000018005a8a0 f   SwCloth.obj
 0001:000598c0       ?clampTriangleCount@SwCloth@cloth@nv@@SA?AU?$Range@$$CBVPxVec3@physx@@@23@U423@I@Z 000000018005a8c0 f   SwCloth.obj
 0001:000598d0       ?clear@SwCloth@cloth@nv@@SAXAEAUSwConstraints@23@@Z 000000018005a8d0 f   SwCloth.obj
 0001:00059950       ?push@SwCloth@cloth@nv@@QEAA?AU?$Range@VPxVec4@physx@@@23@AEAUSwConstraints@23@@Z 000000018005a950 f   SwCloth.obj
 0001:00059a00       ?setParticleBounds@SwCloth@cloth@nv@@QEAAXPEBM@Z 000000018005aa00 f   SwCloth.obj
 0001:00059a80       ??1SwCloth@cloth@nv@@UEAA@XZ 000000018005aa80 f   SwCloth.obj
 0001:00059e30       ??0SwCloth@cloth@nv@@QEAA@AEAVSwFactory@12@AEBV012@@Z 000000018005ae30 f   SwCloth.obj
 0001:0005a1b0       ??0SwCloth@cloth@nv@@QEAA@AEAVSwFactory@12@AEAVSwFabric@12@U?$Range@$$CBVPxVec4@physx@@@12@@Z 000000018005b1b0 f   SwCloth.obj
 0001:0005a5f0       ?verify@SwClothData@cloth@nv@@QEBAXXZ 000000018005b5f0 f   SwClothData.obj
 0001:0005a600       ?reconcile@SwClothData@cloth@nv@@QEBAXAEAVSwCloth@23@@Z 000000018005b600 f   SwClothData.obj
 0001:0005a6a0       ??0SwClothData@cloth@nv@@QEAA@AEAVSwCloth@12@AEBVSwFabric@12@@Z 000000018005b6a0 f   SwClothData.obj
 0001:0005ae00       ?scaleTetherLengths@SwFabric@cloth@nv@@UEAAXM@Z 000000018005be00 f   SwFabric.obj
 0001:0005ae20       ?scaleRestvalues@SwFabric@cloth@nv@@UEAAXM@Z 000000018005be20 f   SwFabric.obj
 0001:0005aeb0       ?getNumTriangles@SwFabric@cloth@nv@@UEBAIXZ 000000018005beb0 f   SwFabric.obj
 0001:0005aed0       ?getNumTethers@SwFabric@cloth@nv@@UEBAIXZ 000000018005bed0 f   SwFabric.obj
 0001:0005aee0       ?getNumParticles@SwFabric@cloth@nv@@UEBAIXZ 000000018005bee0 f   SwFabric.obj
 0001:0005aef0       ?getNumIndices@SwFabric@cloth@nv@@UEBAIXZ 000000018005bef0 f   SwFabric.obj
 0001:0005af00       ?getNumSets@SwFabric@cloth@nv@@UEBAIXZ 000000018005bf00 f   SwFabric.obj
 0001:0005af20       ?getNumStiffnessValues@SwFabric@cloth@nv@@UEBAIXZ 000000018005bf20 f   SwFabric.obj
 0001:0005af40       ?getNumRestvalues@SwFabric@cloth@nv@@UEBAIXZ 000000018005bf40 f   SwFabric.obj
 0001:0005af50       ?getNumPhases@SwFabric@cloth@nv@@UEBAIXZ 000000018005bf50 f   SwFabric.obj
 0001:0005af60       ?getFactory@SwFabric@cloth@nv@@UEBAAEAVFactory@23@XZ 000000018005bf60 f   SwFabric.obj
 0001:0005af70       ??1SwFabric@cloth@nv@@UEAA@XZ 000000018005bf70 f   SwFabric.obj
 0001:0005b0e0       ??0SwFabric@cloth@nv@@QEAA@AEAVSwFactory@12@IU?$Range@$$CBI@12@1U?$Range@$$CBM@12@21121I@Z 000000018005c0e0 f   SwFabric.obj
 0001:0005b800       ??0SwTether@cloth@nv@@QEAA@GM@Z 000000018005c800 f   SwFabric.obj
 0001:0005b810       ?extractRestPositions@SwFactory@cloth@nv@@UEBAXAEBVCloth@23@U?$Range@VPxVec4@physx@@@23@@Z 000000018005c810 f   SwFactory.obj
 0001:0005b840       ?extractSelfCollisionIndices@SwFactory@cloth@nv@@UEBAXAEBVCloth@23@U?$Range@I@23@@Z 000000018005c840 f   SwFactory.obj
 0001:0005b870       ?extractVirtualParticles@SwFactory@cloth@nv@@UEBAXAEBVCloth@23@U?$Range@$$BY03I@23@U?$Range@VPxVec3@physx@@@23@@Z 000000018005c870 f   SwFactory.obj
 0001:0005b990       ?extractParticleAccelerations@SwFactory@cloth@nv@@UEBAXAEBVCloth@23@U?$Range@VPxVec4@physx@@@23@@Z 000000018005c990 f   SwFactory.obj
 0001:0005b9c0       ?extractSeparationConstraints@SwFactory@cloth@nv@@UEBAXAEBVCloth@23@U?$Range@VPxVec4@physx@@@23@@Z 000000018005c9c0 f   SwFactory.obj
 0001:0005ba00       ?extractMotionConstraints@SwFactory@cloth@nv@@UEBAXAEBVCloth@23@U?$Range@VPxVec4@physx@@@23@@Z 000000018005ca00 f   SwFactory.obj
 0001:0005ba40       ?extractCollisionData@SwFactory@cloth@nv@@UEBAXAEBVCloth@23@U?$Range@VPxVec4@physx@@@23@U?$Range@I@23@12U?$Range@VPxVec3@physx@@@23@@Z 000000018005ca40 f   SwFactory.obj
 0001:0005bb30       ?extractFabricData@SwFactory@cloth@nv@@UEBAXAEBVFabric@23@U?$Range@I@23@1U?$Range@M@23@21121@Z 000000018005cb30 f   SwFactory.obj
 0001:0005bda0       ?clone@SwFactory@cloth@nv@@UEAAPEAVCloth@23@AEBV423@@Z 000000018005cda0 f   SwFactory.obj
 0001:0005be40       ?createSolver@SwFactory@cloth@nv@@UEAAPEAVSolver@23@XZ 000000018005ce40 f   SwFactory.obj
 0001:0005bed0       ?createCloth@SwFactory@cloth@nv@@UEAAPEAVCloth@23@U?$Range@$$CBVPxVec4@physx@@@23@AEAVFabric@23@@Z 000000018005ced0 f   SwFactory.obj
 0001:0005bf60       ?createFabric@SwFactory@cloth@nv@@UEAAPEAVFabric@23@IU?$Range@$$CBI@23@0U?$Range@$$CBM@23@10010@Z 000000018005cf60 f   SwFactory.obj
 0001:0005c0e0       ??1SwFactory@cloth@nv@@UEAA@XZ 000000018005d0e0 f   SwFactory.obj
 0001:0005c140       ??0SwFactory@cloth@nv@@QEAA@XZ 000000018005d140 f   SwFactory.obj
 0001:0005c640       ?Simulate@SimulatedCloth@SwSolver@cloth@nv@@QEAAXXZ 000000018005d640 f   SwSolver.obj
 0001:0005cb60       ?Destroy@SimulatedCloth@SwSolver@cloth@nv@@QEAAXXZ 000000018005db60 f   SwSolver.obj
 0001:0005cd70       ??0SimulatedCloth@SwSolver@cloth@nv@@QEAA@AEAVSwCloth@23@PEAV123@@Z 000000018005dd70 f   SwSolver.obj
 0001:0005cd90       ?endFrame@SwSolver@cloth@nv@@AEBAXXZ 000000018005dd90 f   SwSolver.obj
 0001:0005cdd0       ?beginFrame@SwSolver@cloth@nv@@AEBAXXZ 000000018005ddd0 f   SwSolver.obj
 0001:0005ce20       ?addClothAppend@SwSolver@cloth@nv@@AEAAXPEAVCloth@23@@Z 000000018005de20 f   SwSolver.obj
 0001:0005cee0       ?interCollision@SwSolver@cloth@nv@@AEAAXXZ 000000018005dee0 f   SwSolver.obj
 0001:0005d420       ?getSimulationChunkCount@SwSolver@cloth@nv@@UEBAHXZ 000000018005e420 f   SwSolver.obj
 0001:0005d430       ?endSimulation@SwSolver@cloth@nv@@UEAAXXZ 000000018005e430 f   SwSolver.obj
 0001:0005d480       ?simulateChunk@SwSolver@cloth@nv@@UEAAXH@Z 000000018005e480 f   SwSolver.obj
 0001:0005d4d0       ?beginSimulation@SwSolver@cloth@nv@@UEAA_NM@Z 000000018005e4d0 f   SwSolver.obj
 0001:0005d530       ?getClothList@SwSolver@cloth@nv@@UEBAPEBQEAVCloth@23@XZ 000000018005e530 f   SwSolver.obj
 0001:0005d560       ?getNumCloths@SwSolver@cloth@nv@@UEBAHXZ 000000018005e560 f   SwSolver.obj
 0001:0005d570       ?removeCloth@SwSolver@cloth@nv@@UEAAXPEAVCloth@23@@Z 000000018005e570 f   SwSolver.obj
 0001:0005d690       ?addCloths@SwSolver@cloth@nv@@UEAAXU?$Range@PEAVCloth@cloth@nv@@@23@@Z 000000018005e690 f   SwSolver.obj
 0001:0005d710       ?addCloth@SwSolver@cloth@nv@@UEAAXPEAVCloth@23@@Z 000000018005e710 f   SwSolver.obj
 0001:0005d750       ??1SwSolver@cloth@nv@@UEAA@XZ 000000018005e750 f   SwSolver.obj
 0001:0005d830       ??0SwSolver@cloth@nv@@QEAA@XZ 000000018005e830 f   SwSolver.obj
 0001:0005db90       NvClothDestroyTripletScheduler 000000018005eb90 f   TripletScheduler.obj
 0001:0005dbe0       NvClothCreateTripletScheduler 000000018005ebe0 f   TripletScheduler.obj
 0001:0005dc30       ?GetSetSizes@TripletSchedulerTestInterface@cloth@nv@@QEAA?AU?$Range@$$CBI@23@XZ 000000018005ec30 f   TripletScheduler.obj
 0001:0005dc50       ?GetTriplets@TripletSchedulerTestInterface@cloth@nv@@QEAA?AU?$Range@$$CBI@23@XZ 000000018005ec50 f   TripletScheduler.obj
 0001:0005dc80       ?warp@TripletSchedulerTestInterface@cloth@nv@@QEAAXII@Z 000000018005ec80 f   TripletScheduler.obj
 0001:0005dc90       ?simd@TripletSchedulerTestInterface@cloth@nv@@QEAAXII@Z 000000018005ec90 f   TripletScheduler.obj
 0001:0005dca0       ??1TripletSchedulerTestInterface@cloth@nv@@QEAA@XZ 000000018005eca0 f   TripletScheduler.obj
 0001:0005dce0       ??0TripletSchedulerTestInterface@cloth@nv@@QEAA@U?$Range@$$BY03$$CBI@12@@Z 000000018005ece0 f   TripletScheduler.obj
 0001:0005e030       ?simd@TripletScheduler@cloth@nv@@QEAAXII@Z 000000018005f030 f   TripletScheduler.obj
 0001:0005e3c0       ?warp@TripletScheduler@cloth@nv@@QEAAXII@Z 000000018005f3c0 f   TripletScheduler.obj
 0001:0005ea20       ??0TripletScheduler@cloth@nv@@QEAA@U?$Range@$$BY03$$CBI@12@@Z 000000018005fa20 f   TripletScheduler.obj
 0001:0005f6c0       NvClothCookFabricFromMesh  00000001800606c0 f   ClothFabricCooker.obj
 0001:0005fb50       NvClothCreateFabricCooker  0000000180060b50 f   ClothFabricCooker.obj
 0001:0005fc10       ?save@FabricCookerImpl@cloth@nv@@UEBAXAEAVPxOutputStream@physx@@_N@Z 0000000180060c10 f   ClothFabricCooker.obj
 0001:0005fd50       ?getDescriptor@FabricCookerImpl@cloth@nv@@UEBA?AVClothFabricDesc@23@XZ 0000000180060d50 f   ClothFabricCooker.obj
 0001:0005fe70       ?getCookedData@FabricCookerImpl@cloth@nv@@UEBA?AUCookedData@23@XZ 0000000180060e70 f   ClothFabricCooker.obj
 0001:0005fff0       ?cook@FabricCookerImpl@cloth@nv@@UEAA_NAEBVClothMeshDesc@23@VPxVec3@physx@@_N@Z 0000000180060ff0 f   ClothFabricCooker.obj
 0001:000621a0       ?computeGeodesicDistance@ClothGeodesicTetherCooker@cloth@nv@@IEAAMIIAEAH@Z 00000001800631a0 f   ClothGeodesicTetherCooker.obj
 0001:000634a0       ?findVertTriNeighbors@ClothGeodesicTetherCooker@cloth@nv@@IEAAXXZ 00000001800644a0 f   ClothGeodesicTetherCooker.obj
 0001:000636e0       ?findTriNeighbors@ClothGeodesicTetherCooker@cloth@nv@@IEAAIXZ 00000001800646e0 f   ClothGeodesicTetherCooker.obj
 0001:00063ab0       ?getTetherData@ClothGeodesicTetherCooker@cloth@nv@@UEBAXPEAIPEAM@Z 0000000180064ab0 f   ClothGeodesicTetherCooker.obj
 0001:00063b10       ?getNbTethersPerParticle@ClothGeodesicTetherCooker@cloth@nv@@UEBAIXZ 0000000180064b10 f   ClothGeodesicTetherCooker.obj
 0001:00063b30       ?getCookerStatus@ClothGeodesicTetherCooker@cloth@nv@@UEBAIXZ 0000000180064b30 f   ClothGeodesicTetherCooker.obj
 0001:00063b40       ?createTetherData@ClothGeodesicTetherCooker@cloth@nv@@IEAAXAEBVClothMeshDesc@23@@Z 0000000180064b40 f   ClothGeodesicTetherCooker.obj
 0001:00064ad0       ?cook@ClothGeodesicTetherCooker@cloth@nv@@UEAA_NAEBVClothMeshDesc@23@@Z 0000000180065ad0 f   ClothGeodesicTetherCooker.obj
 0001:00064eb0       NvClothCreateGeodesicTetherCooker 0000000180065eb0 f   ClothGeodesicTetherCooker.obj
 0001:000651b0       NvClothCreateMeshQuadifier 00000001800661b0 f   ClothMeshQuadifier.obj
 0001:00065260       ?getDescriptor@ClothMeshQuadifierImpl@cloth@nv@@UEBA?AVClothMeshDesc@23@XZ 0000000180066260 f   ClothMeshQuadifier.obj
 0001:00065300       ?quadify@ClothMeshQuadifierImpl@cloth@nv@@UEAA_NAEBVClothMeshDesc@23@@Z 0000000180066300 f   ClothMeshQuadifier.obj
 0001:00066b80       ?getTetherData@ClothSimpleTetherCooker@cloth@nv@@UEBAXPEAIPEAM@Z 0000000180067b80 f   ClothSimpleTetherCooker.obj
 0001:00066bd0       ?getCookerStatus@ClothSimpleTetherCooker@cloth@nv@@UEBAIXZ 0000000180067bd0 f   ClothSimpleTetherCooker.obj
 0001:00066be0       ?createTetherData@ClothSimpleTetherCooker@cloth@nv@@IEAAXAEBVClothMeshDesc@23@@Z 0000000180067be0 f   ClothSimpleTetherCooker.obj
 0001:00066fb0       ?cook@ClothSimpleTetherCooker@cloth@nv@@UEAA_NAEBVClothMeshDesc@23@@Z 0000000180067fb0 f   ClothSimpleTetherCooker.obj
 0001:00066fe0       NvClothCreateSimpleTetherCooker 0000000180067fe0 f   ClothSimpleTetherCooker.obj
 0001:0006703d       memcpy                     000000018006803d f   vcruntime:VCRUNTIME140.dll
 0001:00067043       asinf                      0000000180068043 f   ucrt:api-ms-win-crt-math-l1-1-0.dll
 0001:00067049       cosf                       0000000180068049 f   ucrt:api-ms-win-crt-math-l1-1-0.dll
 0001:0006704f       expf                       000000018006804f f   ucrt:api-ms-win-crt-math-l1-1-0.dll
 0001:00067055       logf                       0000000180068055 f   ucrt:api-ms-win-crt-math-l1-1-0.dll
 0001:0006705b       sinf                       000000018006805b f   ucrt:api-ms-win-crt-math-l1-1-0.dll
 0001:00067080       _guard_dispatch_icall_nop  0000000180068080 f   MSVCRT:guard_dispatch.obj
 0001:000670a0       _guard_xfg_dispatch_icall_nop 00000001800680a0 f   MSVCRT:guard_xfg_dispatch.obj
 0002:00000000       __imp_InitOnceExecuteOnce  0000000180069000     kernel32:KERNEL32.dll
 0002:00000008       __imp_GetProcAddress       0000000180069008     kernel32:KERNEL32.dll
 0002:00000010       __imp_LoadLibraryExA       0000000180069010     kernel32:KERNEL32.dll
 0002:00000018       __imp_InitializeSListHead  0000000180069018     kernel32:KERNEL32.dll
 0002:00000020       __imp_DisableThreadLibraryCalls 0000000180069020     kernel32:KERNEL32.dll
 0002:00000028       __imp_GetSystemTimeAsFileTime 0000000180069028     kernel32:KERNEL32.dll
 0002:00000030       __imp_GetCurrentThreadId   0000000180069030     kernel32:KERNEL32.dll
 0002:00000038       __imp_GetCurrentProcessId  0000000180069038     kernel32:KERNEL32.dll
 0002:00000040       __imp_QueryPerformanceCounter 0000000180069040     kernel32:KERNEL32.dll
 0002:00000048       __imp_RtlLookupFunctionEntry 0000000180069048     kernel32:KERNEL32.dll
 0002:00000050       __imp_RtlVirtualUnwind     0000000180069050     kernel32:KERNEL32.dll
 0002:00000058       __imp_IsDebuggerPresent    0000000180069058     kernel32:KERNEL32.dll
 0002:00000060       __imp_UnhandledExceptionFilter 0000000180069060     kernel32:KERNEL32.dll
 0002:00000068       __imp_SetUnhandledExceptionFilter 0000000180069068     kernel32:KERNEL32.dll
 0002:00000070       __imp_GetStartupInfoW      0000000180069070     kernel32:KERNEL32.dll
 0002:00000078       __imp_IsProcessorFeaturePresent 0000000180069078     kernel32:KERNEL32.dll
 0002:00000080       __imp_GetModuleHandleW     0000000180069080     kernel32:KERNEL32.dll
 0002:00000088       __imp_RtlCaptureContext    0000000180069088     kernel32:KERNEL32.dll
 0002:00000090       \177KERNEL32_NULL_THUNK_DATA 0000000180069090     kernel32:KERNEL32.dll
 0002:00000098       __imp___C_specific_handler 0000000180069098     vcruntime:VCRUNTIME140.dll
 0002:000000a0       __imp___std_exception_copy 00000001800690a0     vcruntime:VCRUNTIME140.dll
 0002:000000a8       __imp___std_exception_destroy 00000001800690a8     vcruntime:VCRUNTIME140.dll
 0002:000000b0       __imp_memcpy               00000001800690b0     vcruntime:VCRUNTIME140.dll
 0002:000000b8       __imp__CxxThrowException   00000001800690b8     vcruntime:VCRUNTIME140.dll
 0002:000000c0       __imp___std_type_info_destroy_list 00000001800690c0     vcruntime:VCRUNTIME140.dll
 0002:000000c8       __imp___current_exception  00000001800690c8     vcruntime:VCRUNTIME140.dll
 0002:000000d0       __imp_memset               00000001800690d0     vcruntime:VCRUNTIME140.dll
 0002:000000d8       __imp___current_exception_context 00000001800690d8     vcruntime:VCRUNTIME140.dll
 0002:000000e0       __imp__purecall            00000001800690e0     vcruntime:VCRUNTIME140.dll
 0002:000000e8       \177VCRUNTIME140_NULL_THUNK_DATA 00000001800690e8     vcruntime:VCRUNTIME140.dll
 0002:000000f0       __imp_free                 00000001800690f0     ucrt:api-ms-win-crt-heap-l1-1-0.dll
 0002:000000f8       __imp__callnewh            00000001800690f8     ucrt:api-ms-win-crt-heap-l1-1-0.dll
 0002:00000100       __imp_malloc               0000000180069100     ucrt:api-ms-win-crt-heap-l1-1-0.dll
 0002:00000108       \177api-ms-win-crt-heap-l1-1-0_NULL_THUNK_DATA 0000000180069108     ucrt:api-ms-win-crt-heap-l1-1-0.dll
 0002:00000110       __imp_asinf                0000000180069110     ucrt:api-ms-win-crt-math-l1-1-0.dll
 0002:00000118       __imp_expf                 0000000180069118     ucrt:api-ms-win-crt-math-l1-1-0.dll
 0002:00000120       __imp_logf                 0000000180069120     ucrt:api-ms-win-crt-math-l1-1-0.dll
 0002:00000128       __imp_sinf                 0000000180069128     ucrt:api-ms-win-crt-math-l1-1-0.dll
 0002:00000130       __imp_cosf                 0000000180069130     ucrt:api-ms-win-crt-math-l1-1-0.dll
 0002:00000138       \177api-ms-win-crt-math-l1-1-0_NULL_THUNK_DATA 0000000180069138     ucrt:api-ms-win-crt-math-l1-1-0.dll
 0002:00000140       __imp__initialize_onexit_table 0000000180069140     ucrt:api-ms-win-crt-runtime-l1-1-0.dll
 0002:00000148       __imp__initterm            0000000180069148     ucrt:api-ms-win-crt-runtime-l1-1-0.dll
 0002:00000150       __imp_terminate            0000000180069150     ucrt:api-ms-win-crt-runtime-l1-1-0.dll
 0002:00000158       __imp__cexit               0000000180069158     ucrt:api-ms-win-crt-runtime-l1-1-0.dll
 0002:00000160       __imp__crt_atexit          0000000180069160     ucrt:api-ms-win-crt-runtime-l1-1-0.dll
 0002:00000168       __imp__execute_onexit_table 0000000180069168     ucrt:api-ms-win-crt-runtime-l1-1-0.dll
 0002:00000170       __imp__register_onexit_function 0000000180069170     ucrt:api-ms-win-crt-runtime-l1-1-0.dll
 0002:00000178       __imp__crt_at_quick_exit   0000000180069178     ucrt:api-ms-win-crt-runtime-l1-1-0.dll
 0002:00000180       __imp__initialize_narrow_environment 0000000180069180     ucrt:api-ms-win-crt-runtime-l1-1-0.dll
 0002:00000188       __imp__configure_narrow_argv 0000000180069188     ucrt:api-ms-win-crt-runtime-l1-1-0.dll
 0002:00000190       __imp__seh_filter_dll      0000000180069190     ucrt:api-ms-win-crt-runtime-l1-1-0.dll
 0002:00000198       __imp__initterm_e          0000000180069198     ucrt:api-ms-win-crt-runtime-l1-1-0.dll
 0002:000001a0       \177api-ms-win-crt-runtime-l1-1-0_NULL_THUNK_DATA 00000001800691a0     ucrt:api-ms-win-crt-runtime-l1-1-0.dll
 0002:000001a8       __imp___stdio_common_vsnprintf_s 00000001800691a8     ucrt:api-ms-win-crt-stdio-l1-1-0.dll
 0002:000001b0       \177api-ms-win-crt-stdio-l1-1-0_NULL_THUNK_DATA 00000001800691b0     ucrt:api-ms-win-crt-stdio-l1-1-0.dll
 0002:000001b8       __guard_check_icall_fptr   00000001800691b8     MSVCRT:guard_support.obj
 0002:000001c0       __guard_xfg_check_icall_fptr 00000001800691c0     MSVCRT:guard_support.obj
 0002:000001c8       __guard_dispatch_icall_fptr 00000001800691c8     MSVCRT:guard_support.obj
 0002:000001d0       __guard_xfg_dispatch_icall_fptr 00000001800691d0     MSVCRT:guard_support.obj
 0002:000001d8       __guard_xfg_table_dispatch_icall_fptr 00000001800691d8     MSVCRT:guard_support.obj
 0002:000001e0       __castguard_check_failure_os_handled_fptr 00000001800691e0     MSVCRT:guard_support.obj
 0002:000001e8       __guard_memcpy_fptr        00000001800691e8     vcruntime:softmemtag.obj
 0002:000001f0       __xc_a                     00000001800691f0     MSVCRT:initializers.obj
 0002:00000218       __xc_z                     0000000180069218     MSVCRT:initializers.obj
 0002:00000220       __xi_a                     0000000180069220     MSVCRT:initializers.obj
 0002:00000228       __xi_z                     0000000180069228     MSVCRT:initializers.obj
 0002:00000230       __xp_a                     0000000180069230     MSVCRT:initializers.obj
 0002:00000238       __xp_z                     0000000180069238     MSVCRT:initializers.obj
 0002:00000240       __xt_a                     0000000180069240     MSVCRT:initializers.obj
 0002:00000248       __xt_z                     0000000180069248     MSVCRT:initializers.obj
 0002:00000260       ??_C@_0BB@COEDOFII@cuGetErrorString?$AA@ 0000000180069260     cuda:cuda_driverloader_generated_cuda_driverloader_cuda.obj
 0002:00000278       ??_C@_0P@GECMDDHD@cuGetErrorName?$AA@ 0000000180069278     cuda:cuda_driverloader_generated_cuda_driverloader_cuda.obj
 0002:00000288       ??_C@_06BGNBMNO@cuInit?$AA@ 0000000180069288     cuda:cuda_driverloader_generated_cuda_driverloader_cuda.obj
 0002:00000290       ??_C@_0BD@GCANFLFI@cuDriverGetVersion?$AA@ 0000000180069290     cuda:cuda_driverloader_generated_cuda_driverloader_cuda.obj
 0002:000002a8       ??_C@_0M@HNBJNLLN@cuDeviceGet?$AA@ 00000001800692a8     cuda:cuda_driverloader_generated_cuda_driverloader_cuda.obj
 0002:000002b8       ??_C@_0BB@FHDBPPFB@cuDeviceGetCount?$AA@ 00000001800692b8     cuda:cuda_driverloader_generated_cuda_driverloader_cuda.obj
 0002:000002d0       ??_C@_0BA@OHKMFJNA@cuDeviceGetName?$AA@ 00000001800692d0     cuda:cuda_driverloader_generated_cuda_driverloader_cuda.obj
 0002:000002e0       ??_C@_0BA@DBPFKGBG@cuDeviceGetUuid?$AA@ 00000001800692e0     cuda:cuda_driverloader_generated_cuda_driverloader_cuda.obj
 0002:000002f0       ??_C@_0BA@FMAFFDOF@cuDeviceGetLuid?$AA@ 00000001800692f0     cuda:cuda_driverloader_generated_cuda_driverloader_cuda.obj
 0002:00000300       ??_C@_0BB@PMLCNFHH@cuDeviceTotalMem?$AA@ 0000000180069300     cuda:cuda_driverloader_generated_cuda_driverloader_cuda.obj
 0002:00000318       ??_C@_0CD@HFPAKKMG@cuDeviceGetTexture1DLinearMaxWid@ 0000000180069318     cuda:cuda_driverloader_generated_cuda_driverloader_cuda.obj
 0002:00000340       ??_C@_0BF@PDOGFPNC@cuDeviceGetAttribute?$AA@ 0000000180069340     cuda:cuda_driverloader_generated_cuda_driverloader_cuda.obj
 0002:00000358       ??_C@_0CC@OFOBOGFI@cuDeviceGetHostAtomicCapabilitie@ 0000000180069358     cuda:cuda_driverloader_generated_cuda_driverloader_cuda.obj
 0002:00000380       ??_C@_0BP@JDHDPONH@cuDeviceGetNvSciSyncAttributes?$AA@ 0000000180069380     cuda:cuda_driverloader_generated_cuda_driverloader_cuda.obj
 0002:000003a0       ??_C@_0BD@NNDINAKF@cuDeviceSetMemPool?$AA@ 00000001800693a0     cuda:cuda_driverloader_generated_cuda_driverloader_cuda.obj
 0002:000003b8       ??_C@_0BD@MDBHGHOM@cuDeviceGetMemPool?$AA@ 00000001800693b8     cuda:cuda_driverloader_generated_cuda_driverloader_cuda.obj
 0002:000003d0       ??_C@_0BK@MHGBMEKL@cuDeviceGetDefaultMemPool?$AA@ 00000001800693d0     cuda:cuda_driverloader_generated_cuda_driverloader_cuda.obj
 0002:000003f0       ??_C@_0BP@PGPJNCL@cuDeviceGetExecAffinitySupport?$AA@ 00000001800693f0     cuda:cuda_driverloader_generated_cuda_driverloader_cuda.obj
 0002:00000410       ??_C@_0BL@DLIIDLMF@cuFlushGPUDirectRDMAWrites?$AA@ 0000000180069410     cuda:cuda_driverloader_generated_cuda_driverloader_cuda.obj
 0002:00000430       ??_C@_0BG@DJIPABBC@cuDeviceGetProperties?$AA@ 0000000180069430     cuda:cuda_driverloader_generated_cuda_driverloader_cuda.obj
 0002:00000448       ??_C@_0BK@MMNDNMDI@cuDeviceComputeCapability?$AA@ 0000000180069448     cuda:cuda_driverloader_generated_cuda_driverloader_cuda.obj
 0002:00000468       ??_C@_0BJ@FCIECOCP@cuDevicePrimaryCtxRetain?$AA@ 0000000180069468     cuda:cuda_driverloader_generated_cuda_driverloader_cuda.obj
 0002:00000488       ??_C@_0BK@HIEGBIGP@cuDevicePrimaryCtxRelease?$AA@ 0000000180069488     cuda:cuda_driverloader_generated_cuda_driverloader_cuda.obj
 0002:000004a8       ??_C@_0BL@BKBBCOFN@cuDevicePrimaryCtxSetFlags?$AA@ 00000001800694a8     cuda:cuda_driverloader_generated_cuda_driverloader_cuda.obj
 0002:000004c8       ??_C@_0BL@OKEONKLF@cuDevicePrimaryCtxGetState?$AA@ 00000001800694c8     cuda:cuda_driverloader_generated_cuda_driverloader_cuda.obj
 0002:000004e8       ??_C@_0BI@CDHEKJJF@cuDevicePrimaryCtxReset?$AA@ 00000001800694e8     cuda:cuda_driverloader_generated_cuda_driverloader_cuda.obj
 0002:00000500       ??_C@_0M@FJNHCJJN@cuCtxCreate?$AA@ 0000000180069500     cuda:cuda_driverloader_generated_cuda_driverloader_cuda.obj
 0002:00000510       ??_C@_0N@INNFHCEI@cuCtxDestroy?$AA@ 0000000180069510     cuda:cuda_driverloader_generated_cuda_driverloader_cuda.obj
 0002:00000520       ??_C@_0BB@OLHBCPOA@cuCtxPushCurrent?$AA@ 0000000180069520     cuda:cuda_driverloader_generated_cuda_driverloader_cuda.obj
 0002:00000538       ??_C@_0BA@CCGMODMI@cuCtxPopCurrent?$AA@ 0000000180069538     cuda:cuda_driverloader_generated_cuda_driverloader_cuda.obj
 0002:00000548       ??_C@_0BA@PBEAEEAM@cuCtxSetCurrent?$AA@ 0000000180069548     cuda:cuda_driverloader_generated_cuda_driverloader_cuda.obj
 0002:00000558       ??_C@_0BA@OPGPPDEF@cuCtxGetCurrent?$AA@ 0000000180069558     cuda:cuda_driverloader_generated_cuda_driverloader_cuda.obj
 0002:00000568       ??_C@_0P@LOBLDFFE@cuCtxGetDevice?$AA@ 0000000180069568     cuda:cuda_driverloader_generated_cuda_driverloader_cuda.obj
 0002:00000578       ??_C@_0O@OALHECKC@cuCtxGetFlags?$AA@ 0000000180069578     cuda:cuda_driverloader_generated_cuda_driverloader_cuda.obj
 0002:00000588       ??_C@_0O@BBJLFBNP@cuCtxSetFlags?$AA@ 0000000180069588     cuda:cuda_driverloader_generated_cuda_driverloader_cuda.obj
 0002:00000598       ??_C@_0L@IEKECDNM@cuCtxGetId?$AA@ 0000000180069598     cuda:cuda_driverloader_generated_cuda_driverloader_cuda.obj
 0002:000005a8       ??_C@_0BB@LPDDEHBO@cuCtxSynchronize?$AA@ 00000001800695a8     cuda:cuda_driverloader_generated_cuda_driverloader_cuda.obj
 0002:000005c0       ??_C@_0O@HHOJPJLM@cuCtxSetLimit?$AA@ 00000001800695c0     cuda:cuda_driverloader_generated_cuda_driverloader_cuda.obj
 0002:000005d0       ??_C@_0O@IGMFOKMB@cuCtxGetLimit?$AA@ 00000001800695d0     cuda:cuda_driverloader_generated_cuda_driverloader_cuda.obj
 0002:000005e0       ??_C@_0BE@LELLLOEP@cuCtxGetCacheConfig?$AA@ 00000001800695e0     cuda:cuda_driverloader_generated_cuda_driverloader_cuda.obj
 0002:000005f8       ??_C@_0BE@HKKFEEGD@cuCtxSetCacheConfig?$AA@ 00000001800695f8     cuda:cuda_driverloader_generated_cuda_driverloader_cuda.obj
 0002:00000610       ??_C@_0BD@EBMOCPLL@cuCtxGetApiVersion?$AA@ 0000000180069610     cuda:cuda_driverloader_generated_cuda_driverloader_cuda.obj
 0002:00000628       ??_C@_0BM@PIPHGPCK@cuCtxGetStreamPriorityRange?$AA@ 0000000180069628     cuda:cuda_driverloader_generated_cuda_driverloader_cuda.obj
 0002:00000648       ??_C@_0BM@DNOEEFCG@cuCtxResetPersistingL2Cache?$AA@ 0000000180069648     cuda:cuda_driverloader_generated_cuda_driverloader_cuda.obj
 0002:00000668       ??_C@_0BF@PBCNIABK@cuCtxGetExecAffinity?$AA@ 0000000180069668     cuda:cuda_driverloader_generated_cuda_driverloader_cuda.obj
 0002:00000680       ??_C@_0BB@IOECMMNJ@cuCtxRecordEvent?$AA@ 0000000180069680     cuda:cuda_driverloader_generated_cuda_driverloader_cuda.obj
 0002:00000698       ??_C@_0P@JNPPGONF@cuCtxWaitEvent?$AA@ 0000000180069698     cuda:cuda_driverloader_generated_cuda_driverloader_cuda.obj
 0002:000006a8       ??_C@_0M@OJFGKOCD@cuCtxAttach?$AA@ 00000001800696a8     cuda:cuda_driverloader_generated_cuda_driverloader_cuda.obj
 0002:000006b8       ??_C@_0M@HDOEFALK@cuCtxDetach?$AA@ 00000001800696b8     cuda:cuda_driverloader_generated_cuda_driverloader_cuda.obj
 0002:000006c8       ??_C@_0BI@NBLCPFIG@cuCtxGetSharedMemConfig?$AA@ 00000001800696c8     cuda:cuda_driverloader_generated_cuda_driverloader_cuda.obj
 0002:000006e0       ??_C@_0BI@CLJIMDGO@cuCtxSetSharedMemConfig?$AA@ 00000001800696e0     cuda:cuda_driverloader_generated_cuda_driverloader_cuda.obj
 0002:000006f8       ??_C@_0N@IFLJFIJB@cuModuleLoad?$AA@ 00000001800696f8     cuda:cuda_driverloader_generated_cuda_driverloader_cuda.obj
 0002:00000708       ??_C@_0BB@MOHBGPBC@cuModuleLoadData?$AA@ 0000000180069708     cuda:cuda_driverloader_generated_cuda_driverloader_cuda.obj
 0002:00000720       ??_C@_0BD@DEEOHOLO@cuModuleLoadDataEx?$AA@ 0000000180069720     cuda:cuda_driverloader_generated_cuda_driverloader_cuda.obj
 0002:00000738       ??_C@_0BG@KAGEFBHF@cuModuleLoadFatBinary?$AA@ 0000000180069738     cuda:cuda_driverloader_generated_cuda_driverloader_cuda.obj
 0002:00000750       ??_C@_0P@FDOFKBJI@cuModuleUnload?$AA@ 0000000180069750     cuda:cuda_driverloader_generated_cuda_driverloader_cuda.obj
 0002:00000760       ??_C@_0BH@CGIKCFKL@cuModuleGetLoadingMode?$AA@ 0000000180069760     cuda:cuda_driverloader_generated_cuda_driverloader_cuda.obj
 0002:00000778       ??_C@_0BE@NDFPCGHH@cuModuleGetFunction?$AA@ 0000000180069778     cuda:cuda_driverloader_generated_cuda_driverloader_cuda.obj
 0002:00000790       ??_C@_0BJ@MEALKBEE@cuModuleGetFunctionCount?$AA@ 0000000180069790     cuda:cuda_driverloader_generated_cuda_driverloader_cuda.obj
 0002:000007b0       ??_C@_0BL@JELHNMJL@cuModuleEnumerateFunctions?$AA@ 00000001800697b0     cuda:cuda_driverloader_generated_cuda_driverloader_cuda.obj
 0002:000007d0       ??_C@_0BC@LMECHINC@cuModuleGetGlobal?$AA@ 00000001800697d0     cuda:cuda_driverloader_generated_cuda_driverloader_cuda.obj
 0002:000007e8       ??_C@_0N@LNOIEPFL@cuLinkCreate?$AA@ 00000001800697e8     cuda:cuda_driverloader_generated_cuda_driverloader_cuda.obj
 0002:000007f8       ??_C@_0O@HOJHIJGH@cuLinkAddData?$AA@ 00000001800697f8     cuda:cuda_driverloader_generated_cuda_driverloader_cuda.obj
 0002:00000808       ??_C@_0O@LHLKMFCE@cuLinkAddFile?$AA@ 0000000180069808     cuda:cuda_driverloader_generated_cuda_driverloader_cuda.obj
 0002:00000818       ??_C@_0P@LIBFFNPI@cuLinkComplete?$AA@ 0000000180069818     cuda:cuda_driverloader_generated_cuda_driverloader_cuda.obj
 0002:00000828       ??_C@_0O@PPDGCKKL@cuLinkDestroy?$AA@ 0000000180069828     cuda:cuda_driverloader_generated_cuda_driverloader_cuda.obj
 0002:00000838       ??_C@_0BC@BCHGFMCM@cuModuleGetTexRef?$AA@ 0000000180069838     cuda:cuda_driverloader_generated_cuda_driverloader_cuda.obj
 0002:00000850       ??_C@_0BD@PGPGAACI@cuModuleGetSurfRef?$AA@ 0000000180069850     cuda:cuda_driverloader_generated_cuda_driverloader_cuda.obj
 0002:00000868       ??_C@_0BC@JOGDCLBB@cuLibraryLoadData?$AA@ 0000000180069868     cuda:cuda_driverloader_generated_cuda_driverloader_cuda.obj
 0002:00000880       ??_C@_0BG@IDNJLBBL@cuLibraryLoadFromFile?$AA@ 0000000180069880     cuda:cuda_driverloader_generated_cuda_driverloader_cuda.obj
 0002:00000898       ??_C@_0BA@NBGEJCAG@cuLibraryUnload?$AA@ 0000000180069898     cuda:cuda_driverloader_generated_cuda_driverloader_cuda.obj
 0002:000008a8       ??_C@_0BD@BABLEEMH@cuLibraryGetKernel?$AA@ 00000001800698a8     cuda:cuda_driverloader_generated_cuda_driverloader_cuda.obj
 0002:000008c0       ??_C@_0BI@NCKHDHEJ@cuLibraryGetKernelCount?$AA@ 00000001800698c0     cuda:cuda_driverloader_generated_cuda_driverloader_cuda.obj
 0002:000008d8       ??_C@_0BK@KLGBCEJL@cuLibraryEnumerateKernels?$AA@ 00000001800698d8     cuda:cuda_driverloader_generated_cuda_driverloader_cuda.obj
 0002:000008f8       ??_C@_0BD@GEPLGAOB@cuLibraryGetModule?$AA@ 00000001800698f8     cuda:cuda_driverloader_generated_cuda_driverloader_cuda.obj
 0002:00000910       ??_C@_0BE@OJOMNOMI@cuKernelGetFunction?$AA@ 0000000180069910     cuda:cuda_driverloader_generated_cuda_driverloader_cuda.obj
 0002:00000928       ??_C@_0BD@FFKBHLIJ@cuKernelGetLibrary?$AA@ 0000000180069928     cuda:cuda_driverloader_generated_cuda_driverloader_cuda.obj
 0002:00000940       ??_C@_0BD@CFBLDLCM@cuLibraryGetGlobal?$AA@ 0000000180069940     cuda:cuda_driverloader_generated_cuda_driverloader_cuda.obj
 0002:00000958       ??_C@_0BE@GFDNGJFF@cuLibraryGetManaged?$AA@ 0000000180069958     cuda:cuda_driverloader_generated_cuda_driverloader_cuda.obj
 0002:00000970       ??_C@_0BM@DELFJOJH@cuLibraryGetUnifiedFunction?$AA@ 0000000180069970     cuda:cuda_driverloader_generated_cuda_driverloader_cuda.obj
 0002:00000990       ??_C@_0BF@LCCEDNBE@cuKernelGetAttribute?$AA@ 0000000180069990     cuda:cuda_driverloader_generated_cuda_driverloader_cuda.obj
 0002:000009a8       ??_C@_0BF@MGJKPBFI@cuKernelSetAttribute?$AA@ 00000001800699a8     cuda:cuda_driverloader_generated_cuda_driverloader_cuda.obj
 0002:000009c0       ??_C@_0BH@LOKJFMLM@cuKernelSetCacheConfig?$AA@ 00000001800699c0     cuda:cuda_driverloader_generated_cuda_driverloader_cuda.obj
 0002:000009d8       ??_C@_0BA@DKLIAFMG@cuKernelGetName?$AA@ 00000001800699d8     cuda:cuda_driverloader_generated_cuda_driverloader_cuda.obj
 0002:000009e8       ??_C@_0BF@EDJDEMCB@cuKernelGetParamInfo?$AA@ 00000001800699e8     cuda:cuda_driverloader_generated_cuda_driverloader_cuda.obj
 0002:00000a00       ??_C@_0N@DCCFJJLF@cuMemGetInfo?$AA@ 0000000180069a00     cuda:cuda_driverloader_generated_cuda_driverloader_cuda.obj
 0002:00000a10       ??_C@_0L@PEPECIBL@cuMemAlloc?$AA@ 0000000180069a10     cuda:cuda_driverloader_generated_cuda_driverloader_cuda.obj
 0002:00000a20       ??_C@_0BA@CLOPGACB@cuMemAllocPitch?$AA@ 0000000180069a20     cuda:cuda_driverloader_generated_cuda_driverloader_cuda.obj
 0002:00000a30       ??_C@_09DPOFFEN@cuMemFree?$AA@ 0000000180069a30     cuda:cuda_driverloader_generated_cuda_driverloader_cuda.obj
 0002:00000a40       ??_C@_0BF@NAJKLBIC@cuMemGetAddressRange?$AA@ 0000000180069a40     cuda:cuda_driverloader_generated_cuda_driverloader_cuda.obj
 0002:00000a58       ??_C@_0P@GNGEELFM@cuMemAllocHost?$AA@ 0000000180069a58     cuda:cuda_driverloader_generated_cuda_driverloader_cuda.obj
 0002:00000a68       ??_C@_0O@GBNGPBE@cuMemFreeHost?$AA@ 0000000180069a68     cuda:cuda_driverloader_generated_cuda_driverloader_cuda.obj
 0002:00000a78       ??_C@_0P@BEJBOLHF@cuMemHostAlloc?$AA@ 0000000180069a78     cuda:cuda_driverloader_generated_cuda_driverloader_cuda.obj
 0002:00000a88       ??_C@_0BK@OMNGJNFM@cuMemHostGetDevicePointer?$AA@ 0000000180069a88     cuda:cuda_driverloader_generated_cuda_driverloader_cuda.obj
 0002:00000aa8       ??_C@_0BC@DIDPDHIL@cuMemHostGetFlags?$AA@ 0000000180069aa8     cuda:cuda_driverloader_generated_cuda_driverloader_cuda.obj
 0002:00000ac0       ??_C@_0BC@NKBPPAGK@cuMemAllocManaged?$AA@ 0000000180069ac0     cuda:cuda_driverloader_generated_cuda_driverloader_cuda.obj
 0002:00000ad8       ??_C@_0CC@OEEFMEJ@cuDeviceRegisterAsyncNotificatio@ 0000000180069ad8     cuda:cuda_driverloader_generated_cuda_driverloader_cuda.obj
 0002:00000b00       ??_C@_0CE@LEGBDOJC@cuDeviceUnregisterAsyncNotificat@ 0000000180069b00     cuda:cuda_driverloader_generated_cuda_driverloader_cuda.obj
 0002:00000b28       ??_C@_0BG@PHEICNGO@cuDeviceGetByPCIBusId?$AA@ 0000000180069b28     cuda:cuda_driverloader_generated_cuda_driverloader_cuda.obj
 0002:00000b40       ??_C@_0BE@LBINIEHA@cuDeviceGetPCIBusId?$AA@ 0000000180069b40     cuda:cuda_driverloader_generated_cuda_driverloader_cuda.obj
 0002:00000b58       ??_C@_0BE@GJNGFIJE@cuIpcGetEventHandle?$AA@ 0000000180069b58     cuda:cuda_driverloader_generated_cuda_driverloader_cuda.obj
 0002:00000b70       ??_C@_0BF@CIBEHPGP@cuIpcOpenEventHandle?$AA@ 0000000180069b70     cuda:cuda_driverloader_generated_cuda_driverloader_cuda.obj
 0002:00000b88       ??_C@_0BC@HHLBDMDB@cuIpcGetMemHandle?$AA@ 0000000180069b88     cuda:cuda_driverloader_generated_cuda_driverloader_cuda.obj
 0002:00000ba0       ??_C@_0BD@CGPDCFAL@cuIpcOpenMemHandle?$AA@ 0000000180069ba0     cuda:cuda_driverloader_generated_cuda_driverloader_cuda.obj
 0002:00000bb8       ??_C@_0BE@GPBJBNBJ@cuIpcCloseMemHandle?$AA@ 0000000180069bb8     cuda:cuda_driverloader_generated_cuda_driverloader_cuda.obj
 0002:00000bd0       ??_C@_0BC@OBEMEDNE@cuMemHostRegister?$AA@ 0000000180069bd0     cuda:cuda_driverloader_generated_cuda_driverloader_cuda.obj
 0002:00000be8       ??_C@_0BE@NPKFILKB@cuMemHostUnregister?$AA@ 0000000180069be8     cuda:cuda_driverloader_generated_cuda_driverloader_cuda.obj
 0002:00000c00       ??_C@_08HHAACGK@cuMemcpy?$AA@ 0000000180069c00     cuda:cuda_driverloader_generated_cuda_driverloader_cuda.obj
 0002:00000c10       ??_C@_0N@IBLKPFBJ@cuMemcpyPeer?$AA@ 0000000180069c10     cuda:cuda_driverloader_generated_cuda_driverloader_cuda.obj
 0002:00000c20       ??_C@_0N@LNAEANAD@cuMemcpyHtoD?$AA@ 0000000180069c20     cuda:cuda_driverloader_generated_cuda_driverloader_cuda.obj
 0002:00000c30       ??_C@_0N@NEEBKPAO@cuMemcpyDtoH?$AA@ 0000000180069c30     cuda:cuda_driverloader_generated_cuda_driverloader_cuda.obj
 0002:00000c40       ??_C@_0N@HIPEOAAC@cuMemcpyDtoD?$AA@ 0000000180069c40     cuda:cuda_driverloader_generated_cuda_driverloader_cuda.obj
 0002:00000c50       ??_C@_0N@FIDBEEH@cuMemcpyDtoA?$AA@ 0000000180069c50     cuda:cuda_driverloader_generated_cuda_driverloader_cuda.obj
 0002:00000c60       ??_C@_0N@LABEGPHC@cuMemcpyAtoD?$AA@ 0000000180069c60     cuda:cuda_driverloader_generated_cuda_driverloader_cuda.obj
 0002:00000c70       ??_C@_0N@MAHDPJEG@cuMemcpyHtoA?$AA@ 0000000180069c70     cuda:cuda_driverloader_generated_cuda_driverloader_cuda.obj
 0002:00000c80       ??_C@_0N@BMKBCAHO@cuMemcpyAtoH?$AA@ 0000000180069c80     cuda:cuda_driverloader_generated_cuda_driverloader_cuda.obj
 0002:00000c90       ??_C@_0N@MNGDJLDH@cuMemcpyAtoA?$AA@ 0000000180069c90     cuda:cuda_driverloader_generated_cuda_driverloader_cuda.obj
 0002:00000ca0       ??_C@_0L@MCOGFOIO@cuMemcpy2D?$AA@ 0000000180069ca0     cuda:cuda_driverloader_generated_cuda_driverloader_cuda.obj
 0002:00000cb0       ??_C@_0BE@NJDNFFKC@cuMemcpy2DUnaligned?$AA@ 0000000180069cb0     cuda:cuda_driverloader_generated_cuda_driverloader_cuda.obj
 0002:00000cc8       ??_C@_0L@MDCEDELJ@cuMemcpy3D?$AA@ 0000000180069cc8     cuda:cuda_driverloader_generated_cuda_driverloader_cuda.obj
 0002:00000cd8       ??_C@_0P@NHGDOELF@cuMemcpy3DPeer?$AA@ 0000000180069cd8     cuda:cuda_driverloader_generated_cuda_driverloader_cuda.obj
 0002:00000ce8       ??_C@_0O@CODCLHO@cuMemcpyAsync?$AA@ 0000000180069ce8     cuda:cuda_driverloader_generated_cuda_driverloader_cuda.obj
 0002:00000cf8       ??_C@_0BC@FGMBLDCE@cuMemcpyPeerAsync?$AA@ 0000000180069cf8     cuda:cuda_driverloader_generated_cuda_driverloader_cuda.obj
 0002:00000d10       ??_C@_0BC@IDHAKIKK@cuMemcpyHtoDAsync?$AA@ 0000000180069d10     cuda:cuda_driverloader_generated_cuda_driverloader_cuda.obj
 0002:00000d28       ??_C@_0BC@FOOMCCFA@cuMemcpyDtoHAsync?$AA@ 0000000180069d28     cuda:cuda_driverloader_generated_cuda_driverloader_cuda.obj
 0002:00000d40       ??_C@_0BC@JJEMEICE@cuMemcpyDtoDAsync?$AA@ 0000000180069d40     cuda:cuda_driverloader_generated_cuda_driverloader_cuda.obj
 0002:00000d58       ??_C@_0BC@NBEIIHAN@cuMemcpyHtoAAsync?$AA@ 0000000180069d58     cuda:cuda_driverloader_generated_cuda_driverloader_cuda.obj
 0002:00000d70       ??_C@_0BC@LIMFOJBE@cuMemcpyAtoHAsync?$AA@ 0000000180069d70     cuda:cuda_driverloader_generated_cuda_driverloader_cuda.obj
 0002:00000d88       ??_C@_0BA@BBHPBNDC@cuMemcpy2DAsync?$AA@ 0000000180069d88     cuda:cuda_driverloader_generated_cuda_driverloader_cuda.obj
 0002:00000d98       ??_C@_0BA@NNNFBNKM@cuMemcpy3DAsync?$AA@ 0000000180069d98     cuda:cuda_driverloader_generated_cuda_driverloader_cuda.obj
 0002:00000da8       ??_C@_0BE@GFAKAFCE@cuMemcpy3DPeerAsync?$AA@ 0000000180069da8     cuda:cuda_driverloader_generated_cuda_driverloader_cuda.obj
 0002:00000dc0       ??_C@_0BD@BKGPJJMM@cuMemcpyBatchAsync?$AA@ 0000000180069dc0     cuda:cuda_driverloader_generated_cuda_driverloader_cuda.obj
 0002:00000dd8       ??_C@_0BF@BKFMFCHK@cuMemcpy3DBatchAsync?$AA@ 0000000180069dd8     cuda:cuda_driverloader_generated_cuda_driverloader_cuda.obj
 0002:00000df0       ??_C@_0L@EIKMLOCC@cuMemsetD8?$AA@ 0000000180069df0     cuda:cuda_driverloader_generated_cuda_driverloader_cuda.obj
 0002:00000e00       ??_C@_0M@FDOFEHKA@cuMemsetD16?$AA@ 0000000180069e00     cuda:cuda_driverloader_generated_cuda_driverloader_cuda.obj
 0002:00000e10       ??_C@_0M@DEANFGMK@cuMemsetD32?$AA@ 0000000180069e10     cuda:cuda_driverloader_generated_cuda_driverloader_cuda.obj
 0002:00000e20       ??_C@_0N@IENKOJIE@cuMemsetD2D8?$AA@ 0000000180069e20     cuda:cuda_driverloader_generated_cuda_driverloader_cuda.obj
 0002:00000e30       ??_C@_0O@GMJMDHCK@cuMemsetD2D16?$AA@ 0000000180069e30     cuda:cuda_driverloader_generated_cuda_driverloader_cuda.obj
 0002:00000e40       ??_C@_0O@LHECGEA@cuMemsetD2D32?$AA@ 0000000180069e40     cuda:cuda_driverloader_generated_cuda_driverloader_cuda.obj
 0002:00000e50       ??_C@_0BA@MOLGFGEK@cuMemsetD8Async?$AA@ 0000000180069e50     cuda:cuda_driverloader_generated_cuda_driverloader_cuda.obj
 0002:00000e60       ??_C@_0BB@CIIDJBEA@cuMemsetD16Async?$AA@ 0000000180069e60     cuda:cuda_driverloader_generated_cuda_driverloader_cuda.obj
 0002:00000e78       ??_C@_0BB@JOOJLCCO@cuMemsetD32Async?$AA@ 0000000180069e78     cuda:cuda_driverloader_generated_cuda_driverloader_cuda.obj
 0002:00000e90       ??_C@_0BC@FADIIHMH@cuMemsetD2D8Async?$AA@ 0000000180069e90     cuda:cuda_driverloader_generated_cuda_driverloader_cuda.obj
 0002:00000ea8       ??_C@_0BD@LLBEOAAM@cuMemsetD2D16Async?$AA@ 0000000180069ea8     cuda:cuda_driverloader_generated_cuda_driverloader_cuda.obj
 0002:00000ec0       ??_C@_0BD@NHOMDGC@cuMemsetD2D32Async?$AA@ 0000000180069ec0     cuda:cuda_driverloader_generated_cuda_driverloader_cuda.obj
 0002:00000ed8       ??_C@_0O@NECDENBC@cuArrayCreate?$AA@ 0000000180069ed8     cuda:cuda_driverloader_generated_cuda_driverloader_cuda.obj
 0002:00000ee8       ??_C@_0BF@ICKNOLFI@cuArrayGetDescriptor?$AA@ 0000000180069ee8     cuda:cuda_driverloader_generated_cuda_driverloader_cuda.obj
 0002:00000f00       ??_C@_0BL@NAKAPJAB@cuArrayGetSparseProperties?$AA@ 0000000180069f00     cuda:cuda_driverloader_generated_cuda_driverloader_cuda.obj
 0002:00000f20       ??_C@_0CE@OLDACCHL@cuMipmappedArrayGetSparsePropert@ 0000000180069f20     cuda:cuda_driverloader_generated_cuda_driverloader_cuda.obj
 0002:00000f48       ??_C@_0BN@FEDFAPDH@cuArrayGetMemoryRequirements?$AA@ 0000000180069f48     cuda:cuda_driverloader_generated_cuda_driverloader_cuda.obj
 0002:00000f68       ??_C@_0CG@JAOEKOIH@cuMipmappedArrayGetMemoryRequire@ 0000000180069f68     cuda:cuda_driverloader_generated_cuda_driverloader_cuda.obj
 0002:00000f90       ??_C@_0BA@NALFIBEN@cuArrayGetPlane?$AA@ 0000000180069f90     cuda:cuda_driverloader_generated_cuda_driverloader_cuda.obj
 0002:00000fa0       ??_C@_0P@PAFPBIJN@cuArrayDestroy?$AA@ 0000000180069fa0     cuda:cuda_driverloader_generated_cuda_driverloader_cuda.obj
 0002:00000fb0       ??_C@_0BA@HDCHAKGK@cuArray3DCreate?$AA@ 0000000180069fb0     cuda:cuda_driverloader_generated_cuda_driverloader_cuda.obj
 0002:00000fc0       ??_C@_0BH@GKELMILM@cuArray3DGetDescriptor?$AA@ 0000000180069fc0     cuda:cuda_driverloader_generated_cuda_driverloader_cuda.obj
 0002:00000fd8       ??_C@_0BH@PNFBIJFG@cuMipmappedArrayCreate?$AA@ 0000000180069fd8     cuda:cuda_driverloader_generated_cuda_driverloader_cuda.obj
 0002:00000ff0       ??_C@_0BJ@LBPELPII@cuMipmappedArrayGetLevel?$AA@ 0000000180069ff0     cuda:cuda_driverloader_generated_cuda_driverloader_cuda.obj
 0002:00001010       ??_C@_0BI@IBMHOPNA@cuMipmappedArrayDestroy?$AA@ 000000018006a010     cuda:cuda_driverloader_generated_cuda_driverloader_cuda.obj
 0002:00001028       ??_C@_0BO@EKBBJBGF@cuMemGetHandleForAddressRange?$AA@ 000000018006a028     cuda:cuda_driverloader_generated_cuda_driverloader_cuda.obj
 0002:00001048       ??_C@_0BK@OGABBCHM@cuMemBatchDecompressAsync?$AA@ 000000018006a048     cuda:cuda_driverloader_generated_cuda_driverloader_cuda.obj
 0002:00001068       ??_C@_0BE@EGBFDJLH@cuMemAddressReserve?$AA@ 000000018006a068     cuda:cuda_driverloader_generated_cuda_driverloader_cuda.obj
 0002:00001080       ??_C@_0BB@BLICHHP@cuMemAddressFree?$AA@ 000000018006a080     cuda:cuda_driverloader_generated_cuda_driverloader_cuda.obj
 0002:00001098       ??_C@_0M@MIPOHAFD@cuMemCreate?$AA@ 000000018006a098     cuda:cuda_driverloader_generated_cuda_driverloader_cuda.obj
 0002:000010a8       ??_C@_0N@FFKLHNEO@cuMemRelease?$AA@ 000000018006a0a8     cuda:cuda_driverloader_generated_cuda_driverloader_cuda.obj
 0002:000010b8       ??_C@_08ILLLKIGJ@cuMemMap?$AA@ 000000018006a0b8     cuda:cuda_driverloader_generated_cuda_driverloader_cuda.obj
 0002:000010c8       ??_C@_0BD@ENEFEEDN@cuMemMapArrayAsync?$AA@ 000000018006a0c8     cuda:cuda_driverloader_generated_cuda_driverloader_cuda.obj
 0002:000010e0       ??_C@_0L@MFLODAAL@cuMemUnmap?$AA@ 000000018006a0e0     cuda:cuda_driverloader_generated_cuda_driverloader_cuda.obj
 0002:000010f0       ??_C@_0P@EEKNKMDL@cuMemSetAccess?$AA@ 000000018006a0f0     cuda:cuda_driverloader_generated_cuda_driverloader_cuda.obj
 0002:00001100       ??_C@_0P@GKOIINKJ@cuMemGetAccess?$AA@ 000000018006a100     cuda:cuda_driverloader_generated_cuda_driverloader_cuda.obj
 0002:00001110       ??_C@_0BN@JKOFABEA@cuMemExportToShareableHandle?$AA@ 000000018006a110     cuda:cuda_driverloader_generated_cuda_driverloader_cuda.obj
 0002:00001130       ??_C@_0BP@EPJJAFHJ@cuMemImportFromShareableHandle?$AA@ 000000018006a130     cuda:cuda_driverloader_generated_cuda_driverloader_cuda.obj
 0002:00001150       ??_C@_0BO@EIFGPDPO@cuMemGetAllocationGranularity?$AA@ 000000018006a150     cuda:cuda_driverloader_generated_cuda_driverloader_cuda.obj
 0002:00001170       ??_C@_0CH@JCMAEGLI@cuMemGetAllocationPropertiesFrom@ 000000018006a170     cuda:cuda_driverloader_generated_cuda_driverloader_cuda.obj
 0002:00001198       ??_C@_0BM@JKDBDJKD@cuMemRetainAllocationHandle?$AA@ 000000018006a198     cuda:cuda_driverloader_generated_cuda_driverloader_cuda.obj
 0002:000011b8       ??_C@_0P@KIBPBMPP@cuMemFreeAsync?$AA@ 000000018006a1b8     cuda:cuda_driverloader_generated_cuda_driverloader_cuda.obj
 0002:000011c8       ??_C@_0BA@NAHDKMHJ@cuMemAllocAsync?$AA@ 000000018006a1c8     cuda:cuda_driverloader_generated_cuda_driverloader_cuda.obj
 0002:000011d8       ??_C@_0BA@HMHGLJCJ@cuMemPoolTrimTo?$AA@ 000000018006a1d8     cuda:cuda_driverloader_generated_cuda_driverloader_cuda.obj
 0002:000011e8       ??_C@_0BG@BIHGCDPF@cuMemPoolSetAttribute?$AA@ 000000018006a1e8     cuda:cuda_driverloader_generated_cuda_driverloader_cuda.obj
 0002:00001200       ??_C@_0BG@GMMIOPLJ@cuMemPoolGetAttribute?$AA@ 000000018006a200     cuda:cuda_driverloader_generated_cuda_driverloader_cuda.obj
 0002:00001218       ??_C@_0BD@PMPBNOCB@cuMemPoolSetAccess?$AA@ 000000018006a218     cuda:cuda_driverloader_generated_cuda_driverloader_cuda.obj
 0002:00001230       ??_C@_0BD@NCLEPPLD@cuMemPoolGetAccess?$AA@ 000000018006a230     cuda:cuda_driverloader_generated_cuda_driverloader_cuda.obj
 0002:00001248       ??_C@_0BA@JDILOHLK@cuMemPoolCreate?$AA@ 000000018006a248     cuda:cuda_driverloader_generated_cuda_driverloader_cuda.obj
 0002:00001258       ??_C@_0BB@CIBFJLON@cuMemPoolDestroy?$AA@ 000000018006a258     cuda:cuda_driverloader_generated_cuda_driverloader_cuda.obj
 0002:00001270       ??_C@_0BH@DNIMFGOK@cuMemGetDefaultMemPool?$AA@ 000000018006a270     cuda:cuda_driverloader_generated_cuda_driverloader_cuda.obj
 0002:00001288       ??_C@_0BA@OGPBDKK@cuMemGetMemPool?$AA@ 000000018006a288     cuda:cuda_driverloader_generated_cuda_driverloader_cuda.obj
 0002:00001298       ??_C@_0BA@BAEAKEOD@cuMemSetMemPool?$AA@ 000000018006a298     cuda:cuda_driverloader_generated_cuda_driverloader_cuda.obj
 0002:000012a8       ??_C@_0BI@NANAPPIJ@cuMemAllocFromPoolAsync?$AA@ 000000018006a2a8     cuda:cuda_driverloader_generated_cuda_driverloader_cuda.obj
 0002:000012c0       ??_C@_0CB@CIPBKGDD@cuMemPoolExportToShareableHandle@ 000000018006a2c0     cuda:cuda_driverloader_generated_cuda_driverloader_cuda.obj
 0002:000012e8       ??_C@_0CD@DDJKLBD@cuMemPoolImportFromShareableHand@ 000000018006a2e8     cuda:cuda_driverloader_generated_cuda_driverloader_cuda.obj
 0002:00001310       ??_C@_0BH@MCBLDDBC@cuMemPoolExportPointer?$AA@ 000000018006a310     cuda:cuda_driverloader_generated_cuda_driverloader_cuda.obj
 0002:00001328       ??_C@_0BH@EBMGLHPG@cuMemPoolImportPointer?$AA@ 000000018006a328     cuda:cuda_driverloader_generated_cuda_driverloader_cuda.obj
 0002:00001340       ??_C@_0BC@MCNGICGC@cuMulticastCreate?$AA@ 000000018006a340     cuda:cuda_driverloader_generated_cuda_driverloader_cuda.obj
 0002:00001358       ??_C@_0BF@FMKJABLJ@cuMulticastAddDevice?$AA@ 000000018006a358     cuda:cuda_driverloader_generated_cuda_driverloader_cuda.obj
 0002:00001370       ??_C@_0BD@PFFKMDCO@cuMulticastBindMem?$AA@ 000000018006a370     cuda:cuda_driverloader_generated_cuda_driverloader_cuda.obj
 0002:00001388       ??_C@_0BE@LDLHPNJD@cuMulticastBindAddr?$AA@ 000000018006a388     cuda:cuda_driverloader_generated_cuda_driverloader_cuda.obj
 0002:000013a0       ??_C@_0BC@MNPCAKGO@cuMulticastUnbind?$AA@ 000000018006a3a0     cuda:cuda_driverloader_generated_cuda_driverloader_cuda.obj
 0002:000013b8       ??_C@_0BK@LLKDLGJM@cuMulticastGetGranularity?$AA@ 000000018006a3b8     cuda:cuda_driverloader_generated_cuda_driverloader_cuda.obj
 0002:000013d8       ??_C@_0BG@ECOONMIL@cuPointerGetAttribute?$AA@ 000000018006a3d8     cuda:cuda_driverloader_generated_cuda_driverloader_cuda.obj
 0002:000013f0       ??_C@_0BD@JLDILBLK@cuMemPrefetchAsync?$AA@ 000000018006a3f0     cuda:cuda_driverloader_generated_cuda_driverloader_cuda.obj
 0002:00001408       ??_C@_0M@GNFFFDME@cuMemAdvise?$AA@ 000000018006a408     cuda:cuda_driverloader_generated_cuda_driverloader_cuda.obj
 0002:00001418       ??_C@_0BI@PFFIDNJF@cuMemPrefetchBatchAsync?$AA@ 000000018006a418     cuda:cuda_driverloader_generated_cuda_driverloader_cuda.obj
 0002:00001430       ??_C@_0BH@CFDNDEMG@cuMemDiscardBatchAsync?$AA@ 000000018006a430     cuda:cuda_driverloader_generated_cuda_driverloader_cuda.obj
 0002:00001448       ??_C@_0CC@LIMDOCFH@cuMemDiscardAndPrefetchBatchAsyn@ 000000018006a448     cuda:cuda_driverloader_generated_cuda_driverloader_cuda.obj
 0002:00001470       ??_C@_0BH@JPKMGBOF@cuMemRangeGetAttribute?$AA@ 000000018006a470     cuda:cuda_driverloader_generated_cuda_driverloader_cuda.obj
 0002:00001488       ??_C@_0BI@NEONJAKD@cuMemRangeGetAttributes?$AA@ 000000018006a488     cuda:cuda_driverloader_generated_cuda_driverloader_cuda.obj
 0002:000014a0       ??_C@_0BG@DGFABAMH@cuPointerSetAttribute?$AA@ 000000018006a4a0     cuda:cuda_driverloader_generated_cuda_driverloader_cuda.obj
 0002:000014b8       ??_C@_0BH@HODKJOEB@cuPointerGetAttributes?$AA@ 000000018006a4b8     cuda:cuda_driverloader_generated_cuda_driverloader_cuda.obj
 0002:000014d0       ??_C@_0P@LNOKBPAO@cuStreamCreate?$AA@ 000000018006a4d0     cuda:cuda_driverloader_generated_cuda_driverloader_cuda.obj
 0002:000014e0       ??_C@_0BL@BDIPDBBD@cuStreamCreateWithPriority?$AA@ 000000018006a4e0     cuda:cuda_driverloader_generated_cuda_driverloader_cuda.obj
 0002:00001500       ??_C@_0BE@KHONHPDC@cuStreamGetPriority?$AA@ 000000018006a500     cuda:cuda_driverloader_generated_cuda_driverloader_cuda.obj
 0002:00001518       ??_C@_0BC@JADKOOHN@cuStreamGetDevice?$AA@ 000000018006a518     cuda:cuda_driverloader_generated_cuda_driverloader_cuda.obj
 0002:00001530       ??_C@_0BB@HFGBOKNP@cuStreamGetFlags?$AA@ 000000018006a530     cuda:cuda_driverloader_generated_cuda_driverloader_cuda.obj
 0002:00001548       ??_C@_0O@LHFNLLFA@cuStreamGetId?$AA@ 000000018006a548     cuda:cuda_driverloader_generated_cuda_driverloader_cuda.obj
 0002:00001558       ??_C@_0P@PPKBLMKF@cuStreamGetCtx?$AA@ 000000018006a558     cuda:cuda_driverloader_generated_cuda_driverloader_cuda.obj
 0002:00001568       ??_C@_0BC@LDNOLFPM@cuStreamWaitEvent?$AA@ 000000018006a568     cuda:cuda_driverloader_generated_cuda_driverloader_cuda.obj
 0002:00001580       ??_C@_0BE@NJOMOLME@cuStreamAddCallback?$AA@ 000000018006a580     cuda:cuda_driverloader_generated_cuda_driverloader_cuda.obj
 0002:00001598       ??_C@_0BF@HNALFFCM@cuStreamBeginCapture?$AA@ 000000018006a598     cuda:cuda_driverloader_generated_cuda_driverloader_cuda.obj
 0002:000015b0       ??_C@_0BM@PNEJNCCO@cuStreamBeginCaptureToGraph?$AA@ 000000018006a5b0     cuda:cuda_driverloader_generated_cuda_driverloader_cuda.obj
 0002:000015d0       ??_C@_0CC@OMFFMJKO@cuThreadExchangeStreamCaptureMod@ 000000018006a5d0     cuda:cuda_driverloader_generated_cuda_driverloader_cuda.obj
 0002:000015f8       ??_C@_0BD@OGFKIIFI@cuStreamEndCapture?$AA@ 000000018006a5f8     cuda:cuda_driverloader_generated_cuda_driverloader_cuda.obj
 0002:00001610       ??_C@_0BE@JIGLCNID@cuStreamIsCapturing?$AA@ 000000018006a610     cuda:cuda_driverloader_generated_cuda_driverloader_cuda.obj
 0002:00001628       ??_C@_0BH@JLDOMJLC@cuStreamGetCaptureInfo?$AA@ 000000018006a628     cuda:cuda_driverloader_generated_cuda_driverloader_cuda.obj
 0002:00001640       ??_C@_0CC@JBBPPOIJ@cuStreamUpdateCaptureDependencie@ 000000018006a640     cuda:cuda_driverloader_generated_cuda_driverloader_cuda.obj
 0002:00001668       ??_C@_0BH@KNBNMAPA@cuStreamAttachMemAsync?$AA@ 000000018006a668     cuda:cuda_driverloader_generated_cuda_driverloader_cuda.obj
 0002:00001680       ??_C@_0O@DNMFJLMD@cuStreamQuery?$AA@ 000000018006a680     cuda:cuda_driverloader_generated_cuda_driverloader_cuda.obj
 0002:00001690       ??_C@_0BE@OKHEPNII@cuStreamSynchronize?$AA@ 000000018006a690     cuda:cuda_driverloader_generated_cuda_driverloader_cuda.obj
 0002:000016a8       ??_C@_0BA@OEDHINIA@cuStreamDestroy?$AA@ 000000018006a6a8     cuda:cuda_driverloader_generated_cuda_driverloader_cuda.obj
 0002:000016b8       ??_C@_0BH@LPPIBNPJ@cuStreamCopyAttributes?$AA@ 000000018006a6b8     cuda:cuda_driverloader_generated_cuda_driverloader_cuda.obj
 0002:000016d0       ??_C@_0BF@CEJOFOMK@cuStreamGetAttribute?$AA@ 000000018006a6d0     cuda:cuda_driverloader_generated_cuda_driverloader_cuda.obj
 0002:000016e8       ??_C@_0BF@FACAJCIG@cuStreamSetAttribute?$AA@ 000000018006a6e8     cuda:cuda_driverloader_generated_cuda_driverloader_cuda.obj
 0002:00001700       ??_C@_0O@OGDCEFHO@cuEventCreate?$AA@ 000000018006a700     cuda:cuda_driverloader_generated_cuda_driverloader_cuda.obj
 0002:00001710       ??_C@_0O@ELEBCPEH@cuEventRecord?$AA@ 000000018006a710     cuda:cuda_driverloader_generated_cuda_driverloader_cuda.obj
 0002:00001720       ??_C@_0BH@GJNOLJLL@cuEventRecordWithFlags?$AA@ 000000018006a720     cuda:cuda_driverloader_generated_cuda_driverloader_cuda.obj
 0002:00001738       ??_C@_0N@DLDBPGHM@cuEventQuery?$AA@ 000000018006a738     cuda:cuda_driverloader_generated_cuda_driverloader_cuda.obj
 0002:00001748       ??_C@_0BD@GNMDBCJG@cuEventSynchronize?$AA@ 000000018006a748     cuda:cuda_driverloader_generated_cuda_driverloader_cuda.obj
 0002:00001760       ??_C@_0P@LEGJCEOG@cuEventDestroy?$AA@ 000000018006a760     cuda:cuda_driverloader_generated_cuda_driverloader_cuda.obj
 0002:00001770       ??_C@_0BD@COJGHNBG@cuEventElapsedTime?$AA@ 000000018006a770     cuda:cuda_driverloader_generated_cuda_driverloader_cuda.obj
 0002:00001788       ??_C@_0BH@MAEDJMDD@cuImportExternalMemory?$AA@ 000000018006a788     cuda:cuda_driverloader_generated_cuda_driverloader_cuda.obj
 0002:000017a0       ??_C@_0CA@HAJENFBF@cuExternalMemoryGetMappedBuffer?$AA@ 000000018006a7a0     cuda:cuda_driverloader_generated_cuda_driverloader_cuda.obj
 0002:000017c0       ??_C@_0CI@FNIPNDHI@cuExternalMemoryGetMappedMipmapp@ 000000018006a7c0     cuda:cuda_driverloader_generated_cuda_driverloader_cuda.obj
 0002:000017e8       ??_C@_0BI@CKPGLJLE@cuDestroyExternalMemory?$AA@ 000000018006a7e8     cuda:cuda_driverloader_generated_cuda_driverloader_cuda.obj
 0002:00001800       ??_C@_0BK@EBKGJPID@cuImportExternalSemaphore?$AA@ 000000018006a800     cuda:cuda_driverloader_generated_cuda_driverloader_cuda.obj
 0002:00001820       ??_C@_0CA@FFIEHCPI@cuSignalExternalSemaphoresAsync?$AA@ 000000018006a820     cuda:cuda_driverloader_generated_cuda_driverloader_cuda.obj
 0002:00001840       ??_C@_0BO@OLBMIAGG@cuWaitExternalSemaphoresAsync?$AA@ 000000018006a840     cuda:cuda_driverloader_generated_cuda_driverloader_cuda.obj
 0002:00001860       ??_C@_0BL@PGCEAFII@cuDestroyExternalSemaphore?$AA@ 000000018006a860     cuda:cuda_driverloader_generated_cuda_driverloader_cuda.obj
 0002:00001880       ??_C@_0BE@EAIIAGPN@cuStreamWaitValue32?$AA@ 000000018006a880     cuda:cuda_driverloader_generated_cuda_driverloader_cuda.obj
 0002:00001898       ??_C@_0BE@BABJGDJA@cuStreamWaitValue64?$AA@ 000000018006a898     cuda:cuda_driverloader_generated_cuda_driverloader_cuda.obj
 0002:000018b0       ??_C@_0BF@HEEFEPB@cuStreamWriteValue32?$AA@ 000000018006a8b0     cuda:cuda_driverloader_generated_cuda_driverloader_cuda.obj
 0002:000018c8       ??_C@_0BF@FHNFDBJM@cuStreamWriteValue64?$AA@ 000000018006a8c8     cuda:cuda_driverloader_generated_cuda_driverloader_cuda.obj
 0002:000018e0       ??_C@_0BD@JFILOGEE@cuStreamBatchMemOp?$AA@ 000000018006a8e0     cuda:cuda_driverloader_generated_cuda_driverloader_cuda.obj
 0002:000018f8       ??_C@_0BD@KKLHOMPH@cuFuncGetAttribute?$AA@ 000000018006a8f8     cuda:cuda_driverloader_generated_cuda_driverloader_cuda.obj
 0002:00001910       ??_C@_0BD@NOAJCALL@cuFuncSetAttribute?$AA@ 000000018006a910     cuda:cuda_driverloader_generated_cuda_driverloader_cuda.obj
 0002:00001928       ??_C@_0BF@DKCOAGEC@cuFuncSetCacheConfig?$AA@ 000000018006a928     cuda:cuda_driverloader_generated_cuda_driverloader_cuda.obj
 0002:00001940       ??_C@_0BA@NHABBHOM@cuFuncGetModule?$AA@ 000000018006a940     cuda:cuda_driverloader_generated_cuda_driverloader_cuda.obj
 0002:00001950       ??_C@_0O@NFHBNAOA@cuFuncGetName?$AA@ 000000018006a950     cuda:cuda_driverloader_generated_cuda_driverloader_cuda.obj
 0002:00001960       ??_C@_0BD@FLAAJNMC@cuFuncGetParamInfo?$AA@ 000000018006a960     cuda:cuda_driverloader_generated_cuda_driverloader_cuda.obj
 0002:00001978       ??_C@_0P@PJCMKMBJ@cuFuncIsLoaded?$AA@ 000000018006a978     cuda:cuda_driverloader_generated_cuda_driverloader_cuda.obj
 0002:00001988       ??_C@_0L@OHDNACGK@cuFuncLoad?$AA@ 000000018006a988     cuda:cuda_driverloader_generated_cuda_driverloader_cuda.obj
 0002:00001998       ??_C@_0P@GGFCGLBF@cuLaunchKernel?$AA@ 000000018006a998     cuda:cuda_driverloader_generated_cuda_driverloader_cuda.obj
 0002:000019a8       ??_C@_0BB@HMGCIEED@cuLaunchKernelEx?$AA@ 000000018006a9a8     cuda:cuda_driverloader_generated_cuda_driverloader_cuda.obj
 0002:000019c0       ??_C@_0BK@JLKAOMLJ@cuLaunchCooperativeKernel?$AA@ 000000018006a9c0     cuda:cuda_driverloader_generated_cuda_driverloader_cuda.obj
 0002:000019e0       ??_C@_0CF@JNAFIKFE@cuLaunchCooperativeKernelMultiDe@ 000000018006a9e0     cuda:cuda_driverloader_generated_cuda_driverloader_cuda.obj
 0002:00001a08       ??_C@_0BB@OGELKBFN@cuLaunchHostFunc?$AA@ 000000018006aa08     cuda:cuda_driverloader_generated_cuda_driverloader_cuda.obj
 0002:00001a20       ??_C@_0BE@MKBLOGOG@cuFuncSetBlockShape?$AA@ 000000018006aa20     cuda:cuda_driverloader_generated_cuda_driverloader_cuda.obj
 0002:00001a38       ??_C@_0BE@IDMJNPFG@cuFuncSetSharedSize?$AA@ 000000018006aa38     cuda:cuda_driverloader_generated_cuda_driverloader_cuda.obj
 0002:00001a50       ??_C@_0P@HAHMFMHF@cuParamSetSize?$AA@ 000000018006aa50     cuda:cuda_driverloader_generated_cuda_driverloader_cuda.obj
 0002:00001a60       ??_C@_0M@EFMNAFAG@cuParamSeti?$AA@ 000000018006aa60     cuda:cuda_driverloader_generated_cuda_driverloader_cuda.obj
 0002:00001a70       ??_C@_0M@MCFFBJMJ@cuParamSetf?$AA@ 000000018006aa70     cuda:cuda_driverloader_generated_cuda_driverloader_cuda.obj
 0002:00001a80       ??_C@_0M@IIJHALJI@cuParamSetv?$AA@ 000000018006aa80     cuda:cuda_driverloader_generated_cuda_driverloader_cuda.obj
 0002:00001a90       ??_C@_08NFNFHBGP@cuLaunch?$AA@ 000000018006aa90     cuda:cuda_driverloader_generated_cuda_driverloader_cuda.obj
 0002:00001aa0       ??_C@_0N@FBPCEAHB@cuLaunchGrid?$AA@ 000000018006aaa0     cuda:cuda_driverloader_generated_cuda_driverloader_cuda.obj
 0002:00001ab0       ??_C@_0BC@CKJOCIGH@cuLaunchGridAsync?$AA@ 000000018006aab0     cuda:cuda_driverloader_generated_cuda_driverloader_cuda.obj
 0002:00001ac8       ??_C@_0BB@OIHHEIHH@cuParamSetTexRef?$AA@ 000000018006aac8     cuda:cuda_driverloader_generated_cuda_driverloader_cuda.obj
 0002:00001ae0       ??_C@_0BJ@OOKDFCIL@cuFuncSetSharedMemConfig?$AA@ 000000018006aae0     cuda:cuda_driverloader_generated_cuda_driverloader_cuda.obj
 0002:00001b00       ??_C@_0O@PMCNLFJO@cuGraphCreate?$AA@ 000000018006ab00     cuda:cuda_driverloader_generated_cuda_driverloader_cuda.obj
 0002:00001b10       ??_C@_0BF@LKMNMNHM@cuGraphAddKernelNode?$AA@ 000000018006ab10     cuda:cuda_driverloader_generated_cuda_driverloader_cuda.obj
 0002:00001b28       ??_C@_0BL@PJDNFHPM@cuGraphKernelNodeGetParams?$AA@ 000000018006ab28     cuda:cuda_driverloader_generated_cuda_driverloader_cuda.obj
 0002:00001b48       ??_C@_0BL@NHHIHGGO@cuGraphKernelNodeSetParams?$AA@ 000000018006ab48     cuda:cuda_driverloader_generated_cuda_driverloader_cuda.obj
 0002:00001b68       ??_C@_0BF@NMPJLPAP@cuGraphAddMemcpyNode?$AA@ 000000018006ab68     cuda:cuda_driverloader_generated_cuda_driverloader_cuda.obj
 0002:00001b80       ??_C@_0BL@FMOHFDAH@cuGraphMemcpyNodeGetParams?$AA@ 000000018006ab80     cuda:cuda_driverloader_generated_cuda_driverloader_cuda.obj
 0002:00001ba0       ??_C@_0BL@HCKCHCJF@cuGraphMemcpyNodeSetParams?$AA@ 000000018006aba0     cuda:cuda_driverloader_generated_cuda_driverloader_cuda.obj
 0002:00001bc0       ??_C@_0BF@CJDKCOJD@cuGraphAddMemsetNode?$AA@ 000000018006abc0     cuda:cuda_driverloader_generated_cuda_driverloader_cuda.obj
 0002:00001bd8       ??_C@_0BL@CLMGFLPO@cuGraphMemsetNodeGetParams?$AA@ 000000018006abd8     cuda:cuda_driverloader_generated_cuda_driverloader_cuda.obj
 0002:00001bf8       ??_C@_0BL@FIDHKGM@cuGraphMemsetNodeSetParams?$AA@ 000000018006abf8     cuda:cuda_driverloader_generated_cuda_driverloader_cuda.obj
 0002:00001c18       ??_C@_0BD@MBFAKFDH@cuGraphAddHostNode?$AA@ 000000018006ac18     cuda:cuda_driverloader_generated_cuda_driverloader_cuda.obj
 0002:00001c30       ??_C@_0BJ@KNKGHHPK@cuGraphHostNodeGetParams?$AA@ 000000018006ac30     cuda:cuda_driverloader_generated_cuda_driverloader_cuda.obj
 0002:00001c50       ??_C@_0BJ@IDODFGGI@cuGraphHostNodeSetParams?$AA@ 000000018006ac50     cuda:cuda_driverloader_generated_cuda_driverloader_cuda.obj
 0002:00001c70       ??_C@_0BJ@HNJJICOP@cuGraphAddChildGraphNode?$AA@ 000000018006ac70     cuda:cuda_driverloader_generated_cuda_driverloader_cuda.obj
 0002:00001c90       ??_C@_0BO@KAODINOF@cuGraphChildGraphNodeGetGraph?$AA@ 000000018006ac90     cuda:cuda_driverloader_generated_cuda_driverloader_cuda.obj
 0002:00001cb0       ??_C@_0BE@MGGMBCAK@cuGraphAddEmptyNode?$AA@ 000000018006acb0     cuda:cuda_driverloader_generated_cuda_driverloader_cuda.obj
 0002:00001cc8       ??_C@_0BK@EKDGCJIG@cuGraphAddEventRecordNode?$AA@ 000000018006acc8     cuda:cuda_driverloader_generated_cuda_driverloader_cuda.obj
 0002:00001ce8       ??_C@_0BP@PMPBGDLB@cuGraphEventRecordNodeGetEvent?$AA@ 000000018006ace8     cuda:cuda_driverloader_generated_cuda_driverloader_cuda.obj
 0002:00001d08       ??_C@_0BP@NNNHAMM@cuGraphEventRecordNodeSetEvent?$AA@ 000000018006ad08     cuda:cuda_driverloader_generated_cuda_driverloader_cuda.obj
 0002:00001d28       ??_C@_0BI@NKOEOLLL@cuGraphAddEventWaitNode?$AA@ 000000018006ad28     cuda:cuda_driverloader_generated_cuda_driverloader_cuda.obj
 0002:00001d40       ??_C@_0BN@LMOOBIEJ@cuGraphEventWaitNodeGetEvent?$AA@ 000000018006ad40     cuda:cuda_driverloader_generated_cuda_driverloader_cuda.obj
 0002:00001d60       ??_C@_0BN@ENMCALDE@cuGraphEventWaitNodeSetEvent?$AA@ 000000018006ad60     cuda:cuda_driverloader_generated_cuda_driverloader_cuda.obj
 0002:00001d80       ??_C@_0CH@KLKOCNMF@cuGraphAddExternalSemaphoresSign@ 000000018006ad80     cuda:cuda_driverloader_generated_cuda_driverloader_cuda.obj
 0002:00001da8       ??_C@_0CN@JHEOEPAA@cuGraphExternalSemaphoresSignalN@ 000000018006ada8     cuda:cuda_driverloader_generated_cuda_driverloader_cuda.obj
 0002:00001dd8       ??_C@_0CN@LJALGOJC@cuGraphExternalSemaphoresSignalN@ 000000018006add8     cuda:cuda_driverloader_generated_cuda_driverloader_cuda.obj
 0002:00001e08       ??_C@_0CF@NCCEBNPG@cuGraphAddExternalSemaphoresWait@ 000000018006ae08     cuda:cuda_driverloader_generated_cuda_driverloader_cuda.obj
 0002:00001e30       ??_C@_0CL@KGKOOFKP@cuGraphExternalSemaphoresWaitNod@ 000000018006ae30     cuda:cuda_driverloader_generated_cuda_driverloader_cuda.obj
 0002:00001e60       ??_C@_0CL@IIOLMEDN@cuGraphExternalSemaphoresWaitNod@ 000000018006ae60     cuda:cuda_driverloader_generated_cuda_driverloader_cuda.obj
 0002:00001e90       ??_C@_0BJ@NIBDJCCG@cuGraphAddBatchMemOpNode?$AA@ 000000018006ae90     cuda:cuda_driverloader_generated_cuda_driverloader_cuda.obj
 0002:00001eb0       ??_C@_0BP@DHKPKDKA@cuGraphBatchMemOpNodeGetParams?$AA@ 000000018006aeb0     cuda:cuda_driverloader_generated_cuda_driverloader_cuda.obj
 0002:00001ed0       ??_C@_0BP@BJOKICDC@cuGraphBatchMemOpNodeSetParams?$AA@ 000000018006aed0     cuda:cuda_driverloader_generated_cuda_driverloader_cuda.obj
 0002:00001ef0       ??_C@_0CD@DKNLDHP@cuGraphExecBatchMemOpNodeSetPara@ 000000018006aef0     cuda:cuda_driverloader_generated_cuda_driverloader_cuda.obj
 0002:00001f18       ??_C@_0BH@EENBOKGA@cuGraphAddMemAllocNode?$AA@ 000000018006af18     cuda:cuda_driverloader_generated_cuda_driverloader_cuda.obj
 0002:00001f30       ??_C@_0BN@FPBBCCFA@cuGraphMemAllocNodeGetParams?$AA@ 000000018006af30     cuda:cuda_driverloader_generated_cuda_driverloader_cuda.obj
 0002:00001f50       ??_C@_0BG@OFNNFDJA@cuGraphAddMemFreeNode?$AA@ 000000018006af50     cuda:cuda_driverloader_generated_cuda_driverloader_cuda.obj
 0002:00001f68       ??_C@_0BM@GPDONDKH@cuGraphMemFreeNodeGetParams?$AA@ 000000018006af68     cuda:cuda_driverloader_generated_cuda_driverloader_cuda.obj
 0002:00001f88       ??_C@_0BF@FFPJAMPP@cuDeviceGraphMemTrim?$AA@ 000000018006af88     cuda:cuda_driverloader_generated_cuda_driverloader_cuda.obj
 0002:00001fa0       ??_C@_0BN@HALABBNJ@cuDeviceGetGraphMemAttribute?$AA@ 000000018006afa0     cuda:cuda_driverloader_generated_cuda_driverloader_cuda.obj
 0002:00001fc0       ??_C@_0BN@CJKNAHIO@cuDeviceSetGraphMemAttribute?$AA@ 000000018006afc0     cuda:cuda_driverloader_generated_cuda_driverloader_cuda.obj
 0002:00001fe0       ??_C@_0N@EBANNKCG@cuGraphClone?$AA@ 000000018006afe0     cuda:cuda_driverloader_generated_cuda_driverloader_cuda.obj
 0002:00001ff0       ??_C@_0BH@IBJBKIPB@cuGraphNodeFindInClone?$AA@ 000000018006aff0     cuda:cuda_driverloader_generated_cuda_driverloader_cuda.obj
 0002:00002008       ??_C@_0BD@IJMLIECN@cuGraphNodeGetType?$AA@ 000000018006b008     cuda:cuda_driverloader_generated_cuda_driverloader_cuda.obj
 0002:00002020       ??_C@_0BA@KNIKLHBF@cuGraphGetNodes?$AA@ 000000018006b020     cuda:cuda_driverloader_generated_cuda_driverloader_cuda.obj
 0002:00002030       ??_C@_0BE@DCEALNKD@cuGraphGetRootNodes?$AA@ 000000018006b030     cuda:cuda_driverloader_generated_cuda_driverloader_cuda.obj
 0002:00002048       ??_C@_0BA@KCCINJCJ@cuGraphGetEdges?$AA@ 000000018006b048     cuda:cuda_driverloader_generated_cuda_driverloader_cuda.obj
 0002:00002058       ??_C@_0BL@JNCEOMKA@cuGraphNodeGetDependencies?$AA@ 000000018006b058     cuda:cuda_driverloader_generated_cuda_driverloader_cuda.obj
 0002:00002078       ??_C@_0BN@HCBLEMCJ@cuGraphNodeGetDependentNodes?$AA@ 000000018006b078     cuda:cuda_driverloader_generated_cuda_driverloader_cuda.obj
 0002:00002098       ??_C@_0BH@EANNOME@cuGraphAddDependencies?$AA@ 000000018006b098     cuda:cuda_driverloader_generated_cuda_driverloader_cuda.obj
 0002:000020b0       ??_C@_0BK@PJIBMMLA@cuGraphRemoveDependencies?$AA@ 000000018006b0b0     cuda:cuda_driverloader_generated_cuda_driverloader_cuda.obj
 0002:000020d0       ??_C@_0BD@GOFEGFCO@cuGraphDestroyNode?$AA@ 000000018006b0d0     cuda:cuda_driverloader_generated_cuda_driverloader_cuda.obj
 0002:000020e8       ??_C@_0BM@JBJNHAJG@cuGraphInstantiateWithFlags?$AA@ 000000018006b0e8     cuda:cuda_driverloader_generated_cuda_driverloader_cuda.obj
 0002:00002108       ??_C@_0BN@LBOMAHOK@cuGraphInstantiateWithParams?$AA@ 000000018006b108     cuda:cuda_driverloader_generated_cuda_driverloader_cuda.obj
 0002:00002128       ??_C@_0BE@BPKCPGGF@cuGraphExecGetFlags?$AA@ 000000018006b128     cuda:cuda_driverloader_generated_cuda_driverloader_cuda.obj
 0002:00002140       ??_C@_0BP@OIOJDICI@cuGraphExecKernelNodeSetParams?$AA@ 000000018006b140     cuda:cuda_driverloader_generated_cuda_driverloader_cuda.obj
 0002:00002160       ??_C@_0BP@ENDDDMND@cuGraphExecMemcpyNodeSetParams?$AA@ 000000018006b160     cuda:cuda_driverloader_generated_cuda_driverloader_cuda.obj
 0002:00002180       ??_C@_0BP@DKBCDECK@cuGraphExecMemsetNodeSetParams?$AA@ 000000018006b180     cuda:cuda_driverloader_generated_cuda_driverloader_cuda.obj
 0002:000021a0       ??_C@_0BN@HPNLFGJL@cuGraphExecHostNodeSetParams?$AA@ 000000018006b1a0     cuda:cuda_driverloader_generated_cuda_driverloader_cuda.obj
 0002:000021c0       ??_C@_0CD@OMFACKG@cuGraphExecChildGraphNodeSetPara@ 000000018006b1c0     cuda:cuda_driverloader_generated_cuda_driverloader_cuda.obj
 0002:000021e8       ??_C@_0CD@BHJKEBIB@cuGraphExecEventRecordNodeSetEve@ 000000018006b1e8     cuda:cuda_driverloader_generated_cuda_driverloader_cuda.obj
 0002:00002210       ??_C@_0CB@HKIFLALB@cuGraphExecEventWaitNodeSetEvent@ 000000018006b210     cuda:cuda_driverloader_generated_cuda_driverloader_cuda.obj
 0002:00002238       ??_C@_0DB@JNAFBPKC@cuGraphExecExternalSemaphoresSig@ 000000018006b238     cuda:cuda_driverloader_generated_cuda_driverloader_cuda.obj
 0002:00002270       ??_C@_0CP@IKELDCMJ@cuGraphExecExternalSemaphoresWai@ 000000018006b270     cuda:cuda_driverloader_generated_cuda_driverloader_cuda.obj
 0002:000022a0       ??_C@_0BG@CLFMFFAM@cuGraphNodeSetEnabled?$AA@ 000000018006b2a0     cuda:cuda_driverloader_generated_cuda_driverloader_cuda.obj
 0002:000022b8       ??_C@_0BG@DFHDOCEF@cuGraphNodeGetEnabled?$AA@ 000000018006b2b8     cuda:cuda_driverloader_generated_cuda_driverloader_cuda.obj
 0002:000022d0       ??_C@_0O@FLNCPIPJ@cuGraphUpload?$AA@ 000000018006b2d0     cuda:cuda_driverloader_generated_cuda_driverloader_cuda.obj
 0002:000022e0       ??_C@_0O@BLGDPJCO@cuGraphLaunch?$AA@ 000000018006b2e0     cuda:cuda_driverloader_generated_cuda_driverloader_cuda.obj
 0002:000022f0       ??_C@_0BD@JHALMFJB@cuGraphExecDestroy?$AA@ 000000018006b2f0     cuda:cuda_driverloader_generated_cuda_driverloader_cuda.obj
 0002:00002308       ??_C@_0P@BEHJNJGO@cuGraphDestroy?$AA@ 000000018006b308     cuda:cuda_driverloader_generated_cuda_driverloader_cuda.obj
 0002:00002318       ??_C@_0BC@CJBCKMMG@cuGraphExecUpdate?$AA@ 000000018006b318     cuda:cuda_driverloader_generated_cuda_driverloader_cuda.obj
 0002:00002330       ??_C@_0CA@POAEFPAF@cuGraphKernelNodeCopyAttributes?$AA@ 000000018006b330     cuda:cuda_driverloader_generated_cuda_driverloader_cuda.obj
 0002:00002350       ??_C@_0BO@HOKMJMBH@cuGraphKernelNodeGetAttribute?$AA@ 000000018006b350     cuda:cuda_driverloader_generated_cuda_driverloader_cuda.obj
 0002:00002370       ??_C@_0BO@KBCFAFL@cuGraphKernelNodeSetAttribute?$AA@ 000000018006b370     cuda:cuda_driverloader_generated_cuda_driverloader_cuda.obj
 0002:00002390       ??_C@_0BF@EOEICKKE@cuGraphDebugDotPrint?$AA@ 000000018006b390     cuda:cuda_driverloader_generated_cuda_driverloader_cuda.obj
 0002:000023a8       ??_C@_0BD@MOPGCFFF@cuUserObjectCreate?$AA@ 000000018006b3a8     cuda:cuda_driverloader_generated_cuda_driverloader_cuda.obj
 0002:000023c0       ??_C@_0BD@LLAGNHNG@cuUserObjectRetain?$AA@ 000000018006b3c0     cuda:cuda_driverloader_generated_cuda_driverloader_cuda.obj
 0002:000023d8       ??_C@_0BE@LMMONACO@cuUserObjectRelease?$AA@ 000000018006b3d8     cuda:cuda_driverloader_generated_cuda_driverloader_cuda.obj
 0002:000023f0       ??_C@_0BI@CNOELPBG@cuGraphRetainUserObject?$AA@ 000000018006b3f0     cuda:cuda_driverloader_generated_cuda_driverloader_cuda.obj
 0002:00002408       ??_C@_0BJ@BKCCLNNO@cuGraphReleaseUserObject?$AA@ 000000018006b408     cuda:cuda_driverloader_generated_cuda_driverloader_cuda.obj
 0002:00002428       ??_C@_0P@EHPNHDEE@cuGraphAddNode?$AA@ 000000018006b428     cuda:cuda_driverloader_generated_cuda_driverloader_cuda.obj
 0002:00002438       ??_C@_0BF@EOMPKHBL@cuGraphNodeSetParams?$AA@ 000000018006b438     cuda:cuda_driverloader_generated_cuda_driverloader_cuda.obj
 0002:00002450       ??_C@_0BJ@CNFOLLJK@cuGraphExecNodeSetParams?$AA@ 000000018006b450     cuda:cuda_driverloader_generated_cuda_driverloader_cuda.obj
 0002:00002470       ??_C@_0BP@OBJFNGCM@cuGraphConditionalHandleCreate?$AA@ 000000018006b470     cuda:cuda_driverloader_generated_cuda_driverloader_cuda.obj
 0002:00002490       ??_C@_0CM@DGEECBBK@cuOccupancyMaxActiveBlocksPerMul@ 000000018006b490     cuda:cuda_driverloader_generated_cuda_driverloader_cuda.obj
 0002:000024c0       ??_C@_0DF@BKMNDMBA@cuOccupancyMaxActiveBlocksPerMul@ 000000018006b4c0     cuda:cuda_driverloader_generated_cuda_driverloader_cuda.obj
 0002:000024f8       ??_C@_0CB@JPLJACHK@cuOccupancyMaxPotentialBlockSize@ 000000018006b4f8     cuda:cuda_driverloader_generated_cuda_driverloader_cuda.obj
 0002:00002520       ??_C@_0CK@KONMDDO@cuOccupancyMaxPotentialBlockSize@ 000000018006b520     cuda:cuda_driverloader_generated_cuda_driverloader_cuda.obj
 0002:00002550       ??_C@_0CI@FDKEAAFF@cuOccupancyAvailableDynamicSMemP@ 000000018006b550     cuda:cuda_driverloader_generated_cuda_driverloader_cuda.obj
 0002:00002578       ??_C@_0CD@PMOFLBMI@cuOccupancyMaxPotentialClusterSi@ 000000018006b578     cuda:cuda_driverloader_generated_cuda_driverloader_cuda.obj
 0002:000025a0       ??_C@_0BN@HFFOMBGC@cuOccupancyMaxActiveClusters?$AA@ 000000018006b5a0     cuda:cuda_driverloader_generated_cuda_driverloader_cuda.obj
 0002:000025c0       ??_C@_0BB@IIDNGPGI@cuTexRefSetArray?$AA@ 000000018006b5c0     cuda:cuda_driverloader_generated_cuda_driverloader_cuda.obj
 0002:000025d8       ??_C@_0BK@BIOLFBBA@cuTexRefSetMipmappedArray?$AA@ 000000018006b5d8     cuda:cuda_driverloader_generated_cuda_driverloader_cuda.obj
 0002:000025f8       ??_C@_0BD@MOICKEGA@cuTexRefSetAddress?$AA@ 000000018006b5f8     cuda:cuda_driverloader_generated_cuda_driverloader_cuda.obj
 0002:00002610       ??_C@_0BF@HLMHJCL@cuTexRefSetAddress2D?$AA@ 000000018006b610     cuda:cuda_driverloader_generated_cuda_driverloader_cuda.obj
 0002:00002628       ??_C@_0BC@CKLOAKEM@cuTexRefSetFormat?$AA@ 000000018006b628     cuda:cuda_driverloader_generated_cuda_driverloader_cuda.obj
 0002:00002640       ??_C@_0BH@EEMJAHC@cuTexRefSetAddressMode?$AA@ 000000018006b640     cuda:cuda_driverloader_generated_cuda_driverloader_cuda.obj
 0002:00002658       ??_C@_0BG@MBCEKLKK@cuTexRefSetFilterMode?$AA@ 000000018006b658     cuda:cuda_driverloader_generated_cuda_driverloader_cuda.obj
 0002:00002670       ??_C@_0BM@HONGGBBA@cuTexRefSetMipmapFilterMode?$AA@ 000000018006b670     cuda:cuda_driverloader_generated_cuda_driverloader_cuda.obj
 0002:00002690       ??_C@_0BL@CBGCJJCF@cuTexRefSetMipmapLevelBias?$AA@ 000000018006b690     cuda:cuda_driverloader_generated_cuda_driverloader_cuda.obj
 0002:000026b0       ??_C@_0BM@HBBOBNIH@cuTexRefSetMipmapLevelClamp?$AA@ 000000018006b6b0     cuda:cuda_driverloader_generated_cuda_driverloader_cuda.obj
 0002:000026d0       ??_C@_0BJ@LIGKOCHO@cuTexRefSetMaxAnisotropy?$AA@ 000000018006b6d0     cuda:cuda_driverloader_generated_cuda_driverloader_cuda.obj
 0002:000026f0       ??_C@_0BH@KHPGLLHG@cuTexRefSetBorderColor?$AA@ 000000018006b6f0     cuda:cuda_driverloader_generated_cuda_driverloader_cuda.obj
 0002:00002708       ??_C@_0BB@PGCGBKHK@cuTexRefSetFlags?$AA@ 000000018006b708     cuda:cuda_driverloader_generated_cuda_driverloader_cuda.obj
 0002:00002720       ??_C@_0BD@NAKNBDCJ@cuTexRefGetAddress?$AA@ 000000018006b720     cuda:cuda_driverloader_generated_cuda_driverloader_cuda.obj
 0002:00002738       ??_C@_0BB@HJBBHMBF@cuTexRefGetArray?$AA@ 000000018006b738     cuda:cuda_driverloader_generated_cuda_driverloader_cuda.obj
 0002:00002750       ??_C@_0BK@DNOANKAO@cuTexRefGetMipmappedArray?$AA@ 000000018006b750     cuda:cuda_driverloader_generated_cuda_driverloader_cuda.obj
 0002:00002770       ??_C@_0BH@MKFCGKFO@cuTexRefGetAddressMode?$AA@ 000000018006b770     cuda:cuda_driverloader_generated_cuda_driverloader_cuda.obj
 0002:00002788       ??_C@_0BG@LODKBINN@cuTexRefGetFilterMode?$AA@ 000000018006b788     cuda:cuda_driverloader_generated_cuda_driverloader_cuda.obj
 0002:000027a0       ??_C@_0BC@EPLCLNO@cuTexRefGetFormat?$AA@ 000000018006b7a0     cuda:cuda_driverloader_generated_cuda_driverloader_cuda.obj
 0002:000027b8       ??_C@_0BM@NAPNCBGM@cuTexRefGetMipmapFilterMode?$AA@ 000000018006b7b8     cuda:cuda_driverloader_generated_cuda_driverloader_cuda.obj
 0002:000027d8       ??_C@_0BL@NLEIKPMN@cuTexRefGetMipmapLevelBias?$AA@ 000000018006b7d8     cuda:cuda_driverloader_generated_cuda_driverloader_cuda.obj
 0002:000027f8       ??_C@_0BM@NPDFFNPL@cuTexRefGetMipmapLevelClamp?$AA@ 000000018006b7f8     cuda:cuda_driverloader_generated_cuda_driverloader_cuda.obj
 0002:00002818       ??_C@_0BJ@NMDDFMMM@cuTexRefGetMaxAnisotropy?$AA@ 000000018006b818     cuda:cuda_driverloader_generated_cuda_driverloader_cuda.obj
 0002:00002838       ??_C@_0BH@GJOIEBFK@cuTexRefGetBorderColor?$AA@ 000000018006b838     cuda:cuda_driverloader_generated_cuda_driverloader_cuda.obj
 0002:00002850       ??_C@_0BB@HAKAJAH@cuTexRefGetFlags?$AA@ 000000018006b850     cuda:cuda_driverloader_generated_cuda_driverloader_cuda.obj
 0002:00002868       ??_C@_0P@DPCCDEFK@cuTexRefCreate?$AA@ 000000018006b868     cuda:cuda_driverloader_generated_cuda_driverloader_cuda.obj
 0002:00002878       ??_C@_0BA@IILDNAEG@cuTexRefDestroy?$AA@ 000000018006b878     cuda:cuda_driverloader_generated_cuda_driverloader_cuda.obj
 0002:00002888       ??_C@_0BC@KDOPKBPG@cuSurfRefSetArray?$AA@ 000000018006b888     cuda:cuda_driverloader_generated_cuda_driverloader_cuda.obj
 0002:000028a0       ??_C@_0BC@FCMDLCIL@cuSurfRefGetArray?$AA@ 000000018006b8a0     cuda:cuda_driverloader_generated_cuda_driverloader_cuda.obj
 0002:000028b8       ??_C@_0BC@INLCLEBG@cuTexObjectCreate?$AA@ 000000018006b8b8     cuda:cuda_driverloader_generated_cuda_driverloader_cuda.obj
 0002:000028d0       ??_C@_0BD@PHGLENHN@cuTexObjectDestroy?$AA@ 000000018006b8d0     cuda:cuda_driverloader_generated_cuda_driverloader_cuda.obj
 0002:000028e8       ??_C@_0BL@CMCGAFNF@cuTexObjectGetResourceDesc?$AA@ 000000018006b8e8     cuda:cuda_driverloader_generated_cuda_driverloader_cuda.obj
 0002:00002908       ??_C@_0BK@HCHHAMIG@cuTexObjectGetTextureDesc?$AA@ 000000018006b908     cuda:cuda_driverloader_generated_cuda_driverloader_cuda.obj
 0002:00002928       ??_C@_0BP@BGHLOFJD@cuTexObjectGetResourceViewDesc?$AA@ 000000018006b928     cuda:cuda_driverloader_generated_cuda_driverloader_cuda.obj
 0002:00002948       ??_C@_0BD@JKCONIJL@cuSurfObjectCreate?$AA@ 000000018006b948     cuda:cuda_driverloader_generated_cuda_driverloader_cuda.obj
 0002:00002960       ??_C@_0BE@GEHFCOIM@cuSurfObjectDestroy?$AA@ 000000018006b960     cuda:cuda_driverloader_generated_cuda_driverloader_cuda.obj
 0002:00002978       ??_C@_0BM@KMDHJFC@cuSurfObjectGetResourceDesc?$AA@ 000000018006b978     cuda:cuda_driverloader_generated_cuda_driverloader_cuda.obj
 0002:00002998       ??_C@_0BH@PKCCFNFB@cuTensorMapEncodeTiled?$AA@ 000000018006b998     cuda:cuda_driverloader_generated_cuda_driverloader_cuda.obj
 0002:000029b0       ??_C@_0BI@OGFLBJBL@cuTensorMapEncodeIm2col?$AA@ 000000018006b9b0     cuda:cuda_driverloader_generated_cuda_driverloader_cuda.obj
 0002:000029c8       ??_C@_0BM@BPIANMPP@cuTensorMapEncodeIm2colWide?$AA@ 000000018006b9c8     cuda:cuda_driverloader_generated_cuda_driverloader_cuda.obj
 0002:000029e8       ??_C@_0BK@HPNNOAEG@cuTensorMapReplaceAddress?$AA@ 000000018006b9e8     cuda:cuda_driverloader_generated_cuda_driverloader_cuda.obj
 0002:00002a08       ??_C@_0BG@NLBAKBOI@cuDeviceCanAccessPeer?$AA@ 000000018006ba08     cuda:cuda_driverloader_generated_cuda_driverloader_cuda.obj
 0002:00002a20       ??_C@_0BG@FJIDOCO@cuCtxEnablePeerAccess?$AA@ 000000018006ba20     cuda:cuda_driverloader_generated_cuda_driverloader_cuda.obj
 0002:00002a38       ??_C@_0BH@JPLBFDLI@cuCtxDisablePeerAccess?$AA@ 000000018006ba38     cuda:cuda_driverloader_generated_cuda_driverloader_cuda.obj
 0002:00002a50       ??_C@_0BI@MBAOCOML@cuDeviceGetP2PAttribute?$AA@ 000000018006ba50     cuda:cuda_driverloader_generated_cuda_driverloader_cuda.obj
 0002:00002a68       ??_C@_0CB@HPBHGBI@cuDeviceGetP2PAtomicCapabilities@ 000000018006ba68     cuda:cuda_driverloader_generated_cuda_driverloader_cuda.obj
 0002:00002a90       ??_C@_0BN@IPCKCOAC@cuGraphicsUnregisterResource?$AA@ 000000018006ba90     cuda:cuda_driverloader_generated_cuda_driverloader_cuda.obj
 0002:00002ab0       ??_C@_0CE@MHCLLDEH@cuGraphicsSubResourceGetMappedAr@ 000000018006bab0     cuda:cuda_driverloader_generated_cuda_driverloader_cuda.obj
 0002:00002ad8       ??_C@_0CK@GOOLKJPE@cuGraphicsResourceGetMappedMipma@ 000000018006bad8     cuda:cuda_driverloader_generated_cuda_driverloader_cuda.obj
 0002:00002b08       ??_C@_0CD@DAGJLMFB@cuGraphicsResourceGetMappedPoint@ 000000018006bb08     cuda:cuda_driverloader_generated_cuda_driverloader_cuda.obj
 0002:00002b30       ??_C@_0BO@NEGENPLL@cuGraphicsResourceSetMapFlags?$AA@ 000000018006bb30     cuda:cuda_driverloader_generated_cuda_driverloader_cuda.obj
 0002:00002b50       ??_C@_0BH@PNJEFODJ@cuGraphicsMapResources?$AA@ 000000018006bb50     cuda:cuda_driverloader_generated_cuda_driverloader_cuda.obj
 0002:00002b68       ??_C@_0BJ@PIJKGJLG@cuGraphicsUnmapResources?$AA@ 000000018006bb68     cuda:cuda_driverloader_generated_cuda_driverloader_cuda.obj
 0002:00002b88       ??_C@_0BB@JLEKBDDP@cuGetProcAddress?$AA@ 000000018006bb88     cuda:cuda_driverloader_generated_cuda_driverloader_cuda.obj
 0002:00002ba0       ??_C@_0BH@BECMFIFL@cuCoredumpGetAttribute?$AA@ 000000018006bba0     cuda:cuda_driverloader_generated_cuda_driverloader_cuda.obj
 0002:00002bb8       ??_C@_0BN@GLGLLJGK@cuCoredumpGetAttributeGlobal?$AA@ 000000018006bbb8     cuda:cuda_driverloader_generated_cuda_driverloader_cuda.obj
 0002:00002bd8       ??_C@_0BH@GAJCJEBH@cuCoredumpSetAttribute?$AA@ 000000018006bbd8     cuda:cuda_driverloader_generated_cuda_driverloader_cuda.obj
 0002:00002bf0       ??_C@_0BN@JBEBIPIC@cuCoredumpSetAttributeGlobal?$AA@ 000000018006bbf0     cuda:cuda_driverloader_generated_cuda_driverloader_cuda.obj
 0002:00002c10       ??_C@_0BB@EFMLDKK@cuGetExportTable?$AA@ 000000018006bc10     cuda:cuda_driverloader_generated_cuda_driverloader_cuda.obj
 0002:00002c28       ??_C@_0BB@EFGAPAGH@cuGreenCtxCreate?$AA@ 000000018006bc28     cuda:cuda_driverloader_generated_cuda_driverloader_cuda.obj
 0002:00002c40       ??_C@_0BC@NAKBNOJD@cuGreenCtxDestroy?$AA@ 000000018006bc40     cuda:cuda_driverloader_generated_cuda_driverloader_cuda.obj
 0002:00002c58       ??_C@_0BC@KLLDODON@cuCtxFromGreenCtx?$AA@ 000000018006bc58     cuda:cuda_driverloader_generated_cuda_driverloader_cuda.obj
 0002:00002c70       ??_C@_0BH@KPPLCJFO@cuDeviceGetDevResource?$AA@ 000000018006bc70     cuda:cuda_driverloader_generated_cuda_driverloader_cuda.obj
 0002:00002c88       ??_C@_0BE@FFOLAAPP@cuCtxGetDevResource?$AA@ 000000018006bc88     cuda:cuda_driverloader_generated_cuda_driverloader_cuda.obj
 0002:00002ca0       ??_C@_0BJ@KHMEBHKF@cuGreenCtxGetDevResource?$AA@ 000000018006bca0     cuda:cuda_driverloader_generated_cuda_driverloader_cuda.obj
 0002:00002cc0       ??_C@_0BM@JOOFLCDM@cuDevSmResourceSplitByCount?$AA@ 000000018006bcc0     cuda:cuda_driverloader_generated_cuda_driverloader_cuda.obj
 0002:00002ce0       ??_C@_0BK@NGGDEPNE@cuDevResourceGenerateDesc?$AA@ 000000018006bce0     cuda:cuda_driverloader_generated_cuda_driverloader_cuda.obj
 0002:00002d00       ??_C@_0BG@PBPMMHPO@cuGreenCtxRecordEvent?$AA@ 000000018006bd00     cuda:cuda_driverloader_generated_cuda_driverloader_cuda.obj
 0002:00002d18       ??_C@_0BE@CAFDMALG@cuGreenCtxWaitEvent?$AA@ 000000018006bd18     cuda:cuda_driverloader_generated_cuda_driverloader_cuda.obj
 0002:00002d30       ??_C@_0BE@HKPDBNAA@cuStreamGetGreenCtx?$AA@ 000000018006bd30     cuda:cuda_driverloader_generated_cuda_driverloader_cuda.obj
 0002:00002d48       ??_C@_0BH@FKCPENAP@cuGreenCtxStreamCreate?$AA@ 000000018006bd48     cuda:cuda_driverloader_generated_cuda_driverloader_cuda.obj
 0002:00002d60       ??_C@_0BA@FPBMLLIN@cuGreenCtxGetId?$AA@ 000000018006bd60     cuda:cuda_driverloader_generated_cuda_driverloader_cuda.obj
 0002:00002d70       ??_C@_0BH@HPFDKFKO@cuLogsRegisterCallback?$AA@ 000000018006bd70     cuda:cuda_driverloader_generated_cuda_driverloader_cuda.obj
 0002:00002d88       ??_C@_0BJ@JHJMMMCN@cuLogsUnregisterCallback?$AA@ 000000018006bd88     cuda:cuda_driverloader_generated_cuda_driverloader_cuda.obj
 0002:00002da8       ??_C@_0O@KMCLODMF@cuLogsCurrent?$AA@ 000000018006bda8     cuda:cuda_driverloader_generated_cuda_driverloader_cuda.obj
 0002:00002db8       ??_C@_0BB@FHCMBBLM@cuLogsDumpToFile?$AA@ 000000018006bdb8     cuda:cuda_driverloader_generated_cuda_driverloader_cuda.obj
 0002:00002dd0       ??_C@_0BD@KMFALFLO@cuLogsDumpToMemory?$AA@ 000000018006bdd0     cuda:cuda_driverloader_generated_cuda_driverloader_cuda.obj
 0002:00002de8       ??_C@_0BD@LEBPOKHB@cuGraphInstantiate?$AA@ 000000018006bde8     cuda:cuda_driverloader_generated_cuda_driverloader_cuda.obj
 0002:00002e00       ??_C@_0CG@LDELNPA@cuCheckpointProcessGetRestoreThr@ 000000018006be00     cuda:cuda_driverloader_generated_cuda_driverloader_cuda.obj
 0002:00002e28       ??_C@_0BM@GNOOFOHN@cuCheckpointProcessGetState?$AA@ 000000018006be28     cuda:cuda_driverloader_generated_cuda_driverloader_cuda.obj
 0002:00002e48       ??_C@_0BI@NNHBEPLP@cuCheckpointProcessLock?$AA@ 000000018006be48     cuda:cuda_driverloader_generated_cuda_driverloader_cuda.obj
 0002:00002e60       ??_C@_0BO@GAPDJFDB@cuCheckpointProcessCheckpoint?$AA@ 000000018006be60     cuda:cuda_driverloader_generated_cuda_driverloader_cuda.obj
 0002:00002e80       ??_C@_0BL@JOHMBBIG@cuCheckpointProcessRestore?$AA@ 000000018006be80     cuda:cuda_driverloader_generated_cuda_driverloader_cuda.obj
 0002:00002ea0       ??_C@_0BK@HNIOPOCM@cuCheckpointProcessUnlock?$AA@ 000000018006bea0     cuda:cuda_driverloader_generated_cuda_driverloader_cuda.obj
 0002:00002ec0       ??_C@_0L@BCLCHHLA@nvcuda?4dll?$AA@ 000000018006bec0     cuda:cuda_driverloader_driverLoaderCore.obj
 0002:00002ed0       ??_C@_0BE@PGLDBEEN@cuGetProcAddress_v2?$AA@ 000000018006bed0     cuda:cuda_driverloader_driverLoaderCore.obj
 0002:00002ee8       ??_C@_0BF@HKHLPHDC@cuProfilerInitialize?$AA@ 000000018006bee8     cuda:cuda_driverloader_generated_cuda_driverloader_cudaProfiler.obj
 0002:00002f00       ??_C@_0BA@EELPNKID@cuProfilerStart?$AA@ 000000018006bf00     cuda:cuda_driverloader_generated_cuda_driverloader_cudaProfiler.obj
 0002:00002f10       ??_C@_0P@NEDHAKMB@cuProfilerStop?$AA@ 000000018006bf10     cuda:cuda_driverloader_generated_cuda_driverloader_cudaProfiler.obj
 0002:00002f20       ??_C@_0BL@MNKFLNED@cuGraphicsGLRegisterBuffer?$AA@ 000000018006bf20     cuda:cuda_driverloader_generated_cuda_driverloader_cudaGL.obj
 0002:00002f40       ??_C@_0BK@GKPCLOOL@cuGraphicsGLRegisterImage?$AA@ 000000018006bf40     cuda:cuda_driverloader_generated_cuda_driverloader_cudaGL.obj
 0002:00002f60       ??_C@_0P@DBKBCFHC@cuWGLGetDevice?$AA@ 000000018006bf60     cuda:cuda_driverloader_generated_cuda_driverloader_cudaGL.obj
 0002:00002f70       ??_C@_0P@NLFLBNAP@cuGLGetDevices?$AA@ 000000018006bf70     cuda:cuda_driverloader_generated_cuda_driverloader_cudaGL.obj
 0002:00002f80       ??_C@_0O@OMMOGGEO@cuGLCtxCreate?$AA@ 000000018006bf80     cuda:cuda_driverloader_generated_cuda_driverloader_cudaGL.obj
 0002:00002f90       ??_C@_08ODNBLOHB@cuGLInit?$AA@ 000000018006bf90     cuda:cuda_driverloader_generated_cuda_driverloader_cudaGL.obj
 0002:00002fa0       ??_C@_0BJ@MIFBPOEN@cuGLRegisterBufferObject?$AA@ 000000018006bfa0     cuda:cuda_driverloader_generated_cuda_driverloader_cudaGL.obj
 0002:00002fc0       ??_C@_0BE@EHEGLJLM@cuGLMapBufferObject?$AA@ 000000018006bfc0     cuda:cuda_driverloader_generated_cuda_driverloader_cudaGL.obj
 0002:00002fd8       ??_C@_0BG@EHLOPHDP@cuGLUnmapBufferObject?$AA@ 000000018006bfd8     cuda:cuda_driverloader_generated_cuda_driverloader_cudaGL.obj
 0002:00002ff0       ??_C@_0BL@POALDJGJ@cuGLUnregisterBufferObject?$AA@ 000000018006bff0     cuda:cuda_driverloader_generated_cuda_driverloader_cudaGL.obj
 0002:00003010       ??_C@_0BM@NGOHAHGG@cuGLSetBufferObjectMapFlags?$AA@ 000000018006c010     cuda:cuda_driverloader_generated_cuda_driverloader_cudaGL.obj
 0002:00003030       ??_C@_0BJ@BOLKLODL@cuGLMapBufferObjectAsync?$AA@ 000000018006c030     cuda:cuda_driverloader_generated_cuda_driverloader_cudaGL.obj
 0002:00003050       ??_C@_0BL@CIOAHJBP@cuGLUnmapBufferObjectAsync?$AA@ 000000018006c050     cuda:cuda_driverloader_generated_cuda_driverloader_cudaGL.obj
 0002:00003070       ??_C@_0BA@HMKACGED@cuD3D9GetDevice?$AA@ 000000018006c070     cuda:cuda_driverloader_generated_cuda_driverloader_cudaD3D9.obj
 0002:00003080       ??_C@_0BB@OLLLJKDJ@cuD3D9GetDevices?$AA@ 000000018006c080     cuda:cuda_driverloader_generated_cuda_driverloader_cudaD3D9.obj
 0002:00003098       ??_C@_0BA@LJLGLJKB@cuD3D9CtxCreate?$AA@ 000000018006c098     cuda:cuda_driverloader_generated_cuda_driverloader_cudaD3D9.obj
 0002:000030a8       ??_C@_0BI@EMNOIBMN@cuD3D9CtxCreateOnDevice?$AA@ 000000018006c0a8     cuda:cuda_driverloader_generated_cuda_driverloader_cudaD3D9.obj
 0002:000030c0       ??_C@_0BI@DJNKDBJK@cuD3D9GetDirect3DDevice?$AA@ 000000018006c0c0     cuda:cuda_driverloader_generated_cuda_driverloader_cudaD3D9.obj
 0002:000030d8       ??_C@_0BP@JLAPBMAN@cuGraphicsD3D9RegisterResource?$AA@ 000000018006c0d8     cuda:cuda_driverloader_generated_cuda_driverloader_cudaD3D9.obj
 0002:000030f8       ??_C@_0BH@FHGPIHHO@cuD3D9RegisterResource?$AA@ 000000018006c0f8     cuda:cuda_driverloader_generated_cuda_driverloader_cudaD3D9.obj
 0002:00003110       ??_C@_0BJ@LJFJKMLC@cuD3D9UnregisterResource?$AA@ 000000018006c110     cuda:cuda_driverloader_generated_cuda_driverloader_cudaD3D9.obj
 0002:00003130       ??_C@_0BD@ILAGCGAE@cuD3D9MapResources?$AA@ 000000018006c130     cuda:cuda_driverloader_generated_cuda_driverloader_cudaD3D9.obj
 0002:00003148       ??_C@_0BF@MMKMKOJE@cuD3D9UnmapResources?$AA@ 000000018006c148     cuda:cuda_driverloader_generated_cuda_driverloader_cudaD3D9.obj
 0002:00003160       ??_C@_0BK@BPDDBPLF@cuD3D9ResourceSetMapFlags?$AA@ 000000018006c160     cuda:cuda_driverloader_generated_cuda_driverloader_cudaD3D9.obj
 0002:00003180       ??_C@_0CD@MNGMAHK@cuD3D9ResourceGetSurfaceDimensio@ 000000018006c180     cuda:cuda_driverloader_generated_cuda_driverloader_cudaD3D9.obj
 0002:000031a8       ??_C@_0BN@PFBGOALA@cuD3D9ResourceGetMappedArray?$AA@ 000000018006c1a8     cuda:cuda_driverloader_generated_cuda_driverloader_cudaD3D9.obj
 0002:000031c8       ??_C@_0BP@LIOJNKIG@cuD3D9ResourceGetMappedPointer?$AA@ 000000018006c1c8     cuda:cuda_driverloader_generated_cuda_driverloader_cudaD3D9.obj
 0002:000031e8       ??_C@_0BM@MHLKKOAP@cuD3D9ResourceGetMappedSize?$AA@ 000000018006c1e8     cuda:cuda_driverloader_generated_cuda_driverloader_cudaD3D9.obj
 0002:00003208       ??_C@_0BN@FPJKDPLP@cuD3D9ResourceGetMappedPitch?$AA@ 000000018006c208     cuda:cuda_driverloader_generated_cuda_driverloader_cudaD3D9.obj
 0002:00003228       ??_C@_0M@ENJJCEOE@cuD3D9Begin?$AA@ 000000018006c228     cuda:cuda_driverloader_generated_cuda_driverloader_cudaD3D9.obj
 0002:00003238       ??_C@_09HPCHKPLD@cuD3D9End?$AA@ 000000018006c238     cuda:cuda_driverloader_generated_cuda_driverloader_cudaD3D9.obj
 0002:00003248       ??_C@_0BL@KKLPPAFL@cuD3D9RegisterVertexBuffer?$AA@ 000000018006c248     cuda:cuda_driverloader_generated_cuda_driverloader_cudaD3D9.obj
 0002:00003268       ??_C@_0BG@EBIJINJH@cuD3D9MapVertexBuffer?$AA@ 000000018006c268     cuda:cuda_driverloader_generated_cuda_driverloader_cudaD3D9.obj
 0002:00003280       ??_C@_0BI@HJMDGNJF@cuD3D9UnmapVertexBuffer?$AA@ 000000018006c280     cuda:cuda_driverloader_generated_cuda_driverloader_cudaD3D9.obj
 0002:00003298       ??_C@_0BN@GMJCFGOO@cuD3D9UnregisterVertexBuffer?$AA@ 000000018006c298     cuda:cuda_driverloader_generated_cuda_driverloader_cudaD3D9.obj
 0002:000032b8       ??_C@_0BB@DGOABGFK@cuD3D10GetDevice?$AA@ 000000018006c2b8     cuda:cuda_driverloader_generated_cuda_driverloader_cudaD3D10.obj
 0002:000032d0       ??_C@_0BC@IPJKHCMJ@cuD3D10GetDevices?$AA@ 000000018006c2d0     cuda:cuda_driverloader_generated_cuda_driverloader_cudaD3D10.obj
 0002:000032e8       ??_C@_0CA@MEMJPJMD@cuGraphicsD3D10RegisterResource?$AA@ 000000018006c2e8     cuda:cuda_driverloader_generated_cuda_driverloader_cudaD3D10.obj
 0002:00003308       ??_C@_0BB@PDPGIJLI@cuD3D10CtxCreate?$AA@ 000000018006c308     cuda:cuda_driverloader_generated_cuda_driverloader_cudaD3D10.obj
 0002:00003320       ??_C@_0BJ@JKFCEEBL@cuD3D10CtxCreateOnDevice?$AA@ 000000018006c320     cuda:cuda_driverloader_generated_cuda_driverloader_cudaD3D10.obj
 0002:00003340       ??_C@_0BJ@OPFGPEEM@cuD3D10GetDirect3DDevice?$AA@ 000000018006c340     cuda:cuda_driverloader_generated_cuda_driverloader_cudaD3D10.obj
 0002:00003360       ??_C@_0BI@NAJLJNO@cuD3D10RegisterResource?$AA@ 000000018006c360     cuda:cuda_driverloader_generated_cuda_driverloader_cudaD3D10.obj
 0002:00003378       ??_C@_0BK@NGDPFHJG@cuD3D10UnregisterResource?$AA@ 000000018006c378     cuda:cuda_driverloader_generated_cuda_driverloader_cudaD3D10.obj
 0002:00003398       ??_C@_0BE@DBGLMJNC@cuD3D10MapResources?$AA@ 000000018006c398     cuda:cuda_driverloader_generated_cuda_driverloader_cudaD3D10.obj
 0002:000033b0       ??_C@_0BG@CLHLIJIJ@cuD3D10UnmapResources?$AA@ 000000018006c3b0     cuda:cuda_driverloader_generated_cuda_driverloader_cudaD3D10.obj
 0002:000033c8       ??_C@_0BL@CDFPJNJP@cuD3D10ResourceSetMapFlags?$AA@ 000000018006c3c8     cuda:cuda_driverloader_generated_cuda_driverloader_cudaD3D10.obj
 0002:000033e8       ??_C@_0BO@INHNPEAA@cuD3D10ResourceGetMappedArray?$AA@ 000000018006c3e8     cuda:cuda_driverloader_generated_cuda_driverloader_cudaD3D10.obj
 0002:00003408       ??_C@_0CA@EGPGNICI@cuD3D10ResourceGetMappedPointer?$AA@ 000000018006c408     cuda:cuda_driverloader_generated_cuda_driverloader_cudaD3D10.obj
 0002:00003428       ??_C@_0BN@KLGHLMEH@cuD3D10ResourceGetMappedSize?$AA@ 000000018006c428     cuda:cuda_driverloader_generated_cuda_driverloader_cudaD3D10.obj
 0002:00003448       ??_C@_0BO@CHPBCLAP@cuD3D10ResourceGetMappedPitch?$AA@ 000000018006c448     cuda:cuda_driverloader_generated_cuda_driverloader_cudaD3D10.obj
 0002:00003468       ??_C@_0CE@DFLJKLKH@cuD3D10ResourceGetSurfaceDimensi@ 000000018006c468     cuda:cuda_driverloader_generated_cuda_driverloader_cudaD3D10.obj
 0002:00003490       ??_C@_0BB@PHGOMJJK@cuD3D11GetDevice?$AA@ 000000018006c490     cuda:cuda_driverloader_generated_cuda_driverloader_cudaD3D11.obj
 0002:000034a8       ??_C@_0BC@BEDPDOKG@cuD3D11GetDevices?$AA@ 000000018006c4a8     cuda:cuda_driverloader_generated_cuda_driverloader_cudaD3D11.obj
 0002:000034c0       ??_C@_0CA@CLJLEPCC@cuGraphicsD3D11RegisterResource?$AA@ 000000018006c4c0     cuda:cuda_driverloader_generated_cuda_driverloader_cudaD3D11.obj
 0002:000034e0       ??_C@_0BB@DCHIFGHI@cuD3D11CtxCreate?$AA@ 000000018006c4e0     cuda:cuda_driverloader_generated_cuda_driverloader_cudaD3D11.obj
 0002:000034f8       ??_C@_0BJ@ENLAMEED@cuD3D11CtxCreateOnDevice?$AA@ 000000018006c4f8     cuda:cuda_driverloader_generated_cuda_driverloader_cudaD3D11.obj
 0002:00003518       ??_C@_0BJ@DILEHEBE@cuD3D11GetDirect3DDevice?$AA@ 000000018006c518     cuda:cuda_driverloader_generated_cuda_driverloader_cudaD3D11.obj
 0002:00003538       _pDefaultRawDllMain        000000018006c538     MSVCRT:dll_dllmain.obj
 0002:00003538       _pRawDllMain               000000018006c538     MSVCRT:dll_dllmain.obj
 0002:00003548       ??_7exception@std@@6B@     000000018006c548     MSVCRT:throw_bad_alloc.obj
 0002:00003558       ??_C@_0BC@EOODALEL@Unknown?5exception@ 000000018006c558     MSVCRT:throw_bad_alloc.obj
 0002:00003578       ??_7bad_alloc@std@@6B@     000000018006c578     MSVCRT:throw_bad_alloc.obj
 0002:00003588       ??_C@_0P@GHFPNOJB@bad?5allocation@ 000000018006c588     MSVCRT:throw_bad_alloc.obj
 0002:000035a0       ??_7bad_array_new_length@std@@6B@ 000000018006c5a0     MSVCRT:throw_bad_alloc.obj
 0002:000035b0       ??_C@_0BF@KINCDENJ@bad?5array?5new?5length@ 000000018006c5b0     MSVCRT:throw_bad_alloc.obj
 0002:000035d0       __xmm@ffffffffffffffffffffffffffffffff 000000018006c5d0     MSVCRT:utility.obj
 0002:000035e8       ??_7type_info@@6B@         000000018006c5e8     MSVCRT:std_type_info_static.obj
 0002:000035f0       ??_C@_0BA@DLCJDKDM@NonTrackedAlloc@ 000000018006c5f0     CuCloth.obj
 0002:00003600       ??_C@_0EP@JPMDNHHO@C?3?2Users?2Jungle?2Desktop?2GTL?2Wee@ 000000018006c600     CuCloth.obj
 0002:00003650       ??_C@_0O@IBGKICPL@MovingAverage@ 000000018006c650     CuCloth.obj
 0002:00003660       ??_C@_0EI@LEODLPAI@C?3?2Users?2Jungle?2Desktop?2GTL?2Wee@ 000000018006c660     CuCloth.obj
 0002:000036b0       ??_C@_0EP@FGBDNKAC@Too?5many?5collision?5triangles?5sp@ 000000018006c6b0     CuCloth.obj
 0002:00003700       ??_C@_0EN@FMLOKKLJ@C?3?2Users?2Jungle?2Desktop?2GTL?2Wee@ 000000018006c700     CuCloth.obj
 0002:00003750       ??_C@_0FA@POGIFNOI@C?3?2Users?2Jungle?2Desktop?2GTL?2Wee@ 000000018006c750     CuCloth.obj
 0002:000037a0       ??_C@_0FA@LFPCOLIE@C?3?2Users?2Jungle?2Desktop?2GTL?2Wee@ 000000018006c7a0     CuCloth.obj
 0002:000037f0       ??_7CuCloth@cloth@nv@@6B@  000000018006c7f0     CuCloth.obj
 0002:00003b80       ??_7Cloth@cloth@nv@@6B@    000000018006cb80     CuCloth.obj
 0002:00003f08       ??_7?$ClothImpl@VCuCloth@cloth@nv@@@cloth@nv@@6B@ 000000018006cf08     CuCloth.obj
 0002:00004298       ??_C@_0BD@ONCKCCMF@?$DMTypeName?5Unknown?$DO@ 000000018006d298     CuClothClone.obj
 0002:000042b0       ??_C@_0EH@MEKDECNI@C?3?2Users?2Jungle?2Desktop?2GTL?2Wee@ 000000018006d2b0     CuClothClone.obj
 0002:00004300       ??_C@_0EN@EDCDNCIK@C?3?2Users?2Jungle?2Desktop?2GTL?2Wee@ 000000018006d300     CuClothClone.obj
 0002:00004350       ??_C@_0EO@KGKCMDCL@C?3?2Users?2Jungle?2Desktop?2GTL?2Wee@ 000000018006d350     CuContextLock.obj
 0002:000043a0       ??_C@_0EO@JLIGIJBO@C?3?2Users?2Jungle?2Desktop?2GTL?2Wee@ 000000018006d3a0     CuFabric.obj
 0002:000043f0       ??_7CuFabric@cloth@nv@@6B@ 000000018006d3f0     CuFabric.obj
 0002:00004450       ??_7Fabric@cloth@nv@@6B@   000000018006d450     CuFabric.obj
 0002:000044b0       ??_C@_07NBCGADJA@Unknown@  000000018006d4b0     CuFactory.obj
 0002:000044b8       ??_C@_0BJ@MCNIHGMK@CUDA_ERROR_INVALID_VALUE@ 000000018006d4b8     CuFactory.obj
 0002:000044d8       ??_C@_0BJ@CNEOPIBN@CUDA_ERROR_OUT_OF_MEMORY@ 000000018006d4d8     CuFactory.obj
 0002:000044f8       ??_C@_0BL@EPHIMIFG@CUDA_ERROR_NOT_INITIALIZED@ 000000018006d4f8     CuFactory.obj
 0002:00004518       ??_C@_0BJ@IKKPFDBH@CUDA_ERROR_DEINITIALIZED@ 000000018006d518     CuFactory.obj
 0002:00004538       ??_C@_0BF@OLCOGLNC@CUDA_ERROR_NO_DEVICE@ 000000018006d538     CuFactory.obj
 0002:00004550       ??_C@_0BK@KJLPJMNP@CUDA_ERROR_INVALID_DEVICE@ 000000018006d550     CuFactory.obj
 0002:00004570       ??_C@_0BJ@BIGAIEEG@CUDA_ERROR_INVALID_IMAGE@ 000000018006d570     CuFactory.obj
 0002:00004590       ??_C@_0BL@CAMHACOE@CUDA_ERROR_INVALID_CONTEXT@ 000000018006d590     CuFactory.obj
 0002:000045b0       ??_C@_0BG@PCDIJLGE@CUDA_ERROR_MAP_FAILED@ 000000018006d5b0     CuFactory.obj
 0002:000045c8       ??_C@_0BI@LIOELPBH@CUDA_ERROR_UNMAP_FAILED@ 000000018006d5c8     CuFactory.obj
 0002:000045e0       ??_C@_0BL@LHLGMFM@CUDA_ERROR_ARRAY_IS_MAPPED@ 000000018006d5e0     CuFactory.obj
 0002:00004600       ??_C@_0BK@JGMMABAO@CUDA_ERROR_ALREADY_MAPPED@ 000000018006d600     CuFactory.obj
 0002:00004620       ??_C@_0BN@LLCKJBJD@CUDA_ERROR_NO_BINARY_FOR_GPU@ 000000018006d620     CuFactory.obj
 0002:00004640       ??_C@_0BM@OJOJMFNC@CUDA_ERROR_ALREADY_ACQUIRED@ 000000018006d640     CuFactory.obj
 0002:00004660       ??_C@_0BG@FNMHNFPE@CUDA_ERROR_NOT_MAPPED@ 000000018006d660     CuFactory.obj
 0002:00004678       ??_C@_0BP@EOHNHEJJ@CUDA_ERROR_NOT_MAPPED_AS_ARRAY@ 000000018006d678     CuFactory.obj
 0002:00004698       ??_C@_0CB@KGAEMLBJ@CUDA_ERROR_NOT_MAPPED_AS_POINTE@ 000000018006d698     CuFactory.obj
 0002:000046c0       ??_C@_0BN@MOLLDDBF@CUDA_ERROR_ECC_UNCORRECTABLE@ 000000018006d6c0     CuFactory.obj
 0002:000046e0       ??_C@_0BN@KCELBMJM@CUDA_ERROR_UNSUPPORTED_LIMIT@ 000000018006d6e0     CuFactory.obj
 0002:00004700       ??_C@_0BK@GKOFLHLH@CUDA_ERROR_INVALID_SOURCE@ 000000018006d700     CuFactory.obj
 0002:00004720       ??_C@_0BK@JKOCDAGF@CUDA_ERROR_FILE_NOT_FOUND@ 000000018006d720     CuFactory.obj
 0002:00004740       ??_C@_0CK@KMEKIDID@CUDA_ERROR_SHARED_OBJECT_SYMBOL@ 000000018006d740     CuFactory.obj
 0002:00004770       ??_C@_0CF@JKMNCLJG@CUDA_ERROR_SHARED_OBJECT_INIT_F@ 000000018006d770     CuFactory.obj
 0002:00004798       ??_C@_0BM@DJPMPCAA@CUDA_ERROR_OPERATING_SYSTEM@ 000000018006d798     CuFactory.obj
 0002:000047b8       ??_C@_0BK@FMCIPHBO@CUDA_ERROR_INVALID_HANDLE@ 000000018006d7b8     CuFactory.obj
 0002:000047d8       ??_C@_0BF@DDPFHCNI@CUDA_ERROR_NOT_FOUND@ 000000018006d7d8     CuFactory.obj
 0002:000047f0       ??_C@_0BF@MMICADPG@CUDA_ERROR_NOT_READY@ 000000018006d7f0     CuFactory.obj
 0002:00004808       ??_C@_0BJ@JLBELLNJ@CUDA_ERROR_LAUNCH_FAILED@ 000000018006d808     CuFactory.obj
 0002:00004828       ??_C@_0CD@IAMOGGLH@CUDA_ERROR_LAUNCH_OUT_OF_RESOUR@ 000000018006d828     CuFactory.obj
 0002:00004850       ??_C@_0BK@MIOKJHOO@CUDA_ERROR_LAUNCH_TIMEOUT@ 000000018006d850     CuFactory.obj
 0002:00004870       ??_C@_0CJ@IHGKNJOE@CUDA_ERROR_LAUNCH_INCOMPATIBLE_@ 000000018006d870     CuFactory.obj
 0002:000048a0       ??_C@_0BL@JBGMGMM@CUDA_ERROR_ILLEGAL_ADDRESS@ 000000018006d8a0     CuFactory.obj
 0002:000048c0       ??_C@_0BD@KJNCAEGL@CUDA_ERROR_UNKNOWN@ 000000018006d8c0     CuFactory.obj
 0002:000048d8       ??_C@_0BI@ONLNOKFF@CUDA?5error?3?5?$CFs?5at?5?$CFs?3?$CFd@ 000000018006d8d8     CuFactory.obj
 0002:000048f0       ??_C@_0EK@CILAHJDF@C?3?2Users?2Jungle?2Desktop?2GTL?2Wee@ 000000018006d8f0     CuFactory.obj
 0002:00004940       ??_7Factory@cloth@nv@@6B@  000000018006d940     CuFactory.obj
 0002:000049b0       ??_7CuFactory@cloth@nv@@6B@ 000000018006d9b0     CuFactory.obj
 0002:00004a20       ??_C@_0P@OCDOAOI@simulateCloths@ 000000018006da20     CuSolver.obj
 0002:00004a30       ??_C@_0CG@LHPBDKPB@cloth?3?3CuSolverKernel?3?3simulate@ 000000018006da30     CuSolver.obj
 0002:00004a58       ??_C@_0CK@DKOODCAM@cloth?3?3CuSolverKernel?3?3integrat@ 000000018006da58     CuSolver.obj
 0002:00004a88       ??_C@_0CL@EFCCOEC@cloth?3?3CuSolverKernel?3?3accelera@ 000000018006da88     CuSolver.obj
 0002:00004ab8       ??_C@_0CB@GNHAEHAL@cloth?3?3CuSolverKernel?3?3applyWin@ 000000018006dab8     CuSolver.obj
 0002:00004ae0       ??_C@_0CH@KDFECEFI@cloth?3?3CuSolverKernel?3?3constrai@ 000000018006dae0     CuSolver.obj
 0002:00004b08       ??_C@_0CD@GNKHJGJF@cloth?3?3CuSolverKernel?3?3solveFab@ 000000018006db08     CuSolver.obj
 0002:00004b30       ??_C@_0CH@KDNFGBMN@cloth?3?3CuSolverKernel?3?3constrai@ 000000018006db30     CuSolver.obj
 0002:00004b58       ??_C@_0CL@BONPBKBA@cloth?3?3CuSolverKernel?3?3constrai@ 000000018006db58     CuSolver.obj
 0002:00004b88       ??_C@_0CI@EAGACDEF@cloth?3?3CuSolverKernel?3?3collideP@ 000000018006db88     CuSolver.obj
 0002:00004bb0       ??_C@_0CM@LJGGPLHM@cloth?3?3CuSolverKernel?3?3selfColl@ 000000018006dbb0     CuSolver.obj
 0002:00004be0       ??_C@_0CI@GBMPAHFD@cloth?3?3CuSolverKernel?3?3updateSl@ 000000018006dbe0     CuSolver.obj
 0002:00004c08       ??_C@_0CG@KKAIHEPL@cloth?3?3CuSolverKernel?3?3simulate@ 000000018006dc08     CuSolver.obj
 0002:00004c30       ??_C@_0CI@ENEPJGN@cloth?3?3CuSolverKernel?3?3simulate@ 000000018006dc30     CuSolver.obj
 0002:00004c58       ??_C@_0CG@ICPBEFBK@cloth?3?3CuSolverKernel?3?3simulate@ 000000018006dc58     CuSolver.obj
 0002:00004c80       ??_C@_0CK@EOJKPICI@cloth?3?3CuSolverKernel?3?3solveCon@ 000000018006dc80     CuSolver.obj
 0002:00004cb0       ??_C@_0CF@IINGDIBN@cloth?3?3CuCollision?3?3buildAccler@ 000000018006dcb0     CuSolver.obj
 0002:00004cd8       ??_C@_0CE@BBFKOFKL@cloth?3?3CuCollision?3?3collideCaps@ 000000018006dcd8     CuSolver.obj
 0002:00004d00       ??_C@_0CL@DICKKKEL@cloth?3?3CuCollision?3?3collideVirt@ 000000018006dd00     CuSolver.obj
 0002:00004d30       ??_C@_0CO@MJFMMGDD@cloth?3?3CuCollision?3?3collideCont@ 000000018006dd30     CuSolver.obj
 0002:00004d60       ??_C@_0CE@NMGHNGPD@cloth?3?3CuCollision?3?3collideConv@ 000000018006dd60     CuSolver.obj
 0002:00004d88       ??_C@_0CF@PNOPBKHD@cloth?3?3CuCollision?3?3collideTria@ 000000018006dd88     CuSolver.obj
 0002:00004db0       ??_C@_0CJ@KKHEMACO@cloth?3?3CuSelfCollision?3?3buildAc@ 000000018006ddb0     CuSolver.obj
 0002:00004de0       ??_C@_0CJ@LPFJDEOC@cloth?3?3CuSelfCollision?3?3collide@ 000000018006dde0     CuSolver.obj
 0002:00004e10       ??_C@_0EJ@OHGNJLMO@C?3?2Users?2Jungle?2Desktop?2GTL?2Wee@ 000000018006de10     CuSolver.obj
 0002:00004e60       ??_C@_0BK@HGFMKICC@cloth?3?3CuSolver?3?3simulate@ 000000018006de60     CuSolver.obj
 0002:00004e80       ??_C@_0GN@HCJDBCLJ@Inter?5collision?5will?5not?5work?5u@ 000000018006de80     CuSolver.obj
 0002:00004ef0       ??_C@_0CL@IMHMDM@cloth?3?3SwSolver?3?3mInterCollisio@ 000000018006def0     CuSolver.obj
 0002:00004fd8       ??_7CuSolver@cloth@nv@@6B@ 000000018006dfd8     CuSolver.obj
 0002:00005068       ??_7Solver@cloth@nv@@6B@   000000018006e068     CuSolver.obj
 0002:000050f8       ??_C@_00CNPNBAHC@@         000000018006e0f8     PsAllocator.obj
 0002:00005100       ??_C@_0EF@EEIGJMJL@C?3?2Users?2Jungle?2Desktop?2GTL?2Wee@ 000000018006e100     Allocator.obj
 0002:00005150       ??_C@_0ED@LOHHHMFK@C?3?2Users?2Jungle?2Desktop?2GTL?2Wee@ 000000018006e150     Factory.obj
 0002:00005198       ??_7?$ClothImpl@VSwCloth@cloth@nv@@@cloth@nv@@6B@ 000000018006e198     SwCloth.obj
 0002:00005528       ??_7SwCloth@cloth@nv@@6B@  000000018006e528     SwCloth.obj
 0002:000058c0       ??_C@_0EH@OLDLJHAC@C?3?2Users?2Jungle?2Desktop?2GTL?2Wee@ 000000018006e8c0     SwCollision.obj
 0002:00005908       ??_C@_0CF@HJHLLFIL@cloth?3?3SwSolverKernel?3?3computeB@ 000000018006e908     SwCollision.obj
 0002:00005930       ??_7SwFabric@cloth@nv@@6B@ 000000018006e930     SwFabric.obj
 0002:00005990       ??_C@_0EF@JLKMECDC@C?3?2Users?2Jungle?2Desktop?2GTL?2Wee@ 000000018006e990     SwFactory.obj
 0002:000059d8       ??_7SwFactory@cloth@nv@@6B@ 000000018006e9d8     SwFactory.obj
 0002:00005a50       ??_C@_0EM@PDFPDIOB@C?3?2Users?2Jungle?2Desktop?2GTL?2Wee@ 000000018006ea50     SwInterCollision.obj
 0002:00005aa0       ??_C@_0CE@DGDNNNIN@cloth?3?3SwInterCollision?3?3BroadP@ 000000018006eaa0     SwInterCollision.obj
 0002:00005ac8       ??_C@_0CB@FPBKBMHC@cloth?3?3SwInterCollision?3?3Collid@ 000000018006eac8     SwInterCollision.obj
 0002:00005af0       ??_C@_0CH@KJGHPOLJ@cloth?3?3SwInterCollision?3?3PostTr@ 000000018006eaf0     SwInterCollision.obj
 0002:00005b20       ??_C@_0ED@KLCHIHPA@C?3?2Users?2Jungle?2Desktop?2GTL?2Wee@ 000000018006eb20     SwInterCollision.obj
 0002:00005b68       ??_C@_07IOFDMEGK@int32_t@  000000018006eb68     SwInterCollision.obj
 0002:00005b70       ??_C@_0EM@HMJDECOF@C?3?2Users?2Jungle?2Desktop?2GTL?2Wee@ 000000018006eb70     SwInterCollision.obj
 0002:00005bc0       ??_C@_0EE@JNCMLCDG@C?3?2Users?2Jungle?2Desktop?2GTL?2Wee@ 000000018006ebc0     SwSolver.obj
 0002:00005c08       ??_C@_0BK@GAMKPIKL@cloth?3?3SwSolver?3?3simulate@ 000000018006ec08     SwSolver.obj
 0002:00005c28       ??_C@_0CA@ILALFOGD@cloth?3?3SwSolver?3?3mScratchMemory@ 000000018006ec28     SwSolver.obj
 0002:00005c48       ??_7SwSolver@cloth@nv@@6B@ 000000018006ec48     SwSolver.obj
 0002:00005ce0       ??_C@_0EK@EGEFLBAO@C?3?2Users?2Jungle?2Desktop?2GTL?2Wee@ 000000018006ece0     SwSolverKernel.obj
 0002:00005d30       ??_C@_0CK@DMBANECL@cloth?3?3SwSolverKernel?3?3integrat@ 000000018006ed30     SwSolverKernel.obj
 0002:00005d60       ??_C@_0CE@GDIFJHEI@cloth?3?3SwSolverKernel?3?3solveTet@ 000000018006ed60     SwSolverKernel.obj
 0002:00005d88       ??_C@_0CD@KLOAHBMH@cloth?3?3SwSolverKernel?3?3solveFab@ 000000018006ed88     SwSolverKernel.obj
 0002:00005db0       ??_C@_0CB@FHEEDKCO@cloth?3?3SwSolverKernel?3?3applyWin@ 000000018006edb0     SwSolverKernel.obj
 0002:00005dd8       ??_C@_0CH@KDEDNOIG@cloth?3?3SwSolverKernel?3?3constrai@ 000000018006edd8     SwSolverKernel.obj
 0002:00005e00       ??_C@_0CL@LLNDFBJN@cloth?3?3SwSolverKernel?3?3constrai@ 000000018006ee00     SwSolverKernel.obj
 0002:00005e30       ??_C@_0CI@KBGOCNOC@cloth?3?3SwSolverKernel?3?3collideP@ 000000018006ee30     SwSolverKernel.obj
 0002:00005e58       ??_C@_0CM@CKMKAIKK@cloth?3?3SwSolverKernel?3?3selfColl@ 000000018006ee58     SwSolverKernel.obj
 0002:00005e88       ??_C@_0CI@IAMBAJPE@cloth?3?3SwSolverKernel?3?3updateSl@ 000000018006ee88     SwSolverKernel.obj
 0002:00005eb0       ??_C@_0CP@FCEDPOAH@FabricCookerImpl?3?3cook?3?5desc?4is@ 000000018006eeb0     ClothFabricCooker.obj
 0002:00005ee0       ??_C@_0FI@JPPOHCOG@C?3?2Users?2Jungle?2Desktop?2GTL?2Wee@ 000000018006eee0     ClothFabricCooker.obj
 0002:00005f40       ??_C@_0FI@DPEAFMPD@C?3?2Users?2Jungle?2Desktop?2GTL?2Wee@ 000000018006ef40     ClothFabricCooker.obj
 0002:00005f98       ??_7ClothFabricCooker@cloth@nv@@6B@ 000000018006ef98     ClothFabricCooker.obj
 0002:00005fc0       ??_7FabricCookerImpl@cloth@nv@@6B@ 000000018006efc0     ClothFabricCooker.obj
 0002:00005ff0       ??_C@_0GA@KMJPPHIE@C?3?2Users?2Jungle?2Desktop?2GTL?2Wee@ 000000018006eff0     ClothGeodesicTetherCooker.obj
 0002:00006050       ??_C@_0FI@HPJKDLAJ@C?3?2Users?2Jungle?2Desktop?2GTL?2Wee@ 000000018006f050     ClothGeodesicTetherCooker.obj
 0002:000060a8       ??_7ClothTetherCooker@cloth@nv@@6B@ 000000018006f0a8     ClothGeodesicTetherCooker.obj
 0002:000060d0       ??_7ClothGeodesicTetherCooker@cloth@nv@@6B@ 000000018006f0d0     ClothGeodesicTetherCooker.obj
 0002:00006100       ??_C@_0FJ@EIHGLEIC@C?3?2Users?2Jungle?2Desktop?2GTL?2Wee@ 000000018006f100     ClothMeshQuadifier.obj
 0002:00006160       ??_7ClothMeshQuadifierImpl@cloth@nv@@6B@ 000000018006f160     ClothMeshQuadifier.obj
 0002:00006178       ??_7ClothMeshQuadifier@cloth@nv@@6B@ 000000018006f178     ClothMeshQuadifier.obj
 0002:00006190       ??_C@_0FO@DFBDJEF@C?3?2Users?2Jungle?2Desktop?2GTL?2Wee@ 000000018006f190     ClothSimpleTetherCooker.obj
 0002:000061f0       ??_7ClothSimpleTetherCooker@cloth@nv@@6B@ 000000018006f1f0     ClothSimpleTetherCooker.obj
 0002:00006218       __real@34000000            000000018006f218     CuSolver.obj
 0002:0000621c       __real@3727c5ac            000000018006f21c     ClothGeodesicTetherCooker.obj
 0002:00006220       __real@37800080            000000018006f220     CuFabric.obj
 0002:00006224       __real@37800180            000000018006f224     SwSelfCollision.obj
 0002:00006228       __real@38d1b717            000000018006f228     ClothGeodesicTetherCooker.obj
 0002:0000622c       __real@3c8efa35            000000018006f22c     ClothMeshQuadifier.obj
 0002:00006230       __real@3db27ebe            000000018006f230     ClothMeshQuadifier.obj
 0002:00006234       __real@3dcccccd            000000018006f234     ClothFabricCooker.obj
 0002:00006238       __real@3e19999a            000000018006f238     ClothFabricCooker.obj
 0002:0000623c       __real@3e800000            000000018006f23c     SwCollision.obj
 0002:00006240       __real@3ee66666            000000018006f240     ClothFabricCooker.obj
 0002:00006244       __real@3f000000            000000018006f244     SwCloth.obj
 0002:00006248       __real@3f21e89b            000000018006f248     ClothFabricCooker.obj
 0002:0000624c       __real@3f317218            000000018006f24c     CuCloth.obj
 0002:00006250       __real@3f5db3d8            000000018006f250     ClothMeshQuadifier.obj
 0002:00006254       __real@3f7fff58            000000018006f254     ClothGeodesicTetherCooker.obj
 0002:00006258       __real@3f800000            000000018006f258     ClothFabricCooker.obj
 0002:0000625c       __real@3f800054            000000018006f25c     ClothGeodesicTetherCooker.obj
 0002:00006260       __real@3fb8aa3b            000000018006f260     CuCloth.obj
 0002:00006264       __real@40000000            000000018006f264     CuSolver.obj
 0002:00006268       __real@40400000            000000018006f268     ClothFabricCooker.obj
 0002:0000626c       __real@447a0000            000000018006f26c     SwSolverKernel.obj
 0002:00006270       __real@7f7fffff            000000018006f270     CuCloth.obj
 0002:00006274       __real@b727c5ac            000000018006f274     ClothGeodesicTetherCooker.obj
 0002:00006278       __real@bf800000            000000018006f278     CuSolver.obj
 0002:0000627c       __real@c3000000            000000018006f27c     CuCloth.obj
 0002:00006280       __real@ff7fffff            000000018006f280     CuCloth.obj
 0002:00006290       __xmm@00000000ffffffffffffffffffffffff 000000018006f290     SwSolverKernel.obj
 0002:000062a0       __xmm@00000007000000070000000700000007 000000018006f2a0     SwCollision.obj
 0002:000062b0       __xmm@0000007f0000007f0000007f0000007f 000000018006f2b0     SwSolveConstraints.obj
 0002:000062c0       __xmm@20000000200000002000000020000000 000000018006f2c0     SwSolverKernel.obj
 0002:000062d0       __xmm@38d1b71738d1b71738d1b71738d1b717 000000018006f2d0     SwCollision.obj
 0002:000062e0       __xmm@3b81848e3b81848e3b81848e3b81848e 000000018006f2e0     SwSelfCollision.obj
 0002:000062f0       __xmm@3cbd2e433cbd2e433cbd2e433cbd2e43 000000018006f2f0     CuClothData.obj
 0002:00006300       __xmm@3eaaaaab3eaaaaab3eaaaaab3eaaaaab 000000018006f300     SwSolverKernel.obj
 0002:00006310       __xmm@3f0000003f0000003f0000003f000000 000000018006f310     SwInterCollision.obj
 0002:00006320       __xmm@3f8000003f8000003f8000003f800000 000000018006f320     CuClothData.obj
 0002:00006330       __xmm@3fc000003fc000003fc000003fc00000 000000018006f330     SwInterCollision.obj
 0002:00006340       __xmm@40000000400000004000000040000000 000000018006f340     SwCollision.obj
 0002:00006350       __xmm@41a19dd541a19dd541a19dd541a19dd5 000000018006f350     CuClothData.obj
 0002:00006360       __xmm@42fefff342fefff342fefff342fefff3 000000018006f360     CuClothData.obj
 0002:00006370       __xmm@43692f2843692f2843692f2843692f28 000000018006f370     CuClothData.obj
 0002:00006380       __xmm@437e0000437e0000437e0000437e0000 000000018006f380     SwSelfCollision.obj
 0002:00006390       __xmm@44bd3d0544bd3d0544bd3d0544bd3d05 000000018006f390     CuClothData.obj
 0002:000063a0       __xmm@458881b1458881b1458881b1458881b1 000000018006f3a0     CuClothData.obj
 0002:000063b0       __xmm@7f7fffff7f7fffff7f7fffff7f7fffff 000000018006f3b0     SwCollision.obj
 0002:000063c0       __xmm@7fffffff7fffffff7fffffff7fffffff 000000018006f3c0     SwInterCollision.obj
 0002:000063d0       __xmm@80000000800000008000000080000000 000000018006f3d0     SwCollision.obj
 0002:000063e0       __xmm@beb851eabeb851eabeb851eabeb851ea 000000018006f3e0     SwCollision.obj
 0002:00006400       __ymm@0000000000000000ffffffffffffffff0000000000000000ffffffffffffffff 000000018006f400     SwSolveConstraints.obj
 0002:00006420       __ymm@0000007f0000007f0000007f0000007f0000007f0000007f0000007f0000007f 000000018006f420     SwSolveConstraints.obj
 0002:00006440       __ymm@3400000034000000340000003400000034000000340000003400000034000000 000000018006f440     SwSolveConstraints.obj
 0002:00006460       __ymm@3f0000003f0000003f0000003f0000003f0000003f0000003f0000003f000000 000000018006f460     SwSolveConstraints.obj
 0002:00006480       __ymm@3f8000003f8000003f8000003f8000003f8000003f8000003f8000003f800000 000000018006f480     SwSolveConstraints.obj
 0002:000064a0       __ymm@3f800000bf800000bf800000bf8000003f800000bf800000bf800000bf800000 000000018006f4a0     SwSolveConstraints.obj
 0002:000064c0       __ymm@41a1cd2141a1cd2141a1cd2141a1cd2141a1cd2141a1cd2141a1cd2141a1cd21 000000018006f4c0     SwSolveConstraints.obj
 0002:000064e0       __ymm@42fefff342fefff342fefff342fefff342fefff342fefff342fefff342fefff3 000000018006f4e0     SwSolveConstraints.obj
 0002:00006500       __ymm@43692f2843692f2843692f2843692f2843692f2843692f2843692f2843692f28 000000018006f500     SwSolveConstraints.obj
 0002:00006520       __ymm@44bd3d0544bd3d0544bd3d0544bd3d0544bd3d0544bd3d0544bd3d0544bd3d05 000000018006f520     SwSolveConstraints.obj
 0002:00006540       __ymm@458881b1458881b1458881b1458881b1458881b1458881b1458881b1458881b1 000000018006f540     SwSolveConstraints.obj
 0002:00006560       __ymm@c2fefff3c2fefff3c2fefff3c2fefff3c2fefff3c2fefff3c2fefff3c2fefff3 000000018006f560     SwSolveConstraints.obj
 0002:00006580       ?gSimd4fMaskX@cloth@nv@@3USimd4fTupleFactory@12@B 000000018006f580     CuCloth.obj
 0002:00006590       ?gSimd4fTwo@cloth@nv@@3USimd4fScalarFactory@12@B 000000018006f590     CuCloth.obj
 0002:00006594       ?gSimd4fPi@cloth@nv@@3USimd4fScalarFactory@12@B 000000018006f594     CuCloth.obj
 0002:000065a0       _load_config_used          000000018006f5a0     MSVCRT:loadcfg.obj
 0002:00006780       __CastGuardVftablesStart   000000018006f780     MSVCRT:guard_support.obj
 0002:00006800       __CastGuardVftablesEnd     000000018006f800     MSVCRT:guard_support.obj
 0002:00006880       ??_R4exception@std@@6B@    000000018006f880     MSVCRT:throw_bad_alloc.obj
 0002:000068a8       ??_R3exception@std@@8      000000018006f8a8     MSVCRT:throw_bad_alloc.obj
 0002:000068c0       ??_R2exception@std@@8      000000018006f8c0     MSVCRT:throw_bad_alloc.obj
 0002:000068d0       ??_R1A@?0A@EA@exception@std@@8 000000018006f8d0     MSVCRT:throw_bad_alloc.obj
 0002:000068f8       ??_R4bad_array_new_length@std@@6B@ 000000018006f8f8     MSVCRT:throw_bad_alloc.obj
 0002:00006920       ??_R3bad_array_new_length@std@@8 000000018006f920     MSVCRT:throw_bad_alloc.obj
 0002:00006938       ??_R2bad_array_new_length@std@@8 000000018006f938     MSVCRT:throw_bad_alloc.obj
 0002:00006958       ??_R1A@?0A@EA@bad_array_new_length@std@@8 000000018006f958     MSVCRT:throw_bad_alloc.obj
 0002:00006980       ??_R1A@?0A@EA@bad_alloc@std@@8 000000018006f980     MSVCRT:throw_bad_alloc.obj
 0002:000069a8       ??_R3bad_alloc@std@@8      000000018006f9a8     MSVCRT:throw_bad_alloc.obj
 0002:000069c0       ??_R2bad_alloc@std@@8      000000018006f9c0     MSVCRT:throw_bad_alloc.obj
 0002:000069d8       ??_R4bad_alloc@std@@6B@    000000018006f9d8     MSVCRT:throw_bad_alloc.obj
 0002:00006a00       ??_R4type_info@@6B@        000000018006fa00     MSVCRT:std_type_info_static.obj
 0002:00006a28       ??_R3type_info@@8          000000018006fa28     MSVCRT:std_type_info_static.obj
 0002:00006a40       ??_R2type_info@@8          000000018006fa40     MSVCRT:std_type_info_static.obj
 0002:00006a50       ??_R1A@?0A@EA@type_info@@8 000000018006fa50     MSVCRT:std_type_info_static.obj
 0002:00006a74       __volatile_metadata        000000018006fa74     <linker-defined>
 0002:00006ef8       __rtc_iaa                  000000018006fef8     MSVCRT:initsect.obj
 0002:00006f00       __rtc_izz                  000000018006ff00     MSVCRT:initsect.obj
 0002:00006f08       __rtc_taa                  000000018006ff08     MSVCRT:initsect.obj
 0002:00006f10       __rtc_tzz                  000000018006ff10     MSVCRT:initsect.obj
 0002:0000e958       _TI2?AVbad_alloc@std@@     0000000180077958     MSVCRT:throw_bad_alloc.obj
 0002:0000e978       _CTA2?AVbad_alloc@std@@    0000000180077978     MSVCRT:throw_bad_alloc.obj
 0002:0000e990       _CT??_R0?AVbad_alloc@std@@@8??0bad_alloc@std@@QEAA@AEBV01@@Z24 0000000180077990     MSVCRT:throw_bad_alloc.obj
 0002:0000e9b8       _CT??_R0?AVexception@std@@@8??0exception@std@@QEAA@AEBV01@@Z24 00000001800779b8     MSVCRT:throw_bad_alloc.obj
 0002:0000e9e0       _TI3?AVbad_array_new_length@std@@ 00000001800779e0     MSVCRT:throw_bad_alloc.obj
 0002:0000ea00       _CTA3?AVbad_array_new_length@std@@ 0000000180077a00     MSVCRT:throw_bad_alloc.obj
 0002:0000ea20       _CT??_R0?AVbad_array_new_length@std@@@8??0bad_array_new_length@std@@QEAA@AEBV01@@Z24 0000000180077a20     MSVCRT:throw_bad_alloc.obj
 0002:0000f2f0       __IMPORT_DESCRIPTOR_KERNEL32 00000001800782f0     kernel32:KERNEL32.dll
 0002:0000f304       __IMPORT_DESCRIPTOR_VCRUNTIME140 0000000180078304     vcruntime:VCRUNTIME140.dll
 0002:0000f318       __IMPORT_DESCRIPTOR_api-ms-win-crt-stdio-l1-1-0 0000000180078318     ucrt:api-ms-win-crt-stdio-l1-1-0.dll
 0002:0000f32c       __IMPORT_DESCRIPTOR_api-ms-win-crt-heap-l1-1-0 000000018007832c     ucrt:api-ms-win-crt-heap-l1-1-0.dll
 0002:0000f340       __IMPORT_DESCRIPTOR_api-ms-win-crt-runtime-l1-1-0 0000000180078340     ucrt:api-ms-win-crt-runtime-l1-1-0.dll
 0002:0000f354       __IMPORT_DESCRIPTOR_api-ms-win-crt-math-l1-1-0 0000000180078354     ucrt:api-ms-win-crt-math-l1-1-0.dll
 0002:0000f368       __NULL_IMPORT_DESCRIPTOR   0000000180078368     kernel32:KERNEL32.dll
 0003:00000000       _fltused                   0000000180079000     MSVCRT:fltused.obj
 0003:00000004       __scrt_native_dllmain_reason 0000000180079004     MSVCRT:utility.obj
 0003:00000040       __security_cookie          0000000180079040     MSVCRT:gs_cookie.obj
 0003:00000080       __security_cookie_complement 0000000180079080     MSVCRT:gs_cookie.obj
 0003:00000088       __isa_inverted             0000000180079088     MSVCRT:cpu_disp.obj
 0003:00000090       __isa_available            0000000180079090     MSVCRT:cpu_disp.obj
 0003:00000094       __isa_enabled              0000000180079094     MSVCRT:cpu_disp.obj
 0003:00000098       __memset_fast_string_threshold 0000000180079098     MSVCRT:cpu_disp.obj
 0003:000000a0       __memset_nt_threshold      00000001800790a0     MSVCRT:cpu_disp.obj
 0003:000000b0       __scrt_ucrt_dll_is_in_use  00000001800790b0     MSVCRT:ucrt_stubs.obj
 0003:000000c0       kCuSolverKernel            00000001800790c0     CuFactory.obj
 0003:001d7b50       ?gSimd4fMaskXYZ@cloth@nv@@3USimd4fTupleFactory@12@B 0000000180250b50     CuCloth.obj
 0003:001d7b60       ?gSimd4fMinusOne@cloth@nv@@3USimd4fScalarFactory@12@B 0000000180250b60     CuCloth.obj
 0003:001d7b64       ?gSimd4fEpsilon@cloth@nv@@3USimd4fScalarFactory@12@B 0000000180250b64     CuCloth.obj
 0003:001d7b68       ?gSimd4iOne@cloth@nv@@3USimd4iScalarFactory@12@B 0000000180250b68     CuCloth.obj
 0003:001d7b6c       ?gSimd4fHalf@cloth@nv@@3USimd4fScalarFactory@12@B 0000000180250b6c     CuCloth.obj
 0003:001d7b70       ?gSimd4fFloatMax@cloth@nv@@3USimd4fScalarFactory@12@B 0000000180250b70     CuCloth.obj
 0003:001d7b78       ??_R0?AVbad_alloc@std@@@8  0000000180250b78     MSVCRT:throw_bad_alloc.obj
 0003:001d7ba0       ??_R0?AVexception@std@@@8  0000000180250ba0     MSVCRT:throw_bad_alloc.obj
 0003:001d7bc8       ??_R0?AVbad_array_new_length@std@@@8 0000000180250bc8     MSVCRT:throw_bad_alloc.obj
 0003:001d7bf8       ??_R0?AVtype_info@@@8      0000000180250bf8     MSVCRT:std_type_info_static.obj
 0003:001d7c30       ?__type_info_root_node@@3U__type_info_node@@A 0000000180250c30     MSVCRT:tncleanup.obj
 0003:001d7c40       ?_OptionsStorage@?1??__local_stdio_scanf_options@@9@4_KA 0000000180250c40     MSVCRT:default_local_stdio_options.obj
 0003:001d7c48       __scrt_current_native_startup_state 0000000180250c48     MSVCRT:utility.obj
 0003:001d7c50       __scrt_native_startup_lock 0000000180250c50     MSVCRT:utility.obj
 0003:001d7c90       __scrt_debugger_hook_flag  0000000180250c90     MSVCRT:utility_desktop.obj
 0003:001d7c98       __castguard_check_failure_user_handled_fptr 0000000180250c98     MSVCRT:guard_support.obj
 0003:001d7ca0       __avx10_version            0000000180250ca0     MSVCRT:cpu_disp.obj
 0003:001d7ca4       __favor                    0000000180250ca4     MSVCRT:cpu_disp.obj
 0003:001d7ca8       _Avx2WmemEnabledWeakValue  0000000180250ca8     CuCloth.obj
 0003:001d7cc0       ?sEpsilon@avx@@3T__m256@@A 0000000180250cc0     SwSolveConstraints.obj
 0003:001d7ce0       ?sMinusOneXYZOneW@avx@@3T__m256@@A 0000000180250ce0     SwSolveConstraints.obj
 0003:001d7d00       ?sOne@avx@@3T__m256@@A     0000000180250d00     SwSolveConstraints.obj
 0003:001d7d20       ?sMaskXY@avx@@3T__m256@@A  0000000180250d20     SwSolveConstraints.obj
 0003:001d7d40       ?sIntSignBit@?$Gather@T__m128i@@@cloth@nv@@2T__m128i@@B 0000000180250d40     SwCollision.obj
 0003:001d7d50       ?sSignedMask@?$Gather@T__m128i@@@cloth@nv@@2T__m128i@@B 0000000180250d50     SwCollision.obj
 0003:001d7d88       ?_OptionsStorage@?1??__local_stdio_printf_options@@9@4_KA 0000000180250d88     Callbacks.obj
 0003:001d7d94       ?gSimd4iZero@cloth@nv@@3USimd4iZeroFactory@12@B 0000000180250d94     CuCloth.obj
 0003:001d7d95       ?gSimd4fOne@cloth@nv@@3USimd4fOneFactory@12@B 0000000180250d95     CuCloth.obj
 0003:001d7d96       ?gSimd4fZero@cloth@nv@@3USimd4fZeroFactory@12@B 0000000180250d96     CuCloth.obj
 0003:001d7da0       ?sSkeletonWidth@?$SwCollision@T__m128@@@cloth@nv@@2T__m128@@B 0000000180250da0     SwCollision.obj
 0003:001d7db0       pfn_cuD3D11CtxCreate       0000000180250db0     <common>
 0003:001d7db8       pfn_cuD3D11GetDirect3DDevice 0000000180250db8     <common>
 0003:001d7dc0       pfn_cuD3D11CtxCreateOnDevice 0000000180250dc0     <common>
 0003:001d7dc8       pfn_cuD3D11CtxCreate_v2    0000000180250dc8     <common>
 0003:001d7dd0       pfn_cuGraphicsD3D11RegisterResource 0000000180250dd0     <common>
